SF:/Users/greg/Dev/git/kameo_remote/src/config.rs
FN:121,_RNvXNtCscNmhOS6QYVL_12kameo_remote6configNtB2_12GossipConfigNtNtCs85QQFkKrybG_4core7default7Default7default
FN:239,_RNvNtNtCs4ULJ6nbTBOi_12kameo_remote6config5testss_17test_config_clone
FN:249,_RNvNtNtCs4ULJ6nbTBOi_12kameo_remote6config5testss_17test_config_debug
FN:259,_RNvNtNtCs4ULJ6nbTBOi_12kameo_remote6config5testss_18test_custom_config
FN:179,_RNvNtNtCs4ULJ6nbTBOi_12kameo_remote6config5testss_19test_default_config
FN:275,_RNvNtNtCs4ULJ6nbTBOi_12kameo_remote6config5testss_24test_peer_retry_constant
FN:121,_RNvXNtCs4ULJ6nbTBOi_12kameo_remote6configNtB2_12GossipConfigNtNtCs85QQFkKrybG_4core7default7Default7default
FNDA:93,_RNvXNtCscNmhOS6QYVL_12kameo_remote6configNtB2_12GossipConfigNtNtCs85QQFkKrybG_4core7default7Default7default
FNDA:1,_RNvNtNtCs4ULJ6nbTBOi_12kameo_remote6config5testss_17test_config_clone
FNDA:1,_RNvNtNtCs4ULJ6nbTBOi_12kameo_remote6config5testss_17test_config_debug
FNDA:1,_RNvNtNtCs4ULJ6nbTBOi_12kameo_remote6config5testss_18test_custom_config
FNDA:1,_RNvNtNtCs4ULJ6nbTBOi_12kameo_remote6config5testss_19test_default_config
FNDA:1,_RNvNtNtCs4ULJ6nbTBOi_12kameo_remote6config5testss_24test_peer_retry_constant
FNDA:30,_RNvXNtCs4ULJ6nbTBOi_12kameo_remote6configNtB2_12GossipConfigNtNtCs85QQFkKrybG_4core7default7Default7default
FNF:6
FNH:6
DA:121,123
DA:122,123
DA:123,123
DA:124,123
DA:125,123
DA:126,123
DA:127,123
DA:128,123
DA:129,123
DA:130,123
DA:131,123
DA:132,123
DA:133,123
DA:134,123
DA:135,123
DA:136,123
DA:137,123
DA:138,123
DA:139,123
DA:140,123
DA:141,123
DA:142,123
DA:143,123
DA:144,123
DA:145,123
DA:146,123
DA:147,123
DA:148,123
DA:149,123
DA:150,123
DA:151,123
DA:152,123
DA:153,123
DA:154,123
DA:155,123
DA:156,123
DA:157,123
DA:158,123
DA:159,123
DA:160,123
DA:161,123
DA:162,123
DA:163,123
DA:164,123
DA:165,123
DA:166,123
DA:167,123
DA:168,123
DA:169,123
DA:170,123
DA:171,123
DA:179,1
DA:180,1
DA:182,1
DA:183,1
DA:184,1
DA:185,1
DA:186,1
DA:187,1
DA:188,1
DA:189,1
DA:190,1
DA:192,1
DA:194,1
DA:195,1
DA:196,1
DA:197,1
DA:198,1
DA:199,1
DA:200,1
DA:202,1
DA:204,1
DA:205,1
DA:206,1
DA:208,1
DA:210,1
DA:211,1
DA:212,1
DA:213,1
DA:214,1
DA:215,1
DA:217,1
DA:219,1
DA:220,1
DA:222,1
DA:223,1
DA:224,1
DA:225,1
DA:226,1
DA:227,1
DA:228,1
DA:229,1
DA:230,1
DA:231,1
DA:232,1
DA:233,1
DA:234,1
DA:235,1
DA:236,1
DA:239,1
DA:240,1
DA:241,1
DA:243,1
DA:244,1
DA:245,1
DA:246,1
DA:249,1
DA:250,1
DA:251,1
DA:253,1
DA:254,1
DA:255,1
DA:256,1
DA:259,1
DA:260,1
DA:261,1
DA:262,1
DA:263,1
DA:264,1
DA:265,1
DA:267,1
DA:268,1
DA:269,1
DA:271,1
DA:272,1
DA:275,1
DA:276,1
DA:277,1
BRF:0
BRH:0
LF:128
LH:128
end_of_record
SF:/Users/greg/Dev/git/kameo_remote/src/connection_pool.rs
FN:1704,_RNvMsf_NtCscNmhOS6QYVL_12kameo_remote15connection_poolNtB5_20LockFreeStreamHandle19write_bytes_controlCsa8O6w5083kA_20ask_reply_end_to_end
FN:2981,_RINvMsv_NtCscNmhOS6QYVL_12kameo_remote15connection_poolNtB6_16ConnectionHandle4tellRShECsa8O6w5083kA_20ask_reply_end_to_end
FN:2981,_RNCINvMsv_NtCscNmhOS6QYVL_12kameo_remote15connection_poolNtB8_16ConnectionHandle4tellRShE0Csa8O6w5083kA_20ask_reply_end_to_end
FN:3041,_RNCNCNvMsv_NtCscNmhOS6QYVL_12kameo_remote15connection_poolNtB9_16ConnectionHandle10tell_batch00Csa8O6w5083kA_20ask_reply_end_to_end
FN:4335,_RNCNCNvMsw_NtCscNmhOS6QYVL_12kameo_remote15connection_poolNtB9_14ConnectionPool22get_connection_to_peer00Csa8O6w5083kA_20ask_reply_end_to_end
FN:1583,_RNCNvMsf_NtCscNmhOS6QYVL_12kameo_remote15connection_poolNtB7_20LockFreeStreamHandle18acquire_ask_permit0Csa8O6w5083kA_20ask_reply_end_to_end
FN:2125,_RNCNvMsf_NtCscNmhOS6QYVL_12kameo_remote15connection_poolNtB7_20LockFreeStreamHandle26stream_large_message_zoned0Csa8O6w5083kA_20ask_reply_end_to_end
FN:2230,_RNCNvMsf_NtCscNmhOS6QYVL_12kameo_remote15connection_poolNtB7_20LockFreeStreamHandle29stream_large_message_internal0Csa8O6w5083kA_20ask_reply_end_to_end
FN:2219,_RNCNvMsf_NtCscNmhOS6QYVL_12kameo_remote15connection_poolNtB7_20LockFreeStreamHandle35stream_large_message_internal_bytes0Csa8O6w5083kA_20ask_reply_end_to_end
FN:1749,_RNCNvMsf_NtCscNmhOS6QYVL_12kameo_remote15connection_poolNtB7_20LockFreeStreamHandle35write_header_and_payload_ask_inline0Csa8O6w5083kA_20ask_reply_end_to_end
FN:2269,_RNCNvMsf_NtCscNmhOS6QYVL_12kameo_remote15connection_poolNtB7_20LockFreeStreamHandle37stream_large_message_with_correlation0Csa8O6w5083kA_20ask_reply_end_to_end
FN:2363,_RNCNvMsi_NtCscNmhOS6QYVL_12kameo_remote15connection_poolNtB7_11TellMessage8send_via0Csa8O6w5083kA_20ask_reply_end_to_end
FN:2571,_RNCNvMsr_NtCscNmhOS6QYVL_12kameo_remote15connection_poolNtB7_18CorrelationTracker17wait_for_response0Csa8O6w5083kA_20ask_reply_end_to_end
FN:3039,_RNCNvMsv_NtCscNmhOS6QYVL_12kameo_remote15connection_poolNtB7_16ConnectionHandle10tell_batch0Csa8O6w5083kA_20ask_reply_end_to_end
FN:2873,_RNCNvMsv_NtCscNmhOS6QYVL_12kameo_remote15connection_poolNtB7_16ConnectionHandle13ask_streaming0Csa8O6w5083kA_20ask_reply_end_to_end
FN:3171,_RNCNvMsv_NtCscNmhOS6QYVL_12kameo_remote15connection_poolNtB7_16ConnectionHandle16ask_with_timeout0Csa8O6w5083kA_20ask_reply_end_to_end
FN:3070,_RNCNvMsv_NtCscNmhOS6QYVL_12kameo_remote15connection_poolNtB7_16ConnectionHandle3ask0Csa8O6w5083kA_20ask_reply_end_to_end
FN:2923,_RNCNvMsv_NtCscNmhOS6QYVL_12kameo_remote15connection_poolNtB7_16ConnectionHandle8tell_raw0Csa8O6w5083kA_20ask_reply_end_to_end
FN:4280,_RNCNvMsw_NtCscNmhOS6QYVL_12kameo_remote15connection_poolNtB7_14ConnectionPool22get_connection_to_peer0Csa8O6w5083kA_20ask_reply_end_to_end
FN:68,_RNvMNtCscNmhOS6QYVL_12kameo_remote15connection_poolNtB2_11TaskTracker10set_reader
FN:60,_RNvMNtCscNmhOS6QYVL_12kameo_remote15connection_poolNtB2_11TaskTracker10set_writer
FN:86,_RNvMNtCscNmhOS6QYVL_12kameo_remote15connection_poolNtB2_11TaskTracker12abort_reader
FN:93,_RNvMNtCscNmhOS6QYVL_12kameo_remote15connection_poolNtB2_11TaskTracker12abort_writer
FN:105,_RNvMNtCscNmhOS6QYVL_12kameo_remote15connection_poolNtB2_11TaskTracker13detach_reader
FN:100,_RNvMNtCscNmhOS6QYVL_12kameo_remote15connection_poolNtB2_11TaskTracker13detach_writer
FN:55,_RNvMNtCscNmhOS6QYVL_12kameo_remote15connection_poolNtB2_11TaskTracker3new
FN:76,_RNvMNtCscNmhOS6QYVL_12kameo_remote15connection_poolNtB2_11TaskTracker9abort_all
FN:251,_RNvMs0_NtCscNmhOS6QYVL_12kameo_remote15connection_poolNtB5_12BufferConfig11from_master
FN:246,_RNvMs0_NtCscNmhOS6QYVL_12kameo_remote15connection_poolNtB5_12BufferConfig15tcp_buffer_size
FN:218,_RNvMs0_NtCscNmhOS6QYVL_12kameo_remote15connection_poolNtB5_12BufferConfig17ring_buffer_slots
FN:223,_RNvMs0_NtCscNmhOS6QYVL_12kameo_remote15connection_poolNtB5_12BufferConfig18ask_inflight_limit
FN:237,_RNvMs0_NtCscNmhOS6QYVL_12kameo_remote15connection_poolNtB5_12BufferConfig19streaming_threshold
FN:228,_RNvMs0_NtCscNmhOS6QYVL_12kameo_remote15connection_poolNtB5_12BufferConfig23with_ask_inflight_limit
FN:202,_RNvMs0_NtCscNmhOS6QYVL_12kameo_remote15connection_poolNtB5_12BufferConfig3new
FN:402,_RNvMs4_NtCscNmhOS6QYVL_12kameo_remote15connection_poolNtB5_18LockFreeConnection11abort_tasks
FN:448,_RNvMs4_NtCscNmhOS6QYVL_12kameo_remote15connection_poolNtB5_18LockFreeConnection12is_connected
FN:424,_RNvMs4_NtCscNmhOS6QYVL_12kameo_remote15connection_poolNtB5_18LockFreeConnection13try_set_state
FN:435,_RNvMs4_NtCscNmhOS6QYVL_12kameo_remote15connection_poolNtB5_18LockFreeConnection16update_last_used
FN:444,_RNvMs4_NtCscNmhOS6QYVL_12kameo_remote15connection_poolNtB5_18LockFreeConnection19reset_failure_count
FN:440,_RNvMs4_NtCscNmhOS6QYVL_12kameo_remote15connection_poolNtB5_18LockFreeConnection23increment_failure_count
FN:407,_RNvMs4_NtCscNmhOS6QYVL_12kameo_remote15connection_poolNtB5_18LockFreeConnection25shutdown_tasks_gracefully
FN:385,_RNvMs4_NtCscNmhOS6QYVL_12kameo_remote15connection_poolNtB5_18LockFreeConnection3new
FN:416,_RNvMs4_NtCscNmhOS6QYVL_12kameo_remote15connection_poolNtB5_18LockFreeConnection9get_state
FN:452,_RNvMs4_NtCscNmhOS6QYVL_12kameo_remote15connection_poolNtB5_18LockFreeConnection9is_failed
FN:420,_RNvMs4_NtCscNmhOS6QYVL_12kameo_remote15connection_poolNtB5_18LockFreeConnection9set_state
FN:612,_RNvMsd_NtCscNmhOS6QYVL_12kameo_remote15connection_poolNtB5_17MessageBufferPool10get_buffer
FN:637,_RNvMsd_NtCscNmhOS6QYVL_12kameo_remote15connection_poolNtB5_17MessageBufferPool13return_buffer
FN:650,_RNvMsd_NtCscNmhOS6QYVL_12kameo_remote15connection_poolNtB5_17MessageBufferPool15available_count
FN:597,_RNvMsd_NtCscNmhOS6QYVL_12kameo_remote15connection_poolNtB5_17MessageBufferPool3new
FN:654,_RNvMsd_NtCscNmhOS6QYVL_12kameo_remote15connection_poolNtB5_17MessageBufferPool8is_empty
FN:731,_RNvMse_NtCscNmhOS6QYVL_12kameo_remote15connection_poolNtB5_18LockFreeRingBuffer11utilization
FN:726,_RNvMse_NtCscNmhOS6QYVL_12kameo_remote15connection_poolNtB5_18LockFreeRingBuffer13pending_count
FN:736,_RNvMse_NtCscNmhOS6QYVL_12kameo_remote15connection_poolNtB5_18LockFreeRingBuffer14is_nearly_full
FN:671,_RNvMse_NtCscNmhOS6QYVL_12kameo_remote15connection_poolNtB5_18LockFreeRingBuffer3new
FN:705,_RNvMse_NtCscNmhOS6QYVL_12kameo_remote15connection_poolNtB5_18LockFreeRingBuffer7try_pop
FN:683,_RNvMse_NtCscNmhOS6QYVL_12kameo_remote15connection_poolNtB5_18LockFreeRingBuffer8try_push
FN:2081,_RNvMsf_NtCscNmhOS6QYVL_12kameo_remote15connection_poolNtB5_20LockFreeStreamHandle10channel_id
FN:2069,_RNvMsf_NtCscNmhOS6QYVL_12kameo_remote15connection_poolNtB5_20LockFreeStreamHandle13buffer_status
FN:2086,_RNvMsf_NtCscNmhOS6QYVL_12kameo_remote15connection_poolNtB5_20LockFreeStreamHandle13bytes_written
FN:2075,_RNvMsf_NtCscNmhOS6QYVL_12kameo_remote15connection_poolNtB5_20LockFreeStreamHandle14is_buffer_full
FN:2091,_RNvMsf_NtCscNmhOS6QYVL_12kameo_remote15connection_poolNtB5_20LockFreeStreamHandle15sequence_number
FN:1799,_RNvMsf_NtCscNmhOS6QYVL_12kameo_remote15connection_poolNtB5_20LockFreeStreamHandle16write_pooled_ask
FN:2020,_RNvMsf_NtCscNmhOS6QYVL_12kameo_remote15connection_poolNtB5_20LockFreeStreamHandle17flush_immediately
FN:1583,_RNvMsf_NtCscNmhOS6QYVL_12kameo_remote15connection_poolNtB5_20LockFreeStreamHandle18acquire_ask_permit
FN:2299,_RNvMsf_NtCscNmhOS6QYVL_12kameo_remote15connection_poolNtB5_20LockFreeStreamHandle18write_owned_chunks
FN:1667,_RNvMsf_NtCscNmhOS6QYVL_12kameo_remote15connection_poolNtB5_20LockFreeStreamHandle19enqueue_with_permit
FN:2115,_RNvMsf_NtCscNmhOS6QYVL_12kameo_remote15connection_poolNtB5_20LockFreeStreamHandle19streaming_threshold
FN:1687,_RNvMsf_NtCscNmhOS6QYVL_12kameo_remote15connection_poolNtB5_20LockFreeStreamHandle19wake_writer_if_idle
FN:1704,_RNvMsf_NtCscNmhOS6QYVL_12kameo_remote15connection_poolNtB5_20LockFreeStreamHandle19write_bytes_controlB7_
FN:2242,_RNvMsf_NtCscNmhOS6QYVL_12kameo_remote15connection_poolNtB5_20LockFreeStreamHandle20stream_large_message
FN:2287,_RNvMsf_NtCscNmhOS6QYVL_12kameo_remote15connection_poolNtB5_20LockFreeStreamHandle20write_bytes_vectored
FN:1761,_RNvMsf_NtCscNmhOS6QYVL_12kameo_remote15connection_poolNtB5_20LockFreeStreamHandle20write_pooled_control
FN:1591,_RNvMsf_NtCscNmhOS6QYVL_12kameo_remote15connection_poolNtB5_20LockFreeStreamHandle22acquire_control_permit
FN:2096,_RNvMsf_NtCscNmhOS6QYVL_12kameo_remote15connection_poolNtB5_20LockFreeStreamHandle22next_frame_sequence_id
FN:1874,_RNvMsf_NtCscNmhOS6QYVL_12kameo_remote15connection_poolNtB5_20LockFreeStreamHandle23write_bytes_nonblocking
FN:1816,_RNvMsf_NtCscNmhOS6QYVL_12kameo_remote15connection_poolNtB5_20LockFreeStreamHandle23write_pooled_ask_inline
FN:2056,_RNvMsf_NtCscNmhOS6QYVL_12kameo_remote15connection_poolNtB5_20LockFreeStreamHandle25write_chunked_nonblocking
FN:2252,_RNvMsf_NtCscNmhOS6QYVL_12kameo_remote15connection_poolNtB5_20LockFreeStreamHandle26stream_large_message_bytes
FN:2119,_RNvMsf_NtCscNmhOS6QYVL_12kameo_remote15connection_poolNtB5_20LockFreeStreamHandle26stream_large_message_zoned
FN:2039,_RNvMsf_NtCscNmhOS6QYVL_12kameo_remote15connection_poolNtB5_20LockFreeStreamHandle26write_vectored_nonblocking
FN:1778,_RNvMsf_NtCscNmhOS6QYVL_12kameo_remote15connection_poolNtB5_20LockFreeStreamHandle27write_pooled_control_inline
FN:1735,_RNvMsf_NtCscNmhOS6QYVL_12kameo_remote15connection_poolNtB5_20LockFreeStreamHandle28write_header_and_payload_ask
FN:2224,_RNvMsf_NtCscNmhOS6QYVL_12kameo_remote15connection_poolNtB5_20LockFreeStreamHandle29stream_large_message_internal
FN:1972,_RNvMsf_NtCscNmhOS6QYVL_12kameo_remote15connection_poolNtB5_20LockFreeStreamHandle31write_bytes_nonblocking_checked
FN:1709,_RNvMsf_NtCscNmhOS6QYVL_12kameo_remote15connection_poolNtB5_20LockFreeStreamHandle32write_header_and_payload_control
FN:2213,_RNvMsf_NtCscNmhOS6QYVL_12kameo_remote15connection_poolNtB5_20LockFreeStreamHandle35stream_large_message_internal_bytes
FN:1744,_RNvMsf_NtCscNmhOS6QYVL_12kameo_remote15connection_poolNtB5_20LockFreeStreamHandle35write_header_and_payload_ask_inline
FN:1904,_RNvMsf_NtCscNmhOS6QYVL_12kameo_remote15connection_poolNtB5_20LockFreeStreamHandle36write_header_and_payload_nonblocking
FN:2263,_RNvMsf_NtCscNmhOS6QYVL_12kameo_remote15connection_poolNtB5_20LockFreeStreamHandle37stream_large_message_with_correlation
FN:1718,_RNvMsf_NtCscNmhOS6QYVL_12kameo_remote15connection_poolNtB5_20LockFreeStreamHandle39write_header_and_payload_control_inline
FN:2274,_RNvMsf_NtCscNmhOS6QYVL_12kameo_remote15connection_poolNtB5_20LockFreeStreamHandle43stream_large_message_with_correlation_bytes
FN:1936,_RNvMsf_NtCscNmhOS6QYVL_12kameo_remote15connection_poolNtB5_20LockFreeStreamHandle43write_header_and_payload_nonblocking_inline
FN:1994,_RNvMsf_NtCscNmhOS6QYVL_12kameo_remote15connection_poolNtB5_20LockFreeStreamHandle44write_header_and_payload_nonblocking_checked
FN:2101,_RNvMsf_NtCscNmhOS6QYVL_12kameo_remote15connection_poolNtB5_20LockFreeStreamHandle4addr
FN:2106,_RNvMsf_NtCscNmhOS6QYVL_12kameo_remote15connection_poolNtB5_20LockFreeStreamHandle8shutdown
FN:2354,_RNvMsi_NtCscNmhOS6QYVL_12kameo_remote15connection_poolNtB5_11TellMessage10from_slice
FN:2349,_RNvMsi_NtCscNmhOS6QYVL_12kameo_remote15connection_poolNtB5_11TellMessage5batch
FN:2344,_RNvMsi_NtCscNmhOS6QYVL_12kameo_remote15connection_poolNtB5_11TellMessage6single
FN:2363,_RNvMsi_NtCscNmhOS6QYVL_12kameo_remote15connection_poolNtB5_11TellMessage8send_via
FN:2530,_RNvMsr_NtCscNmhOS6QYVL_12kameo_remote15connection_poolNtB5_18CorrelationTracker11has_pending
FN:2491,_RNvMsr_NtCscNmhOS6QYVL_12kameo_remote15connection_poolNtB5_18CorrelationTracker13take_response
FN:2567,_RNvMsr_NtCscNmhOS6QYVL_12kameo_remote15connection_poolNtB5_18CorrelationTracker17wait_for_response
FN:2479,_RNvMsr_NtCscNmhOS6QYVL_12kameo_remote15connection_poolNtB5_18CorrelationTracker3new
FN:2554,_RNvMsr_NtCscNmhOS6QYVL_12kameo_remote15connection_poolNtB5_18CorrelationTracker6cancel
FN:2501,_RNvMsr_NtCscNmhOS6QYVL_12kameo_remote15connection_poolNtB5_18CorrelationTracker8allocate
FN:2536,_RNvMsr_NtCscNmhOS6QYVL_12kameo_remote15connection_poolNtB5_18CorrelationTracker8complete
FN:2683,_RNvMst_NtCscNmhOS6QYVL_12kameo_remote15connection_poolNtB5_20DelegatedReplySender11reply_error
FN:2723,_RNvMst_NtCscNmhOS6QYVL_12kameo_remote15connection_poolNtB5_20DelegatedReplySender11request_len
FN:2733,_RNvMst_NtCscNmhOS6QYVL_12kameo_remote15connection_poolNtB5_20DelegatedReplySender12is_timed_out
FN:2689,_RNvMst_NtCscNmhOS6QYVL_12kameo_remote15connection_poolNtB5_20DelegatedReplySender14wait_for_reply
FN:2655,_RNvMst_NtCscNmhOS6QYVL_12kameo_remote15connection_poolNtB5_20DelegatedReplySender16new_with_timeout
FN:2742,_RNvMst_NtCscNmhOS6QYVL_12kameo_remote15connection_poolNtB5_20DelegatedReplySender17create_mock_reply
FN:2711,_RNvMst_NtCscNmhOS6QYVL_12kameo_remote15connection_poolNtB5_20DelegatedReplySender27wait_for_reply_with_timeout
FN:2640,_RNvMst_NtCscNmhOS6QYVL_12kameo_remote15connection_poolNtB5_20DelegatedReplySender3new
FN:2672,_RNvMst_NtCscNmhOS6QYVL_12kameo_remote15connection_poolNtB5_20DelegatedReplySender5reply
FN:2728,_RNvMst_NtCscNmhOS6QYVL_12kameo_remote15connection_poolNtB5_20DelegatedReplySender7elapsed
FN:3039,_RNvMsv_NtCscNmhOS6QYVL_12kameo_remote15connection_poolNtB5_16ConnectionHandle10tell_batch
FN:2935,_RNvMsv_NtCscNmhOS6QYVL_12kameo_remote15connection_poolNtB5_16ConnectionHandle10tell_bytes
FN:2867,_RNvMsv_NtCscNmhOS6QYVL_12kameo_remote15connection_poolNtB5_16ConnectionHandle13ask_streaming
FN:3026,_RNvMsv_NtCscNmhOS6QYVL_12kameo_remote15connection_poolNtB5_16ConnectionHandle13send_messages
FN:2785,_RNvMsv_NtCscNmhOS6QYVL_12kameo_remote15connection_poolNtB5_16ConnectionHandle14send_raw_bytes
FN:3055,_RNvMsv_NtCscNmhOS6QYVL_12kameo_remote15connection_poolNtB5_16ConnectionHandle15try_send_direct
FN:3167,_RNvMsv_NtCscNmhOS6QYVL_12kameo_remote15connection_poolNtB5_16ConnectionHandle16ask_with_timeout
FN:3195,_RNvMsv_NtCscNmhOS6QYVL_12kameo_remote15connection_poolNtB5_16ConnectionHandle17ask_with_reply_to
FN:3021,_RNvMsv_NtCscNmhOS6QYVL_12kameo_remote15connection_poolNtB5_16ConnectionHandle17send_tell_message
FN:3530,_RNvMsv_NtCscNmhOS6QYVL_12kameo_remote15connection_poolNtB5_16ConnectionHandle18write_owned_chunks
FN:3359,_RNvMsv_NtCscNmhOS6QYVL_12kameo_remote15connection_poolNtB5_16ConnectionHandle19ask_batch_optimized
FN:2891,_RNvMsv_NtCscNmhOS6QYVL_12kameo_remote15connection_poolNtB5_16ConnectionHandle19ask_streaming_bytes
FN:2767,_RNvMsv_NtCscNmhOS6QYVL_12kameo_remote15connection_poolNtB5_16ConnectionHandle19ensure_streaming_v2
FN:2973,_RNvMsv_NtCscNmhOS6QYVL_12kameo_remote15connection_poolNtB5_16ConnectionHandle19send_binary_message
FN:2793,_RNvMsv_NtCscNmhOS6QYVL_12kameo_remote15connection_poolNtB5_16ConnectionHandle19send_response_bytes
FN:2918,_RNvMsv_NtCscNmhOS6QYVL_12kameo_remote15connection_poolNtB5_16ConnectionHandle19streaming_threshold
FN:3519,_RNvMsv_NtCscNmhOS6QYVL_12kameo_remote15connection_poolNtB5_16ConnectionHandle20get_lock_free_stream
FN:2849,_RNvMsv_NtCscNmhOS6QYVL_12kameo_remote15connection_poolNtB5_16ConnectionHandle20send_bytes_zero_copy
FN:2830,_RNvMsv_NtCscNmhOS6QYVL_12kameo_remote15connection_poolNtB5_16ConnectionHandle20send_response_pooled
FN:2854,_RNvMsv_NtCscNmhOS6QYVL_12kameo_remote15connection_poolNtB5_16ConnectionHandle20stream_large_message
FN:3525,_RNvMsv_NtCscNmhOS6QYVL_12kameo_remote15connection_poolNtB5_16ConnectionHandle20write_bytes_vectored
FN:3224,_RNvMsv_NtCscNmhOS6QYVL_12kameo_remote15connection_poolNtB5_16ConnectionHandle21ask_with_reply_sender
FN:3329,_RNvMsv_NtCscNmhOS6QYVL_12kameo_remote15connection_poolNtB5_16ConnectionHandle22ask_batch_with_timeout
FN:3138,_RNvMsv_NtCscNmhOS6QYVL_12kameo_remote15connection_poolNtB5_16ConnectionHandle23ask_with_timeout_pooled
FN:3240,_RNvMsv_NtCscNmhOS6QYVL_12kameo_remote15connection_poolNtB5_16ConnectionHandle26ask_with_timeout_and_reply
FN:2759,_RNvMsv_NtCscNmhOS6QYVL_12kameo_remote15connection_poolNtB5_16ConnectionHandle26peer_supports_streaming_v2
FN:3070,_RNvMsv_NtCscNmhOS6QYVL_12kameo_remote15connection_poolNtB5_16ConnectionHandle3ask
FN:3064,_RNvMsv_NtCscNmhOS6QYVL_12kameo_remote15connection_poolNtB5_16ConnectionHandle8send_raw
FN:2923,_RNvMsv_NtCscNmhOS6QYVL_12kameo_remote15connection_poolNtB5_16ConnectionHandle8tell_raw
FN:3262,_RNvMsv_NtCscNmhOS6QYVL_12kameo_remote15connection_poolNtB5_16ConnectionHandle9ask_batch
FN:2778,_RNvMsv_NtCscNmhOS6QYVL_12kameo_remote15connection_poolNtB5_16ConnectionHandle9send_data
FN:2999,_RNvMsv_NtCscNmhOS6QYVL_12kameo_remote15connection_poolNtB5_16ConnectionHandle9tell_auto
FN:4196,_RNvMsw_NtCscNmhOS6QYVL_12kameo_remote15connection_poolNtB5_14ConnectionPool10get_buffer
FN:4067,_RNvMsw_NtCscNmhOS6QYVL_12kameo_remote15connection_poolNtB5_14ConnectionPool12send_to_node
FN:3563,_RNvMsw_NtCscNmhOS6QYVL_12kameo_remote15connection_poolNtB5_14ConnectionPool12set_registry
FN:4209,_RNvMsw_NtCscNmhOS6QYVL_12kameo_remote15connection_poolNtB5_14ConnectionPool13return_buffer
FN:4375,_RNvMsw_NtCscNmhOS6QYVL_12kameo_remote15connection_poolNtB5_14ConnectionPool14get_connection
FN:5011,_RNvMsw_NtCscNmhOS6QYVL_12kameo_remote15connection_poolNtB5_14ConnectionPool14has_connection
FN:3994,_RNvMsw_NtCscNmhOS6QYVL_12kameo_remote15connection_poolNtB5_14ConnectionPool14send_lock_free
FN:3854,_RNvMsw_NtCscNmhOS6QYVL_12kameo_remote15connection_poolNtB5_14ConnectionPool15send_to_peer_id
FN:4166,_RNvMsw_NtCscNmhOS6QYVL_12kameo_remote15connection_poolNtB5_14ConnectionPool16connection_count
FN:4989,_RNvMsw_NtCscNmhOS6QYVL_12kameo_remote15connection_poolNtB5_14ConnectionPool17mark_disconnected
FN:4090,_RNvMsw_NtCscNmhOS6QYVL_12kameo_remote15connection_poolNtB5_14ConnectionPool17remove_connection
FN:4218,_RNvMsw_NtCscNmhOS6QYVL_12kameo_remote15connection_poolNtB5_14ConnectionPool18get_message_buffer
FN:3747,_RNvMsw_NtCscNmhOS6QYVL_12kameo_remote15connection_poolNtB5_14ConnectionPool19add_addr_to_peer_id
FN:4188,_RNvMsw_NtCscNmhOS6QYVL_12kameo_remote15connection_poolNtB5_14ConnectionPool19get_all_connections
FN:4174,_RNvMsw_NtCscNmhOS6QYVL_12kameo_remote15connection_poolNtB5_14ConnectionPool19get_connected_peers
FN:3741,_RNvMsw_NtCscNmhOS6QYVL_12kameo_remote15connection_poolNtB5_14ConnectionPool19get_peer_id_by_addr
FN:3576,_RNvMsw_NtCscNmhOS6QYVL_12kameo_remote15connection_poolNtB5_14ConnectionPool19update_node_address
FN:4018,_RNvMsw_NtCscNmhOS6QYVL_12kameo_remote15connection_poolNtB5_14ConnectionPool20send_lock_free_parts
FN:5050,_RNvMsw_NtCscNmhOS6QYVL_12kameo_remote15connection_poolNtB5_14ConnectionPool21close_all_connections
FN:4234,_RNvMsw_NtCscNmhOS6QYVL_12kameo_remote15connection_poolNtB5_14ConnectionPool21create_message_buffer
FN:4997,_RNvMsw_NtCscNmhOS6QYVL_12kameo_remote15connection_poolNtB5_14ConnectionPool21remove_connection_mut
FN:4225,_RNvMsw_NtCscNmhOS6QYVL_12kameo_remote15connection_poolNtB5_14ConnectionPool21return_message_buffer
FN:3881,_RNvMsw_NtCscNmhOS6QYVL_12kameo_remote15connection_poolNtB5_14ConnectionPool21send_bytes_to_peer_id
FN:3729,_RNvMsw_NtCscNmhOS6QYVL_12kameo_remote15connection_poolNtB5_14ConnectionPool22get_connection_by_addr
FN:4277,_RNvMsw_NtCscNmhOS6QYVL_12kameo_remote15connection_poolNtB5_14ConnectionPool22get_connection_to_peer
FN:5027,_RNvMsw_NtCscNmhOS6QYVL_12kameo_remote15connection_poolNtB5_14ConnectionPool23check_connection_health
FN:4244,_RNvMsw_NtCscNmhOS6QYVL_12kameo_remote15connection_poolNtB5_14ConnectionPool23get_existing_connection
FN:3599,_RNvMsw_NtCscNmhOS6QYVL_12kameo_remote15connection_poolNtB5_14ConnectionPool23reindex_connection_addr
FN:3915,_RNvMsw_NtCscNmhOS6QYVL_12kameo_remote15connection_poolNtB5_14ConnectionPool24add_lock_free_connection
FN:3908,_RNvMsw_NtCscNmhOS6QYVL_12kameo_remote15connection_poolNtB5_14ConnectionPool24get_lock_free_connection
FN:3845,_RNvMsw_NtCscNmhOS6QYVL_12kameo_remote15connection_poolNtB5_14ConnectionPool24index_connection_by_addr
FN:3790,_RNvMsw_NtCscNmhOS6QYVL_12kameo_remote15connection_poolNtB5_14ConnectionPool25add_connection_by_peer_id
FN:5033,_RNvMsw_NtCscNmhOS6QYVL_12kameo_remote15connection_poolNtB5_14ConnectionPool25cleanup_stale_connections
FN:3676,_RNvMsw_NtCscNmhOS6QYVL_12kameo_remote15connection_poolNtB5_14ConnectionPool25get_connection_by_peer_id
FN:5019,_RNvMsw_NtCscNmhOS6QYVL_12kameo_remote15connection_poolNtB5_14ConnectionPool25has_connection_by_peer_id
FN:3568,_RNvMsw_NtCscNmhOS6QYVL_12kameo_remote15connection_poolNtB5_14ConnectionPool27clear_capabilities_for_addr
FN:4379,_RNvMsw_NtCscNmhOS6QYVL_12kameo_remote15connection_poolNtB5_14ConnectionPool27get_connection_with_node_id
FN:4041,_RNvMsw_NtCscNmhOS6QYVL_12kameo_remote15connection_poolNtB5_14ConnectionPool27send_lock_free_parts_inline
FN:5986,_RNvMsw_NtCscNmhOS6QYVL_12kameo_remote15connection_poolNtB5_14ConnectionPool28deliver_streaming_completion
FN:3756,_RNvMsw_NtCscNmhOS6QYVL_12kameo_remote15connection_poolNtB5_14ConnectionPool30get_shared_correlation_tracker
FN:4123,_RNvMsw_NtCscNmhOS6QYVL_12kameo_remote15connection_poolNtB5_14ConnectionPool32disconnect_connection_by_peer_id
FN:3766,_RNvMsw_NtCscNmhOS6QYVL_12kameo_remote15connection_poolNtB5_14ConnectionPool33get_or_create_correlation_tracker
FN:5066,_RNvMsw_NtCscNmhOS6QYVL_12kameo_remote15connection_poolNtB5_14ConnectionPool35handle_persistent_connection_reader
FN:3536,_RNvMsw_NtCscNmhOS6QYVL_12kameo_remote15connection_poolNtB5_14ConnectionPool3new
FN:128,_RNvNtCscNmhOS6QYVL_12kameo_remote15connection_pool12should_flush
FN:6122,_RNvNtCscNmhOS6QYVL_12kameo_remote15connection_pool16archived_node_id
FN:6116,_RNvNtCscNmhOS6QYVL_12kameo_remote15connection_pool16archived_peer_id
FN:6136,_RNvNtCscNmhOS6QYVL_12kameo_remote15connection_pool19archived_option_str
FN:162,_RNvNtCscNmhOS6QYVL_12kameo_remote15connection_pool20process_mock_request
FN:6098,_RNvNtCscNmhOS6QYVL_12kameo_remote15connection_pool21registry_message_kind
FN:116,_RNvNtCscNmhOS6QYVL_12kameo_remote15connection_pool22control_reserved_slots
FN:6244,_RNvNtCscNmhOS6QYVL_12kameo_remote15connection_pool23handle_incoming_message
FN:6047,_RNvNtCscNmhOS6QYVL_12kameo_remote15connection_pool23resolve_peer_state_addr
FN:184,_RNvNtCscNmhOS6QYVL_12kameo_remote15connection_pool28process_mock_request_payload
FN:6145,_RNvNtCscNmhOS6QYVL_12kameo_remote15connection_pool29compare_archived_vector_clock
FN:6128,_RNvNtCscNmhOS6QYVL_12kameo_remote15connection_pool30archived_priority_is_immediate
FN:6218,_RNvNtCscNmhOS6QYVL_12kameo_remote15connection_pool31collect_actor_map_from_archived
FN:6233,_RNvNtCscNmhOS6QYVL_12kameo_remote15connection_pool32peer_health_status_from_archived
FN:261,_RNvXs1_NtCscNmhOS6QYVL_12kameo_remote15connection_poolNtB5_12BufferConfigNtNtCs85QQFkKrybG_4core7default7Default7default
FN:328,_RNvXs2_NtCscNmhOS6QYVL_12kameo_remote15connection_poolNtB5_15ConnectionStateINtNtCs85QQFkKrybG_4core7convert4FrommE4from
FN:365,_RNvXs3_NtCscNmhOS6QYVL_12kameo_remote15connection_poolNtB5_18LockFreeConnectionNtNtCs85QQFkKrybG_4core5clone5Clone5clone
FN:490,_RNvXs5_NtCscNmhOS6QYVL_12kameo_remote15connection_poolNtB5_12WritePayloadNtNtCs85QQFkKrybG_4core3fmt5Debug3fmt
FN:559,_RNvXs8_NtCscNmhOS6QYVL_12kameo_remote15connection_poolNtB5_12WriteCommandNtNtCs85QQFkKrybG_4core3fmt5Debug3fmt
FN:2326,_RNvXsh_NtCscNmhOS6QYVL_12kameo_remote15connection_poolNtB5_20LockFreeStreamHandleNtNtCs85QQFkKrybG_4core3fmt5Debug3fmt
FN:2373,_RNvXsj_NtCscNmhOS6QYVL_12kameo_remote15connection_poolNtB5_11TellMessageINtNtCs85QQFkKrybG_4core7convert4FromRShE4from
FN:2379,_RNvXsk_NtCscNmhOS6QYVL_12kameo_remote15connection_poolNtB5_11TellMessageINtNtCs85QQFkKrybG_4core7convert4FromINtNtCsdFlNUEO95cG_5alloc3vec3VecRShEE4from
FN:2389,_RNvXsl_NtCscNmhOS6QYVL_12kameo_remote15connection_poolNtB5_11TellMessageINtNtCs85QQFkKrybG_4core7convert4FromRSRShE4from
FN:2405,_RNvXsn_NtCscNmhOS6QYVL_12kameo_remote15connection_poolNtB5_11TellMessageINtNtCs85QQFkKrybG_4core7convert4FromRINtNtCsdFlNUEO95cG_5alloc3vec3VechEE4from
FN:2471,_RNvXsq_NtCscNmhOS6QYVL_12kameo_remote15connection_poolNtB5_18CorrelationTrackerNtNtCs85QQFkKrybG_4core3fmt5Debug3fmt
FN:2612,_RNvXss_NtCscNmhOS6QYVL_12kameo_remote15connection_poolNtB5_16ConnectionHandleNtNtCs85QQFkKrybG_4core3fmt5Debug3fmt
FN:2748,_RNvXsu_NtCscNmhOS6QYVL_12kameo_remote15connection_poolNtB5_20DelegatedReplySenderNtNtCs85QQFkKrybG_4core3fmt5Debug3fmt
FN:933,_RINvMsf_NtCscNmhOS6QYVL_12kameo_remote15connection_poolNtB6_20LockFreeStreamHandle22background_writer_taskINtNtCs85QQFkKrybG_4core3pin3PinINtNtCsdFlNUEO95cG_5alloc5boxed3BoxDNtNtNtCsh4ISjvibZbV_5tokio2io11async_write10AsyncWriteNtNtB1L_6marker4SendEL_EEEB8_
FN:933,_RINvMsf_NtCscNmhOS6QYVL_12kameo_remote15connection_poolNtB6_20LockFreeStreamHandle22background_writer_taskNtNtNtNtCsh4ISjvibZbV_5tokio3net3tcp11split_owned14OwnedWriteHalfEB8_
FN:836,_RINvMsf_NtCscNmhOS6QYVL_12kameo_remote15connection_poolNtB6_20LockFreeStreamHandle3newINtNtCs85QQFkKrybG_4core3pin3PinINtNtCsdFlNUEO95cG_5alloc5boxed3BoxDNtNtNtCsh4ISjvibZbV_5tokio2io11async_write10AsyncWriteNtNtB1r_6marker4SendEL_EEEB8_
FN:836,_RINvMsf_NtCscNmhOS6QYVL_12kameo_remote15connection_poolNtB6_20LockFreeStreamHandle3newNtNtNtNtCsh4ISjvibZbV_5tokio3net3tcp11split_owned14OwnedWriteHalfEB8_
FN:5907,_RINvMsw_NtCscNmhOS6QYVL_12kameo_remote15connection_poolNtB6_14ConnectionPool33process_reader_streaming_v2_frameINtNtCs85QQFkKrybG_4core3pin3PinINtNtCsdFlNUEO95cG_5alloc5boxed3BoxDNtNtNtCsh4ISjvibZbV_5tokio2io10async_read9AsyncReadNtNtB1Q_6marker4SendEL_EEEB8_
FN:761,_RINvNtCscNmhOS6QYVL_12kameo_remote15connection_pool24write_bytes_vectored_allINtNtNtNtCsh4ISjvibZbV_5tokio2io4util10buf_writer9BufWriterINtNtCs85QQFkKrybG_4core3pin3PinINtNtCsdFlNUEO95cG_5alloc5boxed3BoxDNtNtB1k_11async_write10AsyncWriteNtNtB2f_6marker4SendEL_EEEEB4_
FN:761,_RINvNtCscNmhOS6QYVL_12kameo_remote15connection_pool24write_bytes_vectored_allINtNtNtNtCsh4ISjvibZbV_5tokio2io4util10buf_writer9BufWriterNtNtNtNtB1m_3net3tcp11split_owned14OwnedWriteHalfEEB4_
FN:6201,_RINvNtCscNmhOS6QYVL_12kameo_remote15connection_pool26hash_archived_vector_clockNtNtNtCswz7ZwgBZOU_3std4hash6random13DefaultHasherEB4_
FN:945,_RNCINvMsf_NtCscNmhOS6QYVL_12kameo_remote15connection_poolNtB8_20LockFreeStreamHandle22background_writer_taskINtNtCs85QQFkKrybG_4core3pin3PinINtNtCsdFlNUEO95cG_5alloc5boxed3BoxDNtNtNtCsh4ISjvibZbV_5tokio2io11async_write10AsyncWriteNtNtB1N_6marker4SendEL_EEE0Ba_
FN:945,_RNCINvMsf_NtCscNmhOS6QYVL_12kameo_remote15connection_poolNtB8_20LockFreeStreamHandle22background_writer_taskNtNtNtNtCsh4ISjvibZbV_5tokio3net3tcp11split_owned14OwnedWriteHalfE0Ba_
FN:881,_RNCINvMsf_NtCscNmhOS6QYVL_12kameo_remote15connection_poolNtB8_20LockFreeStreamHandle3newINtNtCs85QQFkKrybG_4core3pin3PinINtNtCsdFlNUEO95cG_5alloc5boxed3BoxDNtNtNtCsh4ISjvibZbV_5tokio2io11async_write10AsyncWriteNtNtB1t_6marker4SendEL_EEE0Ba_
FN:881,_RNCINvMsf_NtCscNmhOS6QYVL_12kameo_remote15connection_poolNtB8_20LockFreeStreamHandle3newNtNtNtNtCsh4ISjvibZbV_5tokio3net3tcp11split_owned14OwnedWriteHalfE0Ba_
FN:5916,_RNCINvMsw_NtCscNmhOS6QYVL_12kameo_remote15connection_poolNtB8_14ConnectionPool33process_reader_streaming_v2_frameINtNtCs85QQFkKrybG_4core3pin3PinINtNtCsdFlNUEO95cG_5alloc5boxed3BoxDNtNtNtCsh4ISjvibZbV_5tokio2io10async_read9AsyncReadNtNtB1S_6marker4SendEL_EEE0Ba_
FN:764,_RNCINvNtCscNmhOS6QYVL_12kameo_remote15connection_pool24write_bytes_vectored_allINtNtNtNtCsh4ISjvibZbV_5tokio2io4util10buf_writer9BufWriterINtNtCs85QQFkKrybG_4core3pin3PinINtNtCsdFlNUEO95cG_5alloc5boxed3BoxDNtNtB1m_11async_write10AsyncWriteNtNtB2h_6marker4SendEL_EEEE0B6_
FN:764,_RNCINvNtCscNmhOS6QYVL_12kameo_remote15connection_pool24write_bytes_vectored_allINtNtNtNtCsh4ISjvibZbV_5tokio2io4util10buf_writer9BufWriterNtNtNtNtB1o_3net3tcp11split_owned14OwnedWriteHalfEE0B6_
FN:4529,_RNCNCNCNvMsw_NtCscNmhOS6QYVL_12kameo_remote15connection_poolNtBb_14ConnectionPool27get_connection_with_node_id0s6_00Bd_
FN:4435,_RNCNCNCNvMsw_NtCscNmhOS6QYVL_12kameo_remote15connection_poolNtBb_14ConnectionPool27get_connection_with_node_id0s_00Bd_
FN:4711,_RNCNCNCNvMsw_NtCscNmhOS6QYVL_12kameo_remote15connection_poolNtBb_14ConnectionPool27get_connection_with_node_id0sg_00Bd_
FN:4712,_RNCNCNCNvMsw_NtCscNmhOS6QYVL_12kameo_remote15connection_poolNtBb_14ConnectionPool27get_connection_with_node_id0sg_0s_0Bd_
FN:4804,_RNCNCNCNvMsw_NtCscNmhOS6QYVL_12kameo_remote15connection_poolNtBb_14ConnectionPool27get_connection_with_node_id0si_00Bd_
FN:4815,_RNCNCNCNvMsw_NtCscNmhOS6QYVL_12kameo_remote15connection_poolNtBb_14ConnectionPool27get_connection_with_node_id0si_0s0_0Bd_
FN:4829,_RNCNCNCNvMsw_NtCscNmhOS6QYVL_12kameo_remote15connection_poolNtBb_14ConnectionPool27get_connection_with_node_id0si_0s1_0Bd_
FN:4845,_RNCNCNCNvMsw_NtCscNmhOS6QYVL_12kameo_remote15connection_poolNtBb_14ConnectionPool27get_connection_with_node_id0si_0s2_0Bd_
FN:4864,_RNCNCNCNvMsw_NtCscNmhOS6QYVL_12kameo_remote15connection_poolNtBb_14ConnectionPool27get_connection_with_node_id0si_0s3_0Bd_
FN:4890,_RNCNCNCNvMsw_NtCscNmhOS6QYVL_12kameo_remote15connection_poolNtBb_14ConnectionPool27get_connection_with_node_id0si_0s4_0Bd_
FN:4805,_RNCNCNCNvMsw_NtCscNmhOS6QYVL_12kameo_remote15connection_poolNtBb_14ConnectionPool27get_connection_with_node_id0si_0s_0Bd_
FN:5084,_RNCNCNCNvMsw_NtCscNmhOS6QYVL_12kameo_remote15connection_poolNtBb_14ConnectionPool35handle_persistent_connection_reader000Bd_
FN:5085,_RNCNCNCNvMsw_NtCscNmhOS6QYVL_12kameo_remote15connection_poolNtBb_14ConnectionPool35handle_persistent_connection_reader00s_0Bd_
FN:4430,_RNCNCNvMsw_NtCscNmhOS6QYVL_12kameo_remote15connection_poolNtB9_14ConnectionPool27get_connection_with_node_id00Bb_
FN:4448,_RNCNCNvMsw_NtCscNmhOS6QYVL_12kameo_remote15connection_poolNtB9_14ConnectionPool27get_connection_with_node_id0s0_0Bb_
FN:4449,_RNCNCNvMsw_NtCscNmhOS6QYVL_12kameo_remote15connection_poolNtB9_14ConnectionPool27get_connection_with_node_id0s1_0Bb_
FN:4459,_RNCNCNvMsw_NtCscNmhOS6QYVL_12kameo_remote15connection_poolNtB9_14ConnectionPool27get_connection_with_node_id0s2_0Bb_
FN:4502,_RNCNCNvMsw_NtCscNmhOS6QYVL_12kameo_remote15connection_poolNtB9_14ConnectionPool27get_connection_with_node_id0s3_0Bb_
FN:4506,_RNCNCNvMsw_NtCscNmhOS6QYVL_12kameo_remote15connection_poolNtB9_14ConnectionPool27get_connection_with_node_id0s4_0Bb_
FN:4518,_RNCNCNvMsw_NtCscNmhOS6QYVL_12kameo_remote15connection_poolNtB9_14ConnectionPool27get_connection_with_node_id0s5_0Bb_
FN:4525,_RNCNCNvMsw_NtCscNmhOS6QYVL_12kameo_remote15connection_poolNtB9_14ConnectionPool27get_connection_with_node_id0s6_0Bb_
FN:4540,_RNCNCNvMsw_NtCscNmhOS6QYVL_12kameo_remote15connection_poolNtB9_14ConnectionPool27get_connection_with_node_id0s7_0Bb_
FN:4546,_RNCNCNvMsw_NtCscNmhOS6QYVL_12kameo_remote15connection_poolNtB9_14ConnectionPool27get_connection_with_node_id0s8_0Bb_
FN:4572,_RNCNCNvMsw_NtCscNmhOS6QYVL_12kameo_remote15connection_poolNtB9_14ConnectionPool27get_connection_with_node_id0s9_0Bb_
FN:4667,_RNCNCNvMsw_NtCscNmhOS6QYVL_12kameo_remote15connection_poolNtB9_14ConnectionPool27get_connection_with_node_id0sB_0Bb_
FN:4431,_RNCNCNvMsw_NtCscNmhOS6QYVL_12kameo_remote15connection_poolNtB9_14ConnectionPool27get_connection_with_node_id0s_0Bb_
FN:4573,_RNCNCNvMsw_NtCscNmhOS6QYVL_12kameo_remote15connection_poolNtB9_14ConnectionPool27get_connection_with_node_id0sa_0Bb_
FN:4620,_RNCNCNvMsw_NtCscNmhOS6QYVL_12kameo_remote15connection_poolNtB9_14ConnectionPool27get_connection_with_node_id0sb_0Bb_
FN:4643,_RNCNCNvMsw_NtCscNmhOS6QYVL_12kameo_remote15connection_poolNtB9_14ConnectionPool27get_connection_with_node_id0sc_0Bb_
FN:4685,_RNCNCNvMsw_NtCscNmhOS6QYVL_12kameo_remote15connection_poolNtB9_14ConnectionPool27get_connection_with_node_id0sd_0Bb_
FN:4686,_RNCNCNvMsw_NtCscNmhOS6QYVL_12kameo_remote15connection_poolNtB9_14ConnectionPool27get_connection_with_node_id0se_0Bb_
FN:4706,_RNCNCNvMsw_NtCscNmhOS6QYVL_12kameo_remote15connection_poolNtB9_14ConnectionPool27get_connection_with_node_id0sf_0Bb_
FN:4707,_RNCNCNvMsw_NtCscNmhOS6QYVL_12kameo_remote15connection_poolNtB9_14ConnectionPool27get_connection_with_node_id0sg_0Bb_
FN:4747,_RNCNCNvMsw_NtCscNmhOS6QYVL_12kameo_remote15connection_poolNtB9_14ConnectionPool27get_connection_with_node_id0sh_0Bb_
FN:4799,_RNCNCNvMsw_NtCscNmhOS6QYVL_12kameo_remote15connection_poolNtB9_14ConnectionPool27get_connection_with_node_id0si_0Bb_
FN:4934,_RNCNCNvMsw_NtCscNmhOS6QYVL_12kameo_remote15connection_poolNtB9_14ConnectionPool27get_connection_with_node_id0sj_0Bb_
FN:6013,_RNCNCNvMsw_NtCscNmhOS6QYVL_12kameo_remote15connection_poolNtB9_14ConnectionPool28deliver_streaming_completion00Bb_
FN:5081,_RNCNCNvMsw_NtCscNmhOS6QYVL_12kameo_remote15connection_poolNtB9_14ConnectionPool35handle_persistent_connection_reader00Bb_
FN:5365,_RNCNCNvMsw_NtCscNmhOS6QYVL_12kameo_remote15connection_poolNtB9_14ConnectionPool35handle_persistent_connection_reader0s0_0Bb_
FN:5587,_RNCNCNvMsw_NtCscNmhOS6QYVL_12kameo_remote15connection_poolNtB9_14ConnectionPool35handle_persistent_connection_reader0s1_0Bb_
FN:5789,_RNCNCNvMsw_NtCscNmhOS6QYVL_12kameo_remote15connection_poolNtB9_14ConnectionPool35handle_persistent_connection_reader0s2_0Bb_
FN:5271,_RNCNCNvMsw_NtCscNmhOS6QYVL_12kameo_remote15connection_poolNtB9_14ConnectionPool35handle_persistent_connection_reader0s_0Bb_
FN:6316,_RNCNCNvNtCscNmhOS6QYVL_12kameo_remote15connection_pool23handle_incoming_message00B7_
FN:6794,_RNCNCNvNtCscNmhOS6QYVL_12kameo_remote15connection_pool23handle_incoming_message0s0_0B7_
FN:7091,_RNCNCNvNtCscNmhOS6QYVL_12kameo_remote15connection_pool23handle_incoming_message0s1_0B7_
FN:7341,_RNCNCNvNtCscNmhOS6QYVL_12kameo_remote15connection_pool23handle_incoming_message0s2_0B7_
FN:7602,_RNCNCNvNtCscNmhOS6QYVL_12kameo_remote15connection_pool23handle_incoming_message0s4_0B7_
FN:7916,_RNCNCNvNtCscNmhOS6QYVL_12kameo_remote15connection_pool23handle_incoming_message0s5_0B7_
FN:7937,_RNCNCNvNtCscNmhOS6QYVL_12kameo_remote15connection_pool23handle_incoming_message0s6_0B7_
FN:6372,_RNCNCNvNtCscNmhOS6QYVL_12kameo_remote15connection_pool23handle_incoming_message0s_0B7_
FN:6959,_RNCNCNvNtCscNmhOS6QYVL_12kameo_remote15connection_pool23handle_incoming_message0sw_0B7_
FN:6966,_RNCNCNvNtCscNmhOS6QYVL_12kameo_remote15connection_pool23handle_incoming_message0sy_0B7_
FN:6057,_RNCNCNvNtCscNmhOS6QYVL_12kameo_remote15connection_pool23resolve_peer_state_addr00B7_
FN:6071,_RNCNCNvNtCscNmhOS6QYVL_12kameo_remote15connection_pool23resolve_peer_state_addr0s0_0B7_
FN:6058,_RNCNCNvNtCscNmhOS6QYVL_12kameo_remote15connection_pool23resolve_peer_state_addr0s_0B7_
FN:2029,_RNCNvMsf_NtCscNmhOS6QYVL_12kameo_remote15connection_poolNtB7_20LockFreeStreamHandle17flush_immediately0B9_
FN:1704,_RNCNvMsf_NtCscNmhOS6QYVL_12kameo_remote15connection_poolNtB7_20LockFreeStreamHandle19write_bytes_control0B9_
FN:1591,_RNCNvMsf_NtCscNmhOS6QYVL_12kameo_remote15connection_poolNtB7_20LockFreeStreamHandle22acquire_control_permit0B9_
FN:2045,_RNCNvMsf_NtCscNmhOS6QYVL_12kameo_remote15connection_poolNtB7_20LockFreeStreamHandle26write_vectored_nonblocking0B9_
FN:1723,_RNCNvMsf_NtCscNmhOS6QYVL_12kameo_remote15connection_poolNtB7_20LockFreeStreamHandle39write_header_and_payload_control_inline0B9_
FN:2481,_RNCNvMsr_NtCscNmhOS6QYVL_12kameo_remote15connection_poolNtB7_18CorrelationTracker3new0B9_
FN:2762,_RNCNvMsv_NtCscNmhOS6QYVL_12kameo_remote15connection_poolNtB7_16ConnectionHandle26peer_supports_streaming_v20B9_
FN:2763,_RNCNvMsv_NtCscNmhOS6QYVL_12kameo_remote15connection_poolNtB7_16ConnectionHandle26peer_supports_streaming_v2s_0B9_
FN:2778,_RNCNvMsv_NtCscNmhOS6QYVL_12kameo_remote15connection_poolNtB7_16ConnectionHandle9send_data0B9_
FN:4375,_RNCNvMsw_NtCscNmhOS6QYVL_12kameo_remote15connection_poolNtB7_14ConnectionPool14get_connection0B9_
FN:5014,_RNCNvMsw_NtCscNmhOS6QYVL_12kameo_remote15connection_poolNtB7_14ConnectionPool14has_connection0B9_
FN:4007,_RNCNvMsw_NtCscNmhOS6QYVL_12kameo_remote15connection_poolNtB7_14ConnectionPool14send_lock_frees1_0B9_
FN:4169,_RNCNvMsw_NtCscNmhOS6QYVL_12kameo_remote15connection_poolNtB7_14ConnectionPool16connection_count0B9_
FN:4221,_RNCNvMsw_NtCscNmhOS6QYVL_12kameo_remote15connection_poolNtB7_14ConnectionPool18get_message_buffer0B9_
FN:4191,_RNCNvMsw_NtCscNmhOS6QYVL_12kameo_remote15connection_poolNtB7_14ConnectionPool19get_all_connections0B9_
FN:4177,_RNCNvMsw_NtCscNmhOS6QYVL_12kameo_remote15connection_poolNtB7_14ConnectionPool19get_connected_peers0B9_
FN:3742,_RNCNvMsw_NtCscNmhOS6QYVL_12kameo_remote15connection_poolNtB7_14ConnectionPool19get_peer_id_by_addr0B9_
FN:5057,_RNCNvMsw_NtCscNmhOS6QYVL_12kameo_remote15connection_poolNtB7_14ConnectionPool21close_all_connections0B9_
FN:3730,_RNCNvMsw_NtCscNmhOS6QYVL_12kameo_remote15connection_poolNtB7_14ConnectionPool22get_connection_by_addr0B9_
FN:3937,_RNCNvMsw_NtCscNmhOS6QYVL_12kameo_remote15connection_poolNtB7_14ConnectionPool24add_lock_free_connection0B9_
FN:3968,_RNCNvMsw_NtCscNmhOS6QYVL_12kameo_remote15connection_poolNtB7_14ConnectionPool24add_lock_free_connections0_0B9_
FN:3938,_RNCNvMsw_NtCscNmhOS6QYVL_12kameo_remote15connection_poolNtB7_14ConnectionPool24add_lock_free_connections_0B9_
FN:3911,_RNCNvMsw_NtCscNmhOS6QYVL_12kameo_remote15connection_poolNtB7_14ConnectionPool24get_lock_free_connection0B9_
FN:5038,_RNCNvMsw_NtCscNmhOS6QYVL_12kameo_remote15connection_poolNtB7_14ConnectionPool25cleanup_stale_connections0B9_
FN:5039,_RNCNvMsw_NtCscNmhOS6QYVL_12kameo_remote15connection_poolNtB7_14ConnectionPool25cleanup_stale_connectionss_0B9_
FN:3695,_RNCNvMsw_NtCscNmhOS6QYVL_12kameo_remote15connection_poolNtB7_14ConnectionPool25get_connection_by_peer_id0B9_
FN:3719,_RNCNvMsw_NtCscNmhOS6QYVL_12kameo_remote15connection_poolNtB7_14ConnectionPool25get_connection_by_peer_ids_0B9_
FN:5022,_RNCNvMsw_NtCscNmhOS6QYVL_12kameo_remote15connection_poolNtB7_14ConnectionPool25has_connection_by_peer_id0B9_
FN:3569,_RNCNvMsw_NtCscNmhOS6QYVL_12kameo_remote15connection_poolNtB7_14ConnectionPool27clear_capabilities_for_addr0B9_
FN:4383,_RNCNvMsw_NtCscNmhOS6QYVL_12kameo_remote15connection_poolNtB7_14ConnectionPool27get_connection_with_node_id0B9_
FN:5990,_RNCNvMsw_NtCscNmhOS6QYVL_12kameo_remote15connection_poolNtB7_14ConnectionPool28deliver_streaming_completion0B9_
FN:3762,_RNCNvMsw_NtCscNmhOS6QYVL_12kameo_remote15connection_poolNtB7_14ConnectionPool30get_shared_correlation_tracker0B9_
FN:4144,_RNCNvMsw_NtCscNmhOS6QYVL_12kameo_remote15connection_poolNtB7_14ConnectionPool32disconnect_connection_by_peer_id0B9_
FN:4145,_RNCNvMsw_NtCscNmhOS6QYVL_12kameo_remote15connection_poolNtB7_14ConnectionPool32disconnect_connection_by_peer_ids_0B9_
FN:3773,_RNCNvMsw_NtCscNmhOS6QYVL_12kameo_remote15connection_poolNtB7_14ConnectionPool33get_or_create_correlation_tracker0B9_
FN:5071,_RNCNvMsw_NtCscNmhOS6QYVL_12kameo_remote15connection_poolNtB7_14ConnectionPool35handle_persistent_connection_reader0B9_
FN:6250,_RNCNvNtCscNmhOS6QYVL_12kameo_remote15connection_pool23handle_incoming_message0B5_
FN:6051,_RNCNvNtCscNmhOS6QYVL_12kameo_remote15connection_pool23resolve_peer_state_addr0B5_
FN:6154,_RNCNvNtCscNmhOS6QYVL_12kameo_remote15connection_pool29compare_archived_vector_clock0B5_
FN:6132,_RNCNvNtCscNmhOS6QYVL_12kameo_remote15connection_pool30archived_priority_is_immediate0B5_
FN:514,_RNCNvXs5_NtCscNmhOS6QYVL_12kameo_remote15connection_poolNtB7_12WritePayloadNtNtCs85QQFkKrybG_4core3fmt5Debug3fmt0B9_
FN:1865,_RINvMsf_NtCscNmhOS6QYVL_12kameo_remote15connection_poolNtB6_20LockFreeStreamHandle13write_buf_askpEB8_
FN:1837,_RINvMsf_NtCscNmhOS6QYVL_12kameo_remote15connection_poolNtB6_20LockFreeStreamHandle17write_buf_controlpEB8_
FN:1845,_RINvMsf_NtCscNmhOS6QYVL_12kameo_remote15connection_poolNtB6_20LockFreeStreamHandle43write_header_and_payload_control_inline_bufpEB8_
FN:2987,_RINvMsv_NtCscNmhOS6QYVL_12kameo_remote15connection_poolNtB6_16ConnectionHandle10tell_smartpEB8_
FN:2945,_RINvMsv_NtCscNmhOS6QYVL_12kameo_remote15connection_poolNtB6_16ConnectionHandle10tell_typedpEB8_
FN:3431,_RINvMsv_NtCscNmhOS6QYVL_12kameo_remote15connection_poolNtB6_16ConnectionHandle11stream_sendpEB8_
FN:2810,_RINvMsv_NtCscNmhOS6QYVL_12kameo_remote15connection_poolNtB6_16ConnectionHandle17send_response_bufpEB8_
FN:3471,_RINvMsv_NtCscNmhOS6QYVL_12kameo_remote15connection_poolNtB6_16ConnectionHandle17stream_send_batchpEB8_
FN:3076,_RINvMsv_NtCscNmhOS6QYVL_12kameo_remote15connection_poolNtB6_16ConnectionHandle18ask_typed_archivedppEB8_
FN:3110,_RINvMsv_NtCscNmhOS6QYVL_12kameo_remote15connection_poolNtB6_16ConnectionHandle31ask_typed_archived_with_timeoutppEB8_
FN:2981,_RINvMsv_NtCscNmhOS6QYVL_12kameo_remote15connection_poolNtB6_16ConnectionHandle4tellpEB8_
FN:3005,_RINvMsv_NtCscNmhOS6QYVL_12kameo_remote15connection_poolNtB6_16ConnectionHandle9tell_manypEB8_
FN:1868,_RNCINvMsf_NtCscNmhOS6QYVL_12kameo_remote15connection_poolNtB8_20LockFreeStreamHandle13write_buf_askpE0Ba_
FN:1840,_RNCINvMsf_NtCscNmhOS6QYVL_12kameo_remote15connection_poolNtB8_20LockFreeStreamHandle17write_buf_controlpE0Ba_
FN:1853,_RNCINvMsf_NtCscNmhOS6QYVL_12kameo_remote15connection_poolNtB8_20LockFreeStreamHandle43write_header_and_payload_control_inline_bufpE0Ba_
FN:2987,_RNCINvMsv_NtCscNmhOS6QYVL_12kameo_remote15connection_poolNtB8_16ConnectionHandle10tell_smartpE0Ba_
FN:2948,_RNCINvMsv_NtCscNmhOS6QYVL_12kameo_remote15connection_poolNtB8_16ConnectionHandle10tell_typedpE0Ba_
FN:3443,_RNCINvMsv_NtCscNmhOS6QYVL_12kameo_remote15connection_poolNtB8_16ConnectionHandle11stream_sendpE0Ba_
FN:2818,_RNCINvMsv_NtCscNmhOS6QYVL_12kameo_remote15connection_poolNtB8_16ConnectionHandle17send_response_bufpE0Ba_
FN:3483,_RNCINvMsv_NtCscNmhOS6QYVL_12kameo_remote15connection_poolNtB8_16ConnectionHandle17stream_send_batchpE0Ba_
FN:3093,_RNCINvMsv_NtCscNmhOS6QYVL_12kameo_remote15connection_poolNtB8_16ConnectionHandle18ask_typed_archivedppE0Ba_
FN:3128,_RNCINvMsv_NtCscNmhOS6QYVL_12kameo_remote15connection_poolNtB8_16ConnectionHandle31ask_typed_archived_with_timeoutppE0Ba_
FN:2981,_RNCINvMsv_NtCscNmhOS6QYVL_12kameo_remote15connection_poolNtB8_16ConnectionHandle4tellpE0Ba_
FN:3005,_RNCINvMsv_NtCscNmhOS6QYVL_12kameo_remote15connection_poolNtB8_16ConnectionHandle9tell_manypE0Ba_
FN:2993,_RNCNCINvMsv_NtCscNmhOS6QYVL_12kameo_remote15connection_poolNtBa_16ConnectionHandle10tell_smartpE00Bc_
FN:3015,_RNCNCINvMsv_NtCscNmhOS6QYVL_12kameo_remote15connection_poolNtBa_16ConnectionHandle9tell_manypE00Bc_
FN:3041,_RNCNCNvMsv_NtCscNmhOS6QYVL_12kameo_remote15connection_poolNtB9_16ConnectionHandle10tell_batch00Bb_
FN:3370,_RNCNCNvMsv_NtCscNmhOS6QYVL_12kameo_remote15connection_poolNtB9_16ConnectionHandle19ask_batch_optimized00Bb_
FN:3412,_RNCNCNvMsv_NtCscNmhOS6QYVL_12kameo_remote15connection_poolNtB9_16ConnectionHandle19ask_batch_optimized0s_0Bb_
FN:2842,_RNCNCNvMsv_NtCscNmhOS6QYVL_12kameo_remote15connection_poolNtB9_16ConnectionHandle20send_response_pooled00Bb_
FN:3340,_RNCNCNvMsv_NtCscNmhOS6QYVL_12kameo_remote15connection_poolNtB9_16ConnectionHandle22ask_batch_with_timeout00Bb_
FN:3310,_RNCNCNvMsv_NtCscNmhOS6QYVL_12kameo_remote15connection_poolNtB9_16ConnectionHandle9ask_batch00Bb_
FN:4335,_RNCNCNvMsw_NtCscNmhOS6QYVL_12kameo_remote15connection_poolNtB9_14ConnectionPool22get_connection_to_peer00Bb_
FN:1698,_RNCNvMsf_NtCscNmhOS6QYVL_12kameo_remote15connection_poolNtB7_20LockFreeStreamHandle15write_bytes_ask0B9_
FN:1804,_RNCNvMsf_NtCscNmhOS6QYVL_12kameo_remote15connection_poolNtB7_20LockFreeStreamHandle16write_pooled_ask0B9_
FN:1583,_RNCNvMsf_NtCscNmhOS6QYVL_12kameo_remote15connection_poolNtB7_20LockFreeStreamHandle18acquire_ask_permit0B9_
FN:2247,_RNCNvMsf_NtCscNmhOS6QYVL_12kameo_remote15connection_poolNtB7_20LockFreeStreamHandle20stream_large_message0B9_
FN:1766,_RNCNvMsf_NtCscNmhOS6QYVL_12kameo_remote15connection_poolNtB7_20LockFreeStreamHandle20write_pooled_control0B9_
FN:1823,_RNCNvMsf_NtCscNmhOS6QYVL_12kameo_remote15connection_poolNtB7_20LockFreeStreamHandle23write_pooled_ask_inline0B9_
FN:2257,_RNCNvMsf_NtCscNmhOS6QYVL_12kameo_remote15connection_poolNtB7_20LockFreeStreamHandle26stream_large_message_bytes0B9_
FN:2125,_RNCNvMsf_NtCscNmhOS6QYVL_12kameo_remote15connection_poolNtB7_20LockFreeStreamHandle26stream_large_message_zoned0B9_
FN:1785,_RNCNvMsf_NtCscNmhOS6QYVL_12kameo_remote15connection_poolNtB7_20LockFreeStreamHandle27write_pooled_control_inline0B9_
FN:1739,_RNCNvMsf_NtCscNmhOS6QYVL_12kameo_remote15connection_poolNtB7_20LockFreeStreamHandle28write_header_and_payload_ask0B9_
FN:2230,_RNCNvMsf_NtCscNmhOS6QYVL_12kameo_remote15connection_poolNtB7_20LockFreeStreamHandle29stream_large_message_internal0B9_
FN:1713,_RNCNvMsf_NtCscNmhOS6QYVL_12kameo_remote15connection_poolNtB7_20LockFreeStreamHandle32write_header_and_payload_control0B9_
FN:2219,_RNCNvMsf_NtCscNmhOS6QYVL_12kameo_remote15connection_poolNtB7_20LockFreeStreamHandle35stream_large_message_internal_bytes0B9_
FN:1749,_RNCNvMsf_NtCscNmhOS6QYVL_12kameo_remote15connection_poolNtB7_20LockFreeStreamHandle35write_header_and_payload_ask_inline0B9_
FN:2269,_RNCNvMsf_NtCscNmhOS6QYVL_12kameo_remote15connection_poolNtB7_20LockFreeStreamHandle37stream_large_message_with_correlation0B9_
FN:2280,_RNCNvMsf_NtCscNmhOS6QYVL_12kameo_remote15connection_poolNtB7_20LockFreeStreamHandle43stream_large_message_with_correlation_bytes0B9_
FN:2363,_RNCNvMsi_NtCscNmhOS6QYVL_12kameo_remote15connection_poolNtB7_11TellMessage8send_via0B9_
FN:2571,_RNCNvMsr_NtCscNmhOS6QYVL_12kameo_remote15connection_poolNtB7_18CorrelationTracker17wait_for_response0B9_
FN:2689,_RNCNvMst_NtCscNmhOS6QYVL_12kameo_remote15connection_poolNtB7_20DelegatedReplySender14wait_for_reply0B9_
FN:2711,_RNCNvMst_NtCscNmhOS6QYVL_12kameo_remote15connection_poolNtB7_20DelegatedReplySender27wait_for_reply_with_timeout0B9_
FN:3039,_RNCNvMsv_NtCscNmhOS6QYVL_12kameo_remote15connection_poolNtB7_16ConnectionHandle10tell_batch0B9_
FN:2935,_RNCNvMsv_NtCscNmhOS6QYVL_12kameo_remote15connection_poolNtB7_16ConnectionHandle10tell_bytes0B9_
FN:2873,_RNCNvMsv_NtCscNmhOS6QYVL_12kameo_remote15connection_poolNtB7_16ConnectionHandle13ask_streaming0B9_
FN:3026,_RNCNvMsv_NtCscNmhOS6QYVL_12kameo_remote15connection_poolNtB7_16ConnectionHandle13send_messages0B9_
FN:2785,_RNCNvMsv_NtCscNmhOS6QYVL_12kameo_remote15connection_poolNtB7_16ConnectionHandle14send_raw_bytes0B9_
FN:3171,_RNCNvMsv_NtCscNmhOS6QYVL_12kameo_remote15connection_poolNtB7_16ConnectionHandle16ask_with_timeout0B9_
FN:3195,_RNCNvMsv_NtCscNmhOS6QYVL_12kameo_remote15connection_poolNtB7_16ConnectionHandle17ask_with_reply_to0B9_
FN:3021,_RNCNvMsv_NtCscNmhOS6QYVL_12kameo_remote15connection_poolNtB7_16ConnectionHandle17send_tell_message0B9_
FN:3363,_RNCNvMsv_NtCscNmhOS6QYVL_12kameo_remote15connection_poolNtB7_16ConnectionHandle19ask_batch_optimized0B9_
FN:2897,_RNCNvMsv_NtCscNmhOS6QYVL_12kameo_remote15connection_poolNtB7_16ConnectionHandle19ask_streaming_bytes0B9_
FN:2973,_RNCNvMsv_NtCscNmhOS6QYVL_12kameo_remote15connection_poolNtB7_16ConnectionHandle19send_binary_message0B9_
FN:2797,_RNCNvMsv_NtCscNmhOS6QYVL_12kameo_remote15connection_poolNtB7_16ConnectionHandle19send_response_bytes0B9_
FN:2849,_RNCNvMsv_NtCscNmhOS6QYVL_12kameo_remote15connection_poolNtB7_16ConnectionHandle20send_bytes_zero_copy0B9_
FN:2836,_RNCNvMsv_NtCscNmhOS6QYVL_12kameo_remote15connection_poolNtB7_16ConnectionHandle20send_response_pooled0B9_
FN:2859,_RNCNvMsv_NtCscNmhOS6QYVL_12kameo_remote15connection_poolNtB7_16ConnectionHandle20stream_large_message0B9_
FN:3224,_RNCNvMsv_NtCscNmhOS6QYVL_12kameo_remote15connection_poolNtB7_16ConnectionHandle21ask_with_reply_sender0B9_
FN:3333,_RNCNvMsv_NtCscNmhOS6QYVL_12kameo_remote15connection_poolNtB7_16ConnectionHandle22ask_batch_with_timeout0B9_
FN:3145,_RNCNvMsv_NtCscNmhOS6QYVL_12kameo_remote15connection_poolNtB7_16ConnectionHandle23ask_with_timeout_pooled0B9_
FN:3244,_RNCNvMsv_NtCscNmhOS6QYVL_12kameo_remote15connection_poolNtB7_16ConnectionHandle26ask_with_timeout_and_reply0B9_
FN:3070,_RNCNvMsv_NtCscNmhOS6QYVL_12kameo_remote15connection_poolNtB7_16ConnectionHandle3ask0B9_
FN:3064,_RNCNvMsv_NtCscNmhOS6QYVL_12kameo_remote15connection_poolNtB7_16ConnectionHandle8send_raw0B9_
FN:2923,_RNCNvMsv_NtCscNmhOS6QYVL_12kameo_remote15connection_poolNtB7_16ConnectionHandle8tell_raw0B9_
FN:3265,_RNCNvMsv_NtCscNmhOS6QYVL_12kameo_remote15connection_poolNtB7_16ConnectionHandle9ask_batch0B9_
FN:2999,_RNCNvMsv_NtCscNmhOS6QYVL_12kameo_remote15connection_poolNtB7_16ConnectionHandle9tell_auto0B9_
FN:4280,_RNCNvMsw_NtCscNmhOS6QYVL_12kameo_remote15connection_poolNtB7_14ConnectionPool22get_connection_to_peer0B9_
FN:5027,_RNCNvMsw_NtCscNmhOS6QYVL_12kameo_remote15connection_poolNtB7_14ConnectionPool23check_connection_health0B9_
FN:1698,_RNvMsf_NtCscNmhOS6QYVL_12kameo_remote15connection_poolNtB5_20LockFreeStreamHandle15write_bytes_askB7_
FN:2399,_RNvXININtCscNmhOS6QYVL_12kameo_remote15connection_poolsm_0KpENtB5_11TellMessageINtNtCs85QQFkKrybG_4core7convert4FromRAhpE4fromB7_
FN:111,_RNvXs_NtCscNmhOS6QYVL_12kameo_remote15connection_poolNtB4_11TaskTrackerNtNtNtCs85QQFkKrybG_4core3ops4drop4Drop4drop
FN:2320,_RNvXsg_NtCscNmhOS6QYVL_12kameo_remote15connection_poolNtB5_14StreamingGuardNtNtNtCs85QQFkKrybG_4core3ops4drop4Drop4drop
FN:2981,_RINvMsv_NtCscNmhOS6QYVL_12kameo_remote15connection_poolNtB6_16ConnectionHandle4tellRShECs4EqTPqKkQep_16ask_reply_simple
FN:2981,_RNCINvMsv_NtCscNmhOS6QYVL_12kameo_remote15connection_poolNtB8_16ConnectionHandle4tellRShE0Cs4EqTPqKkQep_16ask_reply_simple
FN:3041,_RNCNCNvMsv_NtCscNmhOS6QYVL_12kameo_remote15connection_poolNtB9_16ConnectionHandle10tell_batch00Cs4EqTPqKkQep_16ask_reply_simple
FN:4335,_RNCNCNvMsw_NtCscNmhOS6QYVL_12kameo_remote15connection_poolNtB9_14ConnectionPool22get_connection_to_peer00Cs4EqTPqKkQep_16ask_reply_simple
FN:1698,_RNCNvMsf_NtCscNmhOS6QYVL_12kameo_remote15connection_poolNtB7_20LockFreeStreamHandle15write_bytes_ask0Cs4EqTPqKkQep_16ask_reply_simple
FN:1583,_RNCNvMsf_NtCscNmhOS6QYVL_12kameo_remote15connection_poolNtB7_20LockFreeStreamHandle18acquire_ask_permit0Cs4EqTPqKkQep_16ask_reply_simple
FN:1749,_RNCNvMsf_NtCscNmhOS6QYVL_12kameo_remote15connection_poolNtB7_20LockFreeStreamHandle35write_header_and_payload_ask_inline0Cs4EqTPqKkQep_16ask_reply_simple
FN:2363,_RNCNvMsi_NtCscNmhOS6QYVL_12kameo_remote15connection_poolNtB7_11TellMessage8send_via0Cs4EqTPqKkQep_16ask_reply_simple
FN:2571,_RNCNvMsr_NtCscNmhOS6QYVL_12kameo_remote15connection_poolNtB7_18CorrelationTracker17wait_for_response0Cs4EqTPqKkQep_16ask_reply_simple
FN:3039,_RNCNvMsv_NtCscNmhOS6QYVL_12kameo_remote15connection_poolNtB7_16ConnectionHandle10tell_batch0Cs4EqTPqKkQep_16ask_reply_simple
FN:3171,_RNCNvMsv_NtCscNmhOS6QYVL_12kameo_remote15connection_poolNtB7_16ConnectionHandle16ask_with_timeout0Cs4EqTPqKkQep_16ask_reply_simple
FN:3195,_RNCNvMsv_NtCscNmhOS6QYVL_12kameo_remote15connection_poolNtB7_16ConnectionHandle17ask_with_reply_to0Cs4EqTPqKkQep_16ask_reply_simple
FN:2797,_RNCNvMsv_NtCscNmhOS6QYVL_12kameo_remote15connection_poolNtB7_16ConnectionHandle19send_response_bytes0Cs4EqTPqKkQep_16ask_reply_simple
FN:3070,_RNCNvMsv_NtCscNmhOS6QYVL_12kameo_remote15connection_poolNtB7_16ConnectionHandle3ask0Cs4EqTPqKkQep_16ask_reply_simple
FN:2923,_RNCNvMsv_NtCscNmhOS6QYVL_12kameo_remote15connection_poolNtB7_16ConnectionHandle8tell_raw0Cs4EqTPqKkQep_16ask_reply_simple
FN:4280,_RNCNvMsw_NtCscNmhOS6QYVL_12kameo_remote15connection_poolNtB7_14ConnectionPool22get_connection_to_peer0Cs4EqTPqKkQep_16ask_reply_simple
FN:1698,_RNvMsf_NtCscNmhOS6QYVL_12kameo_remote15connection_poolNtB5_20LockFreeStreamHandle15write_bytes_askCs4EqTPqKkQep_16ask_reply_simple
FN:1704,_RNvMsf_NtCscNmhOS6QYVL_12kameo_remote15connection_poolNtB5_20LockFreeStreamHandle19write_bytes_controlCs4EqTPqKkQep_16ask_reply_simple
FN:1704,_RNvMsf_NtCscNmhOS6QYVL_12kameo_remote15connection_poolNtB5_20LockFreeStreamHandle19write_bytes_controlCs3gQfcGJLyAz_20ask_with_lookup_demo
FN:2981,_RINvMsv_NtCscNmhOS6QYVL_12kameo_remote15connection_poolNtB6_16ConnectionHandle4tellRAhj11_ECs3gQfcGJLyAz_20ask_with_lookup_demo
FN:2981,_RINvMsv_NtCscNmhOS6QYVL_12kameo_remote15connection_poolNtB6_16ConnectionHandle4tellRShECs3gQfcGJLyAz_20ask_with_lookup_demo
FN:2981,_RNCINvMsv_NtCscNmhOS6QYVL_12kameo_remote15connection_poolNtB8_16ConnectionHandle4tellRAhj11_E0Cs3gQfcGJLyAz_20ask_with_lookup_demo
FN:2981,_RNCINvMsv_NtCscNmhOS6QYVL_12kameo_remote15connection_poolNtB8_16ConnectionHandle4tellRShE0Cs3gQfcGJLyAz_20ask_with_lookup_demo
FN:3041,_RNCNCNvMsv_NtCscNmhOS6QYVL_12kameo_remote15connection_poolNtB9_16ConnectionHandle10tell_batch00Cs3gQfcGJLyAz_20ask_with_lookup_demo
FN:4335,_RNCNCNvMsw_NtCscNmhOS6QYVL_12kameo_remote15connection_poolNtB9_14ConnectionPool22get_connection_to_peer00Cs3gQfcGJLyAz_20ask_with_lookup_demo
FN:1583,_RNCNvMsf_NtCscNmhOS6QYVL_12kameo_remote15connection_poolNtB7_20LockFreeStreamHandle18acquire_ask_permit0Cs3gQfcGJLyAz_20ask_with_lookup_demo
FN:1749,_RNCNvMsf_NtCscNmhOS6QYVL_12kameo_remote15connection_poolNtB7_20LockFreeStreamHandle35write_header_and_payload_ask_inline0Cs3gQfcGJLyAz_20ask_with_lookup_demo
FN:2363,_RNCNvMsi_NtCscNmhOS6QYVL_12kameo_remote15connection_poolNtB7_11TellMessage8send_via0Cs3gQfcGJLyAz_20ask_with_lookup_demo
FN:2571,_RNCNvMsr_NtCscNmhOS6QYVL_12kameo_remote15connection_poolNtB7_18CorrelationTracker17wait_for_response0Cs3gQfcGJLyAz_20ask_with_lookup_demo
FN:3039,_RNCNvMsv_NtCscNmhOS6QYVL_12kameo_remote15connection_poolNtB7_16ConnectionHandle10tell_batch0Cs3gQfcGJLyAz_20ask_with_lookup_demo
FN:3171,_RNCNvMsv_NtCscNmhOS6QYVL_12kameo_remote15connection_poolNtB7_16ConnectionHandle16ask_with_timeout0Cs3gQfcGJLyAz_20ask_with_lookup_demo
FN:3224,_RNCNvMsv_NtCscNmhOS6QYVL_12kameo_remote15connection_poolNtB7_16ConnectionHandle21ask_with_reply_sender0Cs3gQfcGJLyAz_20ask_with_lookup_demo
FN:3244,_RNCNvMsv_NtCscNmhOS6QYVL_12kameo_remote15connection_poolNtB7_16ConnectionHandle26ask_with_timeout_and_reply0Cs3gQfcGJLyAz_20ask_with_lookup_demo
FN:3070,_RNCNvMsv_NtCscNmhOS6QYVL_12kameo_remote15connection_poolNtB7_16ConnectionHandle3ask0Cs3gQfcGJLyAz_20ask_with_lookup_demo
FN:2923,_RNCNvMsv_NtCscNmhOS6QYVL_12kameo_remote15connection_poolNtB7_16ConnectionHandle8tell_raw0Cs3gQfcGJLyAz_20ask_with_lookup_demo
FN:4280,_RNCNvMsw_NtCscNmhOS6QYVL_12kameo_remote15connection_poolNtB7_14ConnectionPool22get_connection_to_peer0Cs3gQfcGJLyAz_20ask_with_lookup_demo
FN:2399,_RNvXsm_NtCscNmhOS6QYVL_12kameo_remote15connection_poolNtB5_11TellMessageINtNtCs85QQFkKrybG_4core7convert4FromRAhj11_E4fromCs3gQfcGJLyAz_20ask_with_lookup_demo
FN:2981,_RINvMsv_NtCscNmhOS6QYVL_12kameo_remote15connection_poolNtB6_16ConnectionHandle4tellRShECs36kK6wN0hlG_21batch_ask_performance
FN:2981,_RNCINvMsv_NtCscNmhOS6QYVL_12kameo_remote15connection_poolNtB8_16ConnectionHandle4tellRShE0Cs36kK6wN0hlG_21batch_ask_performance
FN:3041,_RNCNCNvMsv_NtCscNmhOS6QYVL_12kameo_remote15connection_poolNtB9_16ConnectionHandle10tell_batch00Cs36kK6wN0hlG_21batch_ask_performance
FN:3370,_RNCNCNvMsv_NtCscNmhOS6QYVL_12kameo_remote15connection_poolNtB9_16ConnectionHandle19ask_batch_optimized00Cs36kK6wN0hlG_21batch_ask_performance
FN:3412,_RNCNCNvMsv_NtCscNmhOS6QYVL_12kameo_remote15connection_poolNtB9_16ConnectionHandle19ask_batch_optimized0s_0Cs36kK6wN0hlG_21batch_ask_performance
FN:3340,_RNCNCNvMsv_NtCscNmhOS6QYVL_12kameo_remote15connection_poolNtB9_16ConnectionHandle22ask_batch_with_timeout00Cs36kK6wN0hlG_21batch_ask_performance
FN:3310,_RNCNCNvMsv_NtCscNmhOS6QYVL_12kameo_remote15connection_poolNtB9_16ConnectionHandle9ask_batch00Cs36kK6wN0hlG_21batch_ask_performance
FN:1698,_RNCNvMsf_NtCscNmhOS6QYVL_12kameo_remote15connection_poolNtB7_20LockFreeStreamHandle15write_bytes_ask0Cs36kK6wN0hlG_21batch_ask_performance
FN:1583,_RNCNvMsf_NtCscNmhOS6QYVL_12kameo_remote15connection_poolNtB7_20LockFreeStreamHandle18acquire_ask_permit0Cs36kK6wN0hlG_21batch_ask_performance
FN:1749,_RNCNvMsf_NtCscNmhOS6QYVL_12kameo_remote15connection_poolNtB7_20LockFreeStreamHandle35write_header_and_payload_ask_inline0Cs36kK6wN0hlG_21batch_ask_performance
FN:2363,_RNCNvMsi_NtCscNmhOS6QYVL_12kameo_remote15connection_poolNtB7_11TellMessage8send_via0Cs36kK6wN0hlG_21batch_ask_performance
FN:2571,_RNCNvMsr_NtCscNmhOS6QYVL_12kameo_remote15connection_poolNtB7_18CorrelationTracker17wait_for_response0Cs36kK6wN0hlG_21batch_ask_performance
FN:3039,_RNCNvMsv_NtCscNmhOS6QYVL_12kameo_remote15connection_poolNtB7_16ConnectionHandle10tell_batch0Cs36kK6wN0hlG_21batch_ask_performance
FN:3171,_RNCNvMsv_NtCscNmhOS6QYVL_12kameo_remote15connection_poolNtB7_16ConnectionHandle16ask_with_timeout0Cs36kK6wN0hlG_21batch_ask_performance
FN:3363,_RNCNvMsv_NtCscNmhOS6QYVL_12kameo_remote15connection_poolNtB7_16ConnectionHandle19ask_batch_optimized0Cs36kK6wN0hlG_21batch_ask_performance
FN:3333,_RNCNvMsv_NtCscNmhOS6QYVL_12kameo_remote15connection_poolNtB7_16ConnectionHandle22ask_batch_with_timeout0Cs36kK6wN0hlG_21batch_ask_performance
FN:3070,_RNCNvMsv_NtCscNmhOS6QYVL_12kameo_remote15connection_poolNtB7_16ConnectionHandle3ask0Cs36kK6wN0hlG_21batch_ask_performance
FN:2923,_RNCNvMsv_NtCscNmhOS6QYVL_12kameo_remote15connection_poolNtB7_16ConnectionHandle8tell_raw0Cs36kK6wN0hlG_21batch_ask_performance
FN:3265,_RNCNvMsv_NtCscNmhOS6QYVL_12kameo_remote15connection_poolNtB7_16ConnectionHandle9ask_batch0Cs36kK6wN0hlG_21batch_ask_performance
FN:1698,_RNvMsf_NtCscNmhOS6QYVL_12kameo_remote15connection_poolNtB5_20LockFreeStreamHandle15write_bytes_askCs36kK6wN0hlG_21batch_ask_performance
FN:1704,_RNvMsf_NtCscNmhOS6QYVL_12kameo_remote15connection_poolNtB5_20LockFreeStreamHandle19write_bytes_controlCs36kK6wN0hlG_21batch_ask_performance
FN:1698,_RNvMsf_NtCscNmhOS6QYVL_12kameo_remote15connection_poolNtB5_20LockFreeStreamHandle15write_bytes_askCs3Gqi3lF3rZv_16batch_ask_simple
FN:1704,_RNvMsf_NtCscNmhOS6QYVL_12kameo_remote15connection_poolNtB5_20LockFreeStreamHandle19write_bytes_controlCs3Gqi3lF3rZv_16batch_ask_simple
FN:2981,_RINvMsv_NtCscNmhOS6QYVL_12kameo_remote15connection_poolNtB6_16ConnectionHandle4tellRShECs3Gqi3lF3rZv_16batch_ask_simple
FN:2981,_RNCINvMsv_NtCscNmhOS6QYVL_12kameo_remote15connection_poolNtB8_16ConnectionHandle4tellRShE0Cs3Gqi3lF3rZv_16batch_ask_simple
FN:3041,_RNCNCNvMsv_NtCscNmhOS6QYVL_12kameo_remote15connection_poolNtB9_16ConnectionHandle10tell_batch00Cs3Gqi3lF3rZv_16batch_ask_simple
FN:3340,_RNCNCNvMsv_NtCscNmhOS6QYVL_12kameo_remote15connection_poolNtB9_16ConnectionHandle22ask_batch_with_timeout00Cs3Gqi3lF3rZv_16batch_ask_simple
FN:3310,_RNCNCNvMsv_NtCscNmhOS6QYVL_12kameo_remote15connection_poolNtB9_16ConnectionHandle9ask_batch00Cs3Gqi3lF3rZv_16batch_ask_simple
FN:4335,_RNCNCNvMsw_NtCscNmhOS6QYVL_12kameo_remote15connection_poolNtB9_14ConnectionPool22get_connection_to_peer00Cs3Gqi3lF3rZv_16batch_ask_simple
FN:1698,_RNCNvMsf_NtCscNmhOS6QYVL_12kameo_remote15connection_poolNtB7_20LockFreeStreamHandle15write_bytes_ask0Cs3Gqi3lF3rZv_16batch_ask_simple
FN:1583,_RNCNvMsf_NtCscNmhOS6QYVL_12kameo_remote15connection_poolNtB7_20LockFreeStreamHandle18acquire_ask_permit0Cs3Gqi3lF3rZv_16batch_ask_simple
FN:1749,_RNCNvMsf_NtCscNmhOS6QYVL_12kameo_remote15connection_poolNtB7_20LockFreeStreamHandle35write_header_and_payload_ask_inline0Cs3Gqi3lF3rZv_16batch_ask_simple
FN:2363,_RNCNvMsi_NtCscNmhOS6QYVL_12kameo_remote15connection_poolNtB7_11TellMessage8send_via0Cs3Gqi3lF3rZv_16batch_ask_simple
FN:2571,_RNCNvMsr_NtCscNmhOS6QYVL_12kameo_remote15connection_poolNtB7_18CorrelationTracker17wait_for_response0Cs3Gqi3lF3rZv_16batch_ask_simple
FN:3039,_RNCNvMsv_NtCscNmhOS6QYVL_12kameo_remote15connection_poolNtB7_16ConnectionHandle10tell_batch0Cs3Gqi3lF3rZv_16batch_ask_simple
FN:3171,_RNCNvMsv_NtCscNmhOS6QYVL_12kameo_remote15connection_poolNtB7_16ConnectionHandle16ask_with_timeout0Cs3Gqi3lF3rZv_16batch_ask_simple
FN:3333,_RNCNvMsv_NtCscNmhOS6QYVL_12kameo_remote15connection_poolNtB7_16ConnectionHandle22ask_batch_with_timeout0Cs3Gqi3lF3rZv_16batch_ask_simple
FN:3070,_RNCNvMsv_NtCscNmhOS6QYVL_12kameo_remote15connection_poolNtB7_16ConnectionHandle3ask0Cs3Gqi3lF3rZv_16batch_ask_simple
FN:2923,_RNCNvMsv_NtCscNmhOS6QYVL_12kameo_remote15connection_poolNtB7_16ConnectionHandle8tell_raw0Cs3Gqi3lF3rZv_16batch_ask_simple
FN:3265,_RNCNvMsv_NtCscNmhOS6QYVL_12kameo_remote15connection_poolNtB7_16ConnectionHandle9ask_batch0Cs3Gqi3lF3rZv_16batch_ask_simple
FN:4280,_RNCNvMsw_NtCscNmhOS6QYVL_12kameo_remote15connection_poolNtB7_14ConnectionPool22get_connection_to_peer0Cs3Gqi3lF3rZv_16batch_ask_simple
FN:1704,_RNvMsf_NtCscNmhOS6QYVL_12kameo_remote15connection_poolNtB5_20LockFreeStreamHandle19write_bytes_controlCseMZ9mYNOGxi_25connection_lifecycle_test
FN:2981,_RINvMsv_NtCscNmhOS6QYVL_12kameo_remote15connection_poolNtB6_16ConnectionHandle4tellRShECseMZ9mYNOGxi_25connection_lifecycle_test
FN:2981,_RNCINvMsv_NtCscNmhOS6QYVL_12kameo_remote15connection_poolNtB8_16ConnectionHandle4tellRShE0CseMZ9mYNOGxi_25connection_lifecycle_test
FN:3041,_RNCNCNvMsv_NtCscNmhOS6QYVL_12kameo_remote15connection_poolNtB9_16ConnectionHandle10tell_batch00CseMZ9mYNOGxi_25connection_lifecycle_test
FN:4335,_RNCNCNvMsw_NtCscNmhOS6QYVL_12kameo_remote15connection_poolNtB9_14ConnectionPool22get_connection_to_peer00CseMZ9mYNOGxi_25connection_lifecycle_test
FN:1583,_RNCNvMsf_NtCscNmhOS6QYVL_12kameo_remote15connection_poolNtB7_20LockFreeStreamHandle18acquire_ask_permit0CseMZ9mYNOGxi_25connection_lifecycle_test
FN:1749,_RNCNvMsf_NtCscNmhOS6QYVL_12kameo_remote15connection_poolNtB7_20LockFreeStreamHandle35write_header_and_payload_ask_inline0CseMZ9mYNOGxi_25connection_lifecycle_test
FN:2363,_RNCNvMsi_NtCscNmhOS6QYVL_12kameo_remote15connection_poolNtB7_11TellMessage8send_via0CseMZ9mYNOGxi_25connection_lifecycle_test
FN:2571,_RNCNvMsr_NtCscNmhOS6QYVL_12kameo_remote15connection_poolNtB7_18CorrelationTracker17wait_for_response0CseMZ9mYNOGxi_25connection_lifecycle_test
FN:3039,_RNCNvMsv_NtCscNmhOS6QYVL_12kameo_remote15connection_poolNtB7_16ConnectionHandle10tell_batch0CseMZ9mYNOGxi_25connection_lifecycle_test
FN:3171,_RNCNvMsv_NtCscNmhOS6QYVL_12kameo_remote15connection_poolNtB7_16ConnectionHandle16ask_with_timeout0CseMZ9mYNOGxi_25connection_lifecycle_test
FN:3070,_RNCNvMsv_NtCscNmhOS6QYVL_12kameo_remote15connection_poolNtB7_16ConnectionHandle3ask0CseMZ9mYNOGxi_25connection_lifecycle_test
FN:2923,_RNCNvMsv_NtCscNmhOS6QYVL_12kameo_remote15connection_poolNtB7_16ConnectionHandle8tell_raw0CseMZ9mYNOGxi_25connection_lifecycle_test
FN:4280,_RNCNvMsw_NtCscNmhOS6QYVL_12kameo_remote15connection_poolNtB7_14ConnectionPool22get_connection_to_peer0CseMZ9mYNOGxi_25connection_lifecycle_test
FN:1704,_RNvMsf_NtCscNmhOS6QYVL_12kameo_remote15connection_poolNtB5_20LockFreeStreamHandle19write_bytes_controlCsQ4Soct5oTX_21crypto_security_tests
FN:2981,_RINvMsv_NtCscNmhOS6QYVL_12kameo_remote15connection_poolNtB6_16ConnectionHandle4tellRShECsQ4Soct5oTX_21crypto_security_tests
FN:2981,_RNCINvMsv_NtCscNmhOS6QYVL_12kameo_remote15connection_poolNtB8_16ConnectionHandle4tellRShE0CsQ4Soct5oTX_21crypto_security_tests
FN:3041,_RNCNCNvMsv_NtCscNmhOS6QYVL_12kameo_remote15connection_poolNtB9_16ConnectionHandle10tell_batch00CsQ4Soct5oTX_21crypto_security_tests
FN:4335,_RNCNCNvMsw_NtCscNmhOS6QYVL_12kameo_remote15connection_poolNtB9_14ConnectionPool22get_connection_to_peer00CsQ4Soct5oTX_21crypto_security_tests
FN:2363,_RNCNvMsi_NtCscNmhOS6QYVL_12kameo_remote15connection_poolNtB7_11TellMessage8send_via0CsQ4Soct5oTX_21crypto_security_tests
FN:3039,_RNCNvMsv_NtCscNmhOS6QYVL_12kameo_remote15connection_poolNtB7_16ConnectionHandle10tell_batch0CsQ4Soct5oTX_21crypto_security_tests
FN:2923,_RNCNvMsv_NtCscNmhOS6QYVL_12kameo_remote15connection_poolNtB7_16ConnectionHandle8tell_raw0CsQ4Soct5oTX_21crypto_security_tests
FN:4280,_RNCNvMsw_NtCscNmhOS6QYVL_12kameo_remote15connection_poolNtB7_14ConnectionPool22get_connection_to_peer0CsQ4Soct5oTX_21crypto_security_tests
FN:933,_RINvMsf_NtCscNmhOS6QYVL_12kameo_remote15connection_poolNtB6_20LockFreeStreamHandle22background_writer_taskNtNtNtNtCsh4ISjvibZbV_5tokio2io4util3mem12DuplexStreamECs9vT5Lgu9Bt6_12flow_control
FN:836,_RINvMsf_NtCscNmhOS6QYVL_12kameo_remote15connection_poolNtB6_20LockFreeStreamHandle3newNtNtNtNtCsh4ISjvibZbV_5tokio2io4util3mem12DuplexStreamECs9vT5Lgu9Bt6_12flow_control
FN:761,_RINvNtCscNmhOS6QYVL_12kameo_remote15connection_pool24write_bytes_vectored_allINtNtNtNtCsh4ISjvibZbV_5tokio2io4util10buf_writer9BufWriterNtNtB1i_3mem12DuplexStreamEECs9vT5Lgu9Bt6_12flow_control
FN:945,_RNCINvMsf_NtCscNmhOS6QYVL_12kameo_remote15connection_poolNtB8_20LockFreeStreamHandle22background_writer_taskNtNtNtNtCsh4ISjvibZbV_5tokio2io4util3mem12DuplexStreamE0Cs9vT5Lgu9Bt6_12flow_control
FN:881,_RNCINvMsf_NtCscNmhOS6QYVL_12kameo_remote15connection_poolNtB8_20LockFreeStreamHandle3newNtNtNtNtCsh4ISjvibZbV_5tokio2io4util3mem12DuplexStreamE0Cs9vT5Lgu9Bt6_12flow_control
FN:764,_RNCINvNtCscNmhOS6QYVL_12kameo_remote15connection_pool24write_bytes_vectored_allINtNtNtNtCsh4ISjvibZbV_5tokio2io4util10buf_writer9BufWriterNtNtB1k_3mem12DuplexStreamEE0Cs9vT5Lgu9Bt6_12flow_control
FN:1698,_RNCNvMsf_NtCscNmhOS6QYVL_12kameo_remote15connection_poolNtB7_20LockFreeStreamHandle15write_bytes_ask0Cs9vT5Lgu9Bt6_12flow_control
FN:1583,_RNCNvMsf_NtCscNmhOS6QYVL_12kameo_remote15connection_poolNtB7_20LockFreeStreamHandle18acquire_ask_permit0Cs9vT5Lgu9Bt6_12flow_control
FN:1698,_RNvMsf_NtCscNmhOS6QYVL_12kameo_remote15connection_poolNtB5_20LockFreeStreamHandle15write_bytes_askCs9vT5Lgu9Bt6_12flow_control
FN:2981,_RINvMsv_NtCscNmhOS6QYVL_12kameo_remote15connection_poolNtB6_16ConnectionHandle4tellRShECs4cwBtOJSvgn_19gossip_conflict_e2e
FN:2981,_RNCINvMsv_NtCscNmhOS6QYVL_12kameo_remote15connection_poolNtB8_16ConnectionHandle4tellRShE0Cs4cwBtOJSvgn_19gossip_conflict_e2e
FN:3041,_RNCNCNvMsv_NtCscNmhOS6QYVL_12kameo_remote15connection_poolNtB9_16ConnectionHandle10tell_batch00Cs4cwBtOJSvgn_19gossip_conflict_e2e
FN:4335,_RNCNCNvMsw_NtCscNmhOS6QYVL_12kameo_remote15connection_poolNtB9_14ConnectionPool22get_connection_to_peer00Cs4cwBtOJSvgn_19gossip_conflict_e2e
FN:2363,_RNCNvMsi_NtCscNmhOS6QYVL_12kameo_remote15connection_poolNtB7_11TellMessage8send_via0Cs4cwBtOJSvgn_19gossip_conflict_e2e
FN:3039,_RNCNvMsv_NtCscNmhOS6QYVL_12kameo_remote15connection_poolNtB7_16ConnectionHandle10tell_batch0Cs4cwBtOJSvgn_19gossip_conflict_e2e
FN:2923,_RNCNvMsv_NtCscNmhOS6QYVL_12kameo_remote15connection_poolNtB7_16ConnectionHandle8tell_raw0Cs4cwBtOJSvgn_19gossip_conflict_e2e
FN:4280,_RNCNvMsw_NtCscNmhOS6QYVL_12kameo_remote15connection_poolNtB7_14ConnectionPool22get_connection_to_peer0Cs4cwBtOJSvgn_19gossip_conflict_e2e
FN:1704,_RNvMsf_NtCscNmhOS6QYVL_12kameo_remote15connection_poolNtB5_20LockFreeStreamHandle19write_bytes_controlCs4cwBtOJSvgn_19gossip_conflict_e2e
FN:2981,_RINvMsv_NtCscNmhOS6QYVL_12kameo_remote15connection_poolNtB6_16ConnectionHandle4tellRShECs1ne0vv3Fhzm_16gossip_e2e_tests
FN:2981,_RNCINvMsv_NtCscNmhOS6QYVL_12kameo_remote15connection_poolNtB8_16ConnectionHandle4tellRShE0Cs1ne0vv3Fhzm_16gossip_e2e_tests
FN:3041,_RNCNCNvMsv_NtCscNmhOS6QYVL_12kameo_remote15connection_poolNtB9_16ConnectionHandle10tell_batch00Cs1ne0vv3Fhzm_16gossip_e2e_tests
FN:2363,_RNCNvMsi_NtCscNmhOS6QYVL_12kameo_remote15connection_poolNtB7_11TellMessage8send_via0Cs1ne0vv3Fhzm_16gossip_e2e_tests
FN:3039,_RNCNvMsv_NtCscNmhOS6QYVL_12kameo_remote15connection_poolNtB7_16ConnectionHandle10tell_batch0Cs1ne0vv3Fhzm_16gossip_e2e_tests
FN:2923,_RNCNvMsv_NtCscNmhOS6QYVL_12kameo_remote15connection_poolNtB7_16ConnectionHandle8tell_raw0Cs1ne0vv3Fhzm_16gossip_e2e_tests
FN:1704,_RNvMsf_NtCscNmhOS6QYVL_12kameo_remote15connection_poolNtB5_20LockFreeStreamHandle19write_bytes_controlCs1ne0vv3Fhzm_16gossip_e2e_tests
FN:1704,_RNvMsf_NtCscNmhOS6QYVL_12kameo_remote15connection_poolNtB5_20LockFreeStreamHandle19write_bytes_controlCs8rLwhA5jnOy_17gossip_matrix_e2e
FN:2981,_RINvMsv_NtCscNmhOS6QYVL_12kameo_remote15connection_poolNtB6_16ConnectionHandle4tellRShECs8rLwhA5jnOy_17gossip_matrix_e2e
FN:2981,_RNCINvMsv_NtCscNmhOS6QYVL_12kameo_remote15connection_poolNtB8_16ConnectionHandle4tellRShE0Cs8rLwhA5jnOy_17gossip_matrix_e2e
FN:3041,_RNCNCNvMsv_NtCscNmhOS6QYVL_12kameo_remote15connection_poolNtB9_16ConnectionHandle10tell_batch00Cs8rLwhA5jnOy_17gossip_matrix_e2e
FN:4335,_RNCNCNvMsw_NtCscNmhOS6QYVL_12kameo_remote15connection_poolNtB9_14ConnectionPool22get_connection_to_peer00Cs8rLwhA5jnOy_17gossip_matrix_e2e
FN:2363,_RNCNvMsi_NtCscNmhOS6QYVL_12kameo_remote15connection_poolNtB7_11TellMessage8send_via0Cs8rLwhA5jnOy_17gossip_matrix_e2e
FN:3039,_RNCNvMsv_NtCscNmhOS6QYVL_12kameo_remote15connection_poolNtB7_16ConnectionHandle10tell_batch0Cs8rLwhA5jnOy_17gossip_matrix_e2e
FN:2923,_RNCNvMsv_NtCscNmhOS6QYVL_12kameo_remote15connection_poolNtB7_16ConnectionHandle8tell_raw0Cs8rLwhA5jnOy_17gossip_matrix_e2e
FN:4280,_RNCNvMsw_NtCscNmhOS6QYVL_12kameo_remote15connection_poolNtB7_14ConnectionPool22get_connection_to_peer0Cs8rLwhA5jnOy_17gossip_matrix_e2e
FN:2981,_RINvMsv_NtCscNmhOS6QYVL_12kameo_remote15connection_poolNtB6_16ConnectionHandle4tellRShECs8Yv4B2eQpLz_20gossip_partition_e2e
FN:2981,_RNCINvMsv_NtCscNmhOS6QYVL_12kameo_remote15connection_poolNtB8_16ConnectionHandle4tellRShE0Cs8Yv4B2eQpLz_20gossip_partition_e2e
FN:3041,_RNCNCNvMsv_NtCscNmhOS6QYVL_12kameo_remote15connection_poolNtB9_16ConnectionHandle10tell_batch00Cs8Yv4B2eQpLz_20gossip_partition_e2e
FN:4335,_RNCNCNvMsw_NtCscNmhOS6QYVL_12kameo_remote15connection_poolNtB9_14ConnectionPool22get_connection_to_peer00Cs8Yv4B2eQpLz_20gossip_partition_e2e
FN:2363,_RNCNvMsi_NtCscNmhOS6QYVL_12kameo_remote15connection_poolNtB7_11TellMessage8send_via0Cs8Yv4B2eQpLz_20gossip_partition_e2e
FN:3039,_RNCNvMsv_NtCscNmhOS6QYVL_12kameo_remote15connection_poolNtB7_16ConnectionHandle10tell_batch0Cs8Yv4B2eQpLz_20gossip_partition_e2e
FN:2923,_RNCNvMsv_NtCscNmhOS6QYVL_12kameo_remote15connection_poolNtB7_16ConnectionHandle8tell_raw0Cs8Yv4B2eQpLz_20gossip_partition_e2e
FN:4280,_RNCNvMsw_NtCscNmhOS6QYVL_12kameo_remote15connection_poolNtB7_14ConnectionPool22get_connection_to_peer0Cs8Yv4B2eQpLz_20gossip_partition_e2e
FN:1704,_RNvMsf_NtCscNmhOS6QYVL_12kameo_remote15connection_poolNtB5_20LockFreeStreamHandle19write_bytes_controlCs8Yv4B2eQpLz_20gossip_partition_e2e
FN:1704,_RNvMsf_NtCscNmhOS6QYVL_12kameo_remote15connection_poolNtB5_20LockFreeStreamHandle19write_bytes_controlCsjFVaWVs31kC_18gossip_removal_e2e
FN:2981,_RINvMsv_NtCscNmhOS6QYVL_12kameo_remote15connection_poolNtB6_16ConnectionHandle4tellRShECsjFVaWVs31kC_18gossip_removal_e2e
FN:2981,_RNCINvMsv_NtCscNmhOS6QYVL_12kameo_remote15connection_poolNtB8_16ConnectionHandle4tellRShE0CsjFVaWVs31kC_18gossip_removal_e2e
FN:3041,_RNCNCNvMsv_NtCscNmhOS6QYVL_12kameo_remote15connection_poolNtB9_16ConnectionHandle10tell_batch00CsjFVaWVs31kC_18gossip_removal_e2e
FN:4335,_RNCNCNvMsw_NtCscNmhOS6QYVL_12kameo_remote15connection_poolNtB9_14ConnectionPool22get_connection_to_peer00CsjFVaWVs31kC_18gossip_removal_e2e
FN:2363,_RNCNvMsi_NtCscNmhOS6QYVL_12kameo_remote15connection_poolNtB7_11TellMessage8send_via0CsjFVaWVs31kC_18gossip_removal_e2e
FN:3039,_RNCNvMsv_NtCscNmhOS6QYVL_12kameo_remote15connection_poolNtB7_16ConnectionHandle10tell_batch0CsjFVaWVs31kC_18gossip_removal_e2e
FN:2923,_RNCNvMsv_NtCscNmhOS6QYVL_12kameo_remote15connection_poolNtB7_16ConnectionHandle8tell_raw0CsjFVaWVs31kC_18gossip_removal_e2e
FN:4280,_RNCNvMsw_NtCscNmhOS6QYVL_12kameo_remote15connection_poolNtB7_14ConnectionPool22get_connection_to_peer0CsjFVaWVs31kC_18gossip_removal_e2e
FN:1865,_RINvMsf_NtCs4ULJ6nbTBOi_12kameo_remote15connection_poolNtB6_20LockFreeStreamHandle13write_buf_askpEB8_
FN:1837,_RINvMsf_NtCs4ULJ6nbTBOi_12kameo_remote15connection_poolNtB6_20LockFreeStreamHandle17write_buf_controlpEB8_
FN:1845,_RINvMsf_NtCs4ULJ6nbTBOi_12kameo_remote15connection_poolNtB6_20LockFreeStreamHandle43write_header_and_payload_control_inline_bufpEB8_
FN:2987,_RINvMsv_NtCs4ULJ6nbTBOi_12kameo_remote15connection_poolNtB6_16ConnectionHandle10tell_smartpEB8_
FN:2945,_RINvMsv_NtCs4ULJ6nbTBOi_12kameo_remote15connection_poolNtB6_16ConnectionHandle10tell_typedpEB8_
FN:3431,_RINvMsv_NtCs4ULJ6nbTBOi_12kameo_remote15connection_poolNtB6_16ConnectionHandle11stream_sendpEB8_
FN:2810,_RINvMsv_NtCs4ULJ6nbTBOi_12kameo_remote15connection_poolNtB6_16ConnectionHandle17send_response_bufpEB8_
FN:3471,_RINvMsv_NtCs4ULJ6nbTBOi_12kameo_remote15connection_poolNtB6_16ConnectionHandle17stream_send_batchpEB8_
FN:3076,_RINvMsv_NtCs4ULJ6nbTBOi_12kameo_remote15connection_poolNtB6_16ConnectionHandle18ask_typed_archivedppEB8_
FN:3110,_RINvMsv_NtCs4ULJ6nbTBOi_12kameo_remote15connection_poolNtB6_16ConnectionHandle31ask_typed_archived_with_timeoutppEB8_
FN:3005,_RINvMsv_NtCs4ULJ6nbTBOi_12kameo_remote15connection_poolNtB6_16ConnectionHandle9tell_manypEB8_
FN:1868,_RNCINvMsf_NtCs4ULJ6nbTBOi_12kameo_remote15connection_poolNtB8_20LockFreeStreamHandle13write_buf_askpE0Ba_
FN:1840,_RNCINvMsf_NtCs4ULJ6nbTBOi_12kameo_remote15connection_poolNtB8_20LockFreeStreamHandle17write_buf_controlpE0Ba_
FN:1853,_RNCINvMsf_NtCs4ULJ6nbTBOi_12kameo_remote15connection_poolNtB8_20LockFreeStreamHandle43write_header_and_payload_control_inline_bufpE0Ba_
FN:2987,_RNCINvMsv_NtCs4ULJ6nbTBOi_12kameo_remote15connection_poolNtB8_16ConnectionHandle10tell_smartpE0Ba_
FN:2948,_RNCINvMsv_NtCs4ULJ6nbTBOi_12kameo_remote15connection_poolNtB8_16ConnectionHandle10tell_typedpE0Ba_
FN:3443,_RNCINvMsv_NtCs4ULJ6nbTBOi_12kameo_remote15connection_poolNtB8_16ConnectionHandle11stream_sendpE0Ba_
FN:2818,_RNCINvMsv_NtCs4ULJ6nbTBOi_12kameo_remote15connection_poolNtB8_16ConnectionHandle17send_response_bufpE0Ba_
FN:3483,_RNCINvMsv_NtCs4ULJ6nbTBOi_12kameo_remote15connection_poolNtB8_16ConnectionHandle17stream_send_batchpE0Ba_
FN:3093,_RNCINvMsv_NtCs4ULJ6nbTBOi_12kameo_remote15connection_poolNtB8_16ConnectionHandle18ask_typed_archivedppE0Ba_
FN:3128,_RNCINvMsv_NtCs4ULJ6nbTBOi_12kameo_remote15connection_poolNtB8_16ConnectionHandle31ask_typed_archived_with_timeoutppE0Ba_
FN:3005,_RNCINvMsv_NtCs4ULJ6nbTBOi_12kameo_remote15connection_poolNtB8_16ConnectionHandle9tell_manypE0Ba_
FN:2993,_RNCNCINvMsv_NtCs4ULJ6nbTBOi_12kameo_remote15connection_poolNtBa_16ConnectionHandle10tell_smartpE00Bc_
FN:3015,_RNCNCINvMsv_NtCs4ULJ6nbTBOi_12kameo_remote15connection_poolNtBa_16ConnectionHandle9tell_manypE00Bc_
FN:5084,_RNCNCNCNvMsw_NtCs4ULJ6nbTBOi_12kameo_remote15connection_poolNtBb_14ConnectionPool35handle_persistent_connection_reader000Bd_
FN:5085,_RNCNCNCNvMsw_NtCs4ULJ6nbTBOi_12kameo_remote15connection_poolNtBb_14ConnectionPool35handle_persistent_connection_reader00s_0Bd_
FN:3370,_RNCNCNvMsv_NtCs4ULJ6nbTBOi_12kameo_remote15connection_poolNtB9_16ConnectionHandle19ask_batch_optimized00Bb_
FN:3412,_RNCNCNvMsv_NtCs4ULJ6nbTBOi_12kameo_remote15connection_poolNtB9_16ConnectionHandle19ask_batch_optimized0s_0Bb_
FN:2842,_RNCNCNvMsv_NtCs4ULJ6nbTBOi_12kameo_remote15connection_poolNtB9_16ConnectionHandle20send_response_pooled00Bb_
FN:3340,_RNCNCNvMsv_NtCs4ULJ6nbTBOi_12kameo_remote15connection_poolNtB9_16ConnectionHandle22ask_batch_with_timeout00Bb_
FN:3310,_RNCNCNvMsv_NtCs4ULJ6nbTBOi_12kameo_remote15connection_poolNtB9_16ConnectionHandle9ask_batch00Bb_
FN:5081,_RNCNCNvMsw_NtCs4ULJ6nbTBOi_12kameo_remote15connection_poolNtB9_14ConnectionPool35handle_persistent_connection_reader00Bb_
FN:5365,_RNCNCNvMsw_NtCs4ULJ6nbTBOi_12kameo_remote15connection_poolNtB9_14ConnectionPool35handle_persistent_connection_reader0s0_0Bb_
FN:5587,_RNCNCNvMsw_NtCs4ULJ6nbTBOi_12kameo_remote15connection_poolNtB9_14ConnectionPool35handle_persistent_connection_reader0s1_0Bb_
FN:5789,_RNCNCNvMsw_NtCs4ULJ6nbTBOi_12kameo_remote15connection_poolNtB9_14ConnectionPool35handle_persistent_connection_reader0s2_0Bb_
FN:5271,_RNCNCNvMsw_NtCs4ULJ6nbTBOi_12kameo_remote15connection_poolNtB9_14ConnectionPool35handle_persistent_connection_reader0s_0Bb_
FN:1698,_RNCNvMsf_NtCs4ULJ6nbTBOi_12kameo_remote15connection_poolNtB7_20LockFreeStreamHandle15write_bytes_ask0B9_
FN:1804,_RNCNvMsf_NtCs4ULJ6nbTBOi_12kameo_remote15connection_poolNtB7_20LockFreeStreamHandle16write_pooled_ask0B9_
FN:2029,_RNCNvMsf_NtCs4ULJ6nbTBOi_12kameo_remote15connection_poolNtB7_20LockFreeStreamHandle17flush_immediately0B9_
FN:2247,_RNCNvMsf_NtCs4ULJ6nbTBOi_12kameo_remote15connection_poolNtB7_20LockFreeStreamHandle20stream_large_message0B9_
FN:1766,_RNCNvMsf_NtCs4ULJ6nbTBOi_12kameo_remote15connection_poolNtB7_20LockFreeStreamHandle20write_pooled_control0B9_
FN:1823,_RNCNvMsf_NtCs4ULJ6nbTBOi_12kameo_remote15connection_poolNtB7_20LockFreeStreamHandle23write_pooled_ask_inline0B9_
FN:2257,_RNCNvMsf_NtCs4ULJ6nbTBOi_12kameo_remote15connection_poolNtB7_20LockFreeStreamHandle26stream_large_message_bytes0B9_
FN:2125,_RNCNvMsf_NtCs4ULJ6nbTBOi_12kameo_remote15connection_poolNtB7_20LockFreeStreamHandle26stream_large_message_zoned0B9_
FN:2045,_RNCNvMsf_NtCs4ULJ6nbTBOi_12kameo_remote15connection_poolNtB7_20LockFreeStreamHandle26write_vectored_nonblocking0B9_
FN:1785,_RNCNvMsf_NtCs4ULJ6nbTBOi_12kameo_remote15connection_poolNtB7_20LockFreeStreamHandle27write_pooled_control_inline0B9_
FN:1739,_RNCNvMsf_NtCs4ULJ6nbTBOi_12kameo_remote15connection_poolNtB7_20LockFreeStreamHandle28write_header_and_payload_ask0B9_
FN:2230,_RNCNvMsf_NtCs4ULJ6nbTBOi_12kameo_remote15connection_poolNtB7_20LockFreeStreamHandle29stream_large_message_internal0B9_
FN:1713,_RNCNvMsf_NtCs4ULJ6nbTBOi_12kameo_remote15connection_poolNtB7_20LockFreeStreamHandle32write_header_and_payload_control0B9_
FN:2219,_RNCNvMsf_NtCs4ULJ6nbTBOi_12kameo_remote15connection_poolNtB7_20LockFreeStreamHandle35stream_large_message_internal_bytes0B9_
FN:1749,_RNCNvMsf_NtCs4ULJ6nbTBOi_12kameo_remote15connection_poolNtB7_20LockFreeStreamHandle35write_header_and_payload_ask_inline0B9_
FN:2269,_RNCNvMsf_NtCs4ULJ6nbTBOi_12kameo_remote15connection_poolNtB7_20LockFreeStreamHandle37stream_large_message_with_correlation0B9_
FN:2280,_RNCNvMsf_NtCs4ULJ6nbTBOi_12kameo_remote15connection_poolNtB7_20LockFreeStreamHandle43stream_large_message_with_correlation_bytes0B9_
FN:2571,_RNCNvMsr_NtCs4ULJ6nbTBOi_12kameo_remote15connection_poolNtB7_18CorrelationTracker17wait_for_response0B9_
FN:2689,_RNCNvMst_NtCs4ULJ6nbTBOi_12kameo_remote15connection_poolNtB7_20DelegatedReplySender14wait_for_reply0B9_
FN:2711,_RNCNvMst_NtCs4ULJ6nbTBOi_12kameo_remote15connection_poolNtB7_20DelegatedReplySender27wait_for_reply_with_timeout0B9_
FN:2935,_RNCNvMsv_NtCs4ULJ6nbTBOi_12kameo_remote15connection_poolNtB7_16ConnectionHandle10tell_bytes0B9_
FN:2873,_RNCNvMsv_NtCs4ULJ6nbTBOi_12kameo_remote15connection_poolNtB7_16ConnectionHandle13ask_streaming0B9_
FN:3026,_RNCNvMsv_NtCs4ULJ6nbTBOi_12kameo_remote15connection_poolNtB7_16ConnectionHandle13send_messages0B9_
FN:2785,_RNCNvMsv_NtCs4ULJ6nbTBOi_12kameo_remote15connection_poolNtB7_16ConnectionHandle14send_raw_bytes0B9_
FN:3171,_RNCNvMsv_NtCs4ULJ6nbTBOi_12kameo_remote15connection_poolNtB7_16ConnectionHandle16ask_with_timeout0B9_
FN:3195,_RNCNvMsv_NtCs4ULJ6nbTBOi_12kameo_remote15connection_poolNtB7_16ConnectionHandle17ask_with_reply_to0B9_
FN:3021,_RNCNvMsv_NtCs4ULJ6nbTBOi_12kameo_remote15connection_poolNtB7_16ConnectionHandle17send_tell_message0B9_
FN:3363,_RNCNvMsv_NtCs4ULJ6nbTBOi_12kameo_remote15connection_poolNtB7_16ConnectionHandle19ask_batch_optimized0B9_
FN:2897,_RNCNvMsv_NtCs4ULJ6nbTBOi_12kameo_remote15connection_poolNtB7_16ConnectionHandle19ask_streaming_bytes0B9_
FN:2973,_RNCNvMsv_NtCs4ULJ6nbTBOi_12kameo_remote15connection_poolNtB7_16ConnectionHandle19send_binary_message0B9_
FN:2797,_RNCNvMsv_NtCs4ULJ6nbTBOi_12kameo_remote15connection_poolNtB7_16ConnectionHandle19send_response_bytes0B9_
FN:2849,_RNCNvMsv_NtCs4ULJ6nbTBOi_12kameo_remote15connection_poolNtB7_16ConnectionHandle20send_bytes_zero_copy0B9_
FN:2836,_RNCNvMsv_NtCs4ULJ6nbTBOi_12kameo_remote15connection_poolNtB7_16ConnectionHandle20send_response_pooled0B9_
FN:2859,_RNCNvMsv_NtCs4ULJ6nbTBOi_12kameo_remote15connection_poolNtB7_16ConnectionHandle20stream_large_message0B9_
FN:3224,_RNCNvMsv_NtCs4ULJ6nbTBOi_12kameo_remote15connection_poolNtB7_16ConnectionHandle21ask_with_reply_sender0B9_
FN:3333,_RNCNvMsv_NtCs4ULJ6nbTBOi_12kameo_remote15connection_poolNtB7_16ConnectionHandle22ask_batch_with_timeout0B9_
FN:3145,_RNCNvMsv_NtCs4ULJ6nbTBOi_12kameo_remote15connection_poolNtB7_16ConnectionHandle23ask_with_timeout_pooled0B9_
FN:3244,_RNCNvMsv_NtCs4ULJ6nbTBOi_12kameo_remote15connection_poolNtB7_16ConnectionHandle26ask_with_timeout_and_reply0B9_
FN:2762,_RNCNvMsv_NtCs4ULJ6nbTBOi_12kameo_remote15connection_poolNtB7_16ConnectionHandle26peer_supports_streaming_v20B9_
FN:2763,_RNCNvMsv_NtCs4ULJ6nbTBOi_12kameo_remote15connection_poolNtB7_16ConnectionHandle26peer_supports_streaming_v2s_0B9_
FN:3070,_RNCNvMsv_NtCs4ULJ6nbTBOi_12kameo_remote15connection_poolNtB7_16ConnectionHandle3ask0B9_
FN:3064,_RNCNvMsv_NtCs4ULJ6nbTBOi_12kameo_remote15connection_poolNtB7_16ConnectionHandle8send_raw0B9_
FN:3265,_RNCNvMsv_NtCs4ULJ6nbTBOi_12kameo_remote15connection_poolNtB7_16ConnectionHandle9ask_batch0B9_
FN:2999,_RNCNvMsv_NtCs4ULJ6nbTBOi_12kameo_remote15connection_poolNtB7_16ConnectionHandle9tell_auto0B9_
FN:4221,_RNCNvMsw_NtCs4ULJ6nbTBOi_12kameo_remote15connection_poolNtB7_14ConnectionPool18get_message_buffer0B9_
FN:4191,_RNCNvMsw_NtCs4ULJ6nbTBOi_12kameo_remote15connection_poolNtB7_14ConnectionPool19get_all_connections0B9_
FN:4177,_RNCNvMsw_NtCs4ULJ6nbTBOi_12kameo_remote15connection_poolNtB7_14ConnectionPool19get_connected_peers0B9_
FN:5027,_RNCNvMsw_NtCs4ULJ6nbTBOi_12kameo_remote15connection_poolNtB7_14ConnectionPool23check_connection_health0B9_
FN:3937,_RNCNvMsw_NtCs4ULJ6nbTBOi_12kameo_remote15connection_poolNtB7_14ConnectionPool24add_lock_free_connection0B9_
FN:3968,_RNCNvMsw_NtCs4ULJ6nbTBOi_12kameo_remote15connection_poolNtB7_14ConnectionPool24add_lock_free_connections0_0B9_
FN:3938,_RNCNvMsw_NtCs4ULJ6nbTBOi_12kameo_remote15connection_poolNtB7_14ConnectionPool24add_lock_free_connections_0B9_
FN:5071,_RNCNvMsw_NtCs4ULJ6nbTBOi_12kameo_remote15connection_poolNtB7_14ConnectionPool35handle_persistent_connection_reader0B9_
FN:514,_RNCNvXs5_NtCs4ULJ6nbTBOi_12kameo_remote15connection_poolNtB7_12WritePayloadNtNtCs85QQFkKrybG_4core3fmt5Debug3fmt0B9_
FN:93,_RNvMNtCs4ULJ6nbTBOi_12kameo_remote15connection_poolNtB2_11TaskTracker12abort_writer
FN:105,_RNvMNtCs4ULJ6nbTBOi_12kameo_remote15connection_poolNtB2_11TaskTracker13detach_reader
FN:251,_RNvMs0_NtCs4ULJ6nbTBOi_12kameo_remote15connection_poolNtB5_12BufferConfig11from_master
FN:402,_RNvMs4_NtCs4ULJ6nbTBOi_12kameo_remote15connection_poolNtB5_18LockFreeConnection11abort_tasks
FN:424,_RNvMs4_NtCs4ULJ6nbTBOi_12kameo_remote15connection_poolNtB5_18LockFreeConnection13try_set_state
FN:444,_RNvMs4_NtCs4ULJ6nbTBOi_12kameo_remote15connection_poolNtB5_18LockFreeConnection19reset_failure_count
FN:440,_RNvMs4_NtCs4ULJ6nbTBOi_12kameo_remote15connection_poolNtB5_18LockFreeConnection23increment_failure_count
FN:452,_RNvMs4_NtCs4ULJ6nbTBOi_12kameo_remote15connection_poolNtB5_18LockFreeConnection9is_failed
FN:650,_RNvMsd_NtCs4ULJ6nbTBOi_12kameo_remote15connection_poolNtB5_17MessageBufferPool15available_count
FN:654,_RNvMsd_NtCs4ULJ6nbTBOi_12kameo_remote15connection_poolNtB5_17MessageBufferPool8is_empty
FN:731,_RNvMse_NtCs4ULJ6nbTBOi_12kameo_remote15connection_poolNtB5_18LockFreeRingBuffer11utilization
FN:736,_RNvMse_NtCs4ULJ6nbTBOi_12kameo_remote15connection_poolNtB5_18LockFreeRingBuffer14is_nearly_full
FN:2081,_RNvMsf_NtCs4ULJ6nbTBOi_12kameo_remote15connection_poolNtB5_20LockFreeStreamHandle10channel_id
FN:2069,_RNvMsf_NtCs4ULJ6nbTBOi_12kameo_remote15connection_poolNtB5_20LockFreeStreamHandle13buffer_status
FN:2086,_RNvMsf_NtCs4ULJ6nbTBOi_12kameo_remote15connection_poolNtB5_20LockFreeStreamHandle13bytes_written
FN:2075,_RNvMsf_NtCs4ULJ6nbTBOi_12kameo_remote15connection_poolNtB5_20LockFreeStreamHandle14is_buffer_full
FN:2091,_RNvMsf_NtCs4ULJ6nbTBOi_12kameo_remote15connection_poolNtB5_20LockFreeStreamHandle15sequence_number
FN:1698,_RNvMsf_NtCs4ULJ6nbTBOi_12kameo_remote15connection_poolNtB5_20LockFreeStreamHandle15write_bytes_askB7_
FN:1799,_RNvMsf_NtCs4ULJ6nbTBOi_12kameo_remote15connection_poolNtB5_20LockFreeStreamHandle16write_pooled_ask
FN:2020,_RNvMsf_NtCs4ULJ6nbTBOi_12kameo_remote15connection_poolNtB5_20LockFreeStreamHandle17flush_immediately
FN:2299,_RNvMsf_NtCs4ULJ6nbTBOi_12kameo_remote15connection_poolNtB5_20LockFreeStreamHandle18write_owned_chunks
FN:2115,_RNvMsf_NtCs4ULJ6nbTBOi_12kameo_remote15connection_poolNtB5_20LockFreeStreamHandle19streaming_threshold
FN:2242,_RNvMsf_NtCs4ULJ6nbTBOi_12kameo_remote15connection_poolNtB5_20LockFreeStreamHandle20stream_large_message
FN:2287,_RNvMsf_NtCs4ULJ6nbTBOi_12kameo_remote15connection_poolNtB5_20LockFreeStreamHandle20write_bytes_vectored
FN:1761,_RNvMsf_NtCs4ULJ6nbTBOi_12kameo_remote15connection_poolNtB5_20LockFreeStreamHandle20write_pooled_control
FN:2096,_RNvMsf_NtCs4ULJ6nbTBOi_12kameo_remote15connection_poolNtB5_20LockFreeStreamHandle22next_frame_sequence_id
FN:1816,_RNvMsf_NtCs4ULJ6nbTBOi_12kameo_remote15connection_poolNtB5_20LockFreeStreamHandle23write_pooled_ask_inline
FN:2056,_RNvMsf_NtCs4ULJ6nbTBOi_12kameo_remote15connection_poolNtB5_20LockFreeStreamHandle25write_chunked_nonblocking
FN:2252,_RNvMsf_NtCs4ULJ6nbTBOi_12kameo_remote15connection_poolNtB5_20LockFreeStreamHandle26stream_large_message_bytes
FN:2119,_RNvMsf_NtCs4ULJ6nbTBOi_12kameo_remote15connection_poolNtB5_20LockFreeStreamHandle26stream_large_message_zoned
FN:2039,_RNvMsf_NtCs4ULJ6nbTBOi_12kameo_remote15connection_poolNtB5_20LockFreeStreamHandle26write_vectored_nonblocking
FN:1778,_RNvMsf_NtCs4ULJ6nbTBOi_12kameo_remote15connection_poolNtB5_20LockFreeStreamHandle27write_pooled_control_inline
FN:1735,_RNvMsf_NtCs4ULJ6nbTBOi_12kameo_remote15connection_poolNtB5_20LockFreeStreamHandle28write_header_and_payload_ask
FN:2224,_RNvMsf_NtCs4ULJ6nbTBOi_12kameo_remote15connection_poolNtB5_20LockFreeStreamHandle29stream_large_message_internal
FN:1972,_RNvMsf_NtCs4ULJ6nbTBOi_12kameo_remote15connection_poolNtB5_20LockFreeStreamHandle31write_bytes_nonblocking_checked
FN:1709,_RNvMsf_NtCs4ULJ6nbTBOi_12kameo_remote15connection_poolNtB5_20LockFreeStreamHandle32write_header_and_payload_control
FN:2213,_RNvMsf_NtCs4ULJ6nbTBOi_12kameo_remote15connection_poolNtB5_20LockFreeStreamHandle35stream_large_message_internal_bytes
FN:1744,_RNvMsf_NtCs4ULJ6nbTBOi_12kameo_remote15connection_poolNtB5_20LockFreeStreamHandle35write_header_and_payload_ask_inline
FN:1904,_RNvMsf_NtCs4ULJ6nbTBOi_12kameo_remote15connection_poolNtB5_20LockFreeStreamHandle36write_header_and_payload_nonblocking
FN:2263,_RNvMsf_NtCs4ULJ6nbTBOi_12kameo_remote15connection_poolNtB5_20LockFreeStreamHandle37stream_large_message_with_correlation
FN:2274,_RNvMsf_NtCs4ULJ6nbTBOi_12kameo_remote15connection_poolNtB5_20LockFreeStreamHandle43stream_large_message_with_correlation_bytes
FN:1994,_RNvMsf_NtCs4ULJ6nbTBOi_12kameo_remote15connection_poolNtB5_20LockFreeStreamHandle44write_header_and_payload_nonblocking_checked
FN:2101,_RNvMsf_NtCs4ULJ6nbTBOi_12kameo_remote15connection_poolNtB5_20LockFreeStreamHandle4addr
FN:2354,_RNvMsi_NtCs4ULJ6nbTBOi_12kameo_remote15connection_poolNtB5_11TellMessage10from_slice
FN:2349,_RNvMsi_NtCs4ULJ6nbTBOi_12kameo_remote15connection_poolNtB5_11TellMessage5batch
FN:2344,_RNvMsi_NtCs4ULJ6nbTBOi_12kameo_remote15connection_poolNtB5_11TellMessage6single
FN:2491,_RNvMsr_NtCs4ULJ6nbTBOi_12kameo_remote15connection_poolNtB5_18CorrelationTracker13take_response
FN:2567,_RNvMsr_NtCs4ULJ6nbTBOi_12kameo_remote15connection_poolNtB5_18CorrelationTracker17wait_for_response
FN:2554,_RNvMsr_NtCs4ULJ6nbTBOi_12kameo_remote15connection_poolNtB5_18CorrelationTracker6cancel
FN:2501,_RNvMsr_NtCs4ULJ6nbTBOi_12kameo_remote15connection_poolNtB5_18CorrelationTracker8allocate
FN:2683,_RNvMst_NtCs4ULJ6nbTBOi_12kameo_remote15connection_poolNtB5_20DelegatedReplySender11reply_error
FN:2723,_RNvMst_NtCs4ULJ6nbTBOi_12kameo_remote15connection_poolNtB5_20DelegatedReplySender11request_len
FN:2733,_RNvMst_NtCs4ULJ6nbTBOi_12kameo_remote15connection_poolNtB5_20DelegatedReplySender12is_timed_out
FN:2689,_RNvMst_NtCs4ULJ6nbTBOi_12kameo_remote15connection_poolNtB5_20DelegatedReplySender14wait_for_reply
FN:2655,_RNvMst_NtCs4ULJ6nbTBOi_12kameo_remote15connection_poolNtB5_20DelegatedReplySender16new_with_timeout
FN:2742,_RNvMst_NtCs4ULJ6nbTBOi_12kameo_remote15connection_poolNtB5_20DelegatedReplySender17create_mock_reply
FN:2711,_RNvMst_NtCs4ULJ6nbTBOi_12kameo_remote15connection_poolNtB5_20DelegatedReplySender27wait_for_reply_with_timeout
FN:2640,_RNvMst_NtCs4ULJ6nbTBOi_12kameo_remote15connection_poolNtB5_20DelegatedReplySender3new
FN:2672,_RNvMst_NtCs4ULJ6nbTBOi_12kameo_remote15connection_poolNtB5_20DelegatedReplySender5reply
FN:2728,_RNvMst_NtCs4ULJ6nbTBOi_12kameo_remote15connection_poolNtB5_20DelegatedReplySender7elapsed
FN:2935,_RNvMsv_NtCs4ULJ6nbTBOi_12kameo_remote15connection_poolNtB5_16ConnectionHandle10tell_bytes
FN:2867,_RNvMsv_NtCs4ULJ6nbTBOi_12kameo_remote15connection_poolNtB5_16ConnectionHandle13ask_streaming
FN:3026,_RNvMsv_NtCs4ULJ6nbTBOi_12kameo_remote15connection_poolNtB5_16ConnectionHandle13send_messages
FN:2785,_RNvMsv_NtCs4ULJ6nbTBOi_12kameo_remote15connection_poolNtB5_16ConnectionHandle14send_raw_bytes
FN:3055,_RNvMsv_NtCs4ULJ6nbTBOi_12kameo_remote15connection_poolNtB5_16ConnectionHandle15try_send_direct
FN:3167,_RNvMsv_NtCs4ULJ6nbTBOi_12kameo_remote15connection_poolNtB5_16ConnectionHandle16ask_with_timeout
FN:3195,_RNvMsv_NtCs4ULJ6nbTBOi_12kameo_remote15connection_poolNtB5_16ConnectionHandle17ask_with_reply_to
FN:3021,_RNvMsv_NtCs4ULJ6nbTBOi_12kameo_remote15connection_poolNtB5_16ConnectionHandle17send_tell_message
FN:3530,_RNvMsv_NtCs4ULJ6nbTBOi_12kameo_remote15connection_poolNtB5_16ConnectionHandle18write_owned_chunks
FN:3359,_RNvMsv_NtCs4ULJ6nbTBOi_12kameo_remote15connection_poolNtB5_16ConnectionHandle19ask_batch_optimized
FN:2891,_RNvMsv_NtCs4ULJ6nbTBOi_12kameo_remote15connection_poolNtB5_16ConnectionHandle19ask_streaming_bytes
FN:2767,_RNvMsv_NtCs4ULJ6nbTBOi_12kameo_remote15connection_poolNtB5_16ConnectionHandle19ensure_streaming_v2
FN:2973,_RNvMsv_NtCs4ULJ6nbTBOi_12kameo_remote15connection_poolNtB5_16ConnectionHandle19send_binary_message
FN:2793,_RNvMsv_NtCs4ULJ6nbTBOi_12kameo_remote15connection_poolNtB5_16ConnectionHandle19send_response_bytes
FN:2918,_RNvMsv_NtCs4ULJ6nbTBOi_12kameo_remote15connection_poolNtB5_16ConnectionHandle19streaming_threshold
FN:3519,_RNvMsv_NtCs4ULJ6nbTBOi_12kameo_remote15connection_poolNtB5_16ConnectionHandle20get_lock_free_stream
FN:2849,_RNvMsv_NtCs4ULJ6nbTBOi_12kameo_remote15connection_poolNtB5_16ConnectionHandle20send_bytes_zero_copy
FN:2830,_RNvMsv_NtCs4ULJ6nbTBOi_12kameo_remote15connection_poolNtB5_16ConnectionHandle20send_response_pooled
FN:2854,_RNvMsv_NtCs4ULJ6nbTBOi_12kameo_remote15connection_poolNtB5_16ConnectionHandle20stream_large_message
FN:3525,_RNvMsv_NtCs4ULJ6nbTBOi_12kameo_remote15connection_poolNtB5_16ConnectionHandle20write_bytes_vectored
FN:3224,_RNvMsv_NtCs4ULJ6nbTBOi_12kameo_remote15connection_poolNtB5_16ConnectionHandle21ask_with_reply_sender
FN:3329,_RNvMsv_NtCs4ULJ6nbTBOi_12kameo_remote15connection_poolNtB5_16ConnectionHandle22ask_batch_with_timeout
FN:3138,_RNvMsv_NtCs4ULJ6nbTBOi_12kameo_remote15connection_poolNtB5_16ConnectionHandle23ask_with_timeout_pooled
FN:3240,_RNvMsv_NtCs4ULJ6nbTBOi_12kameo_remote15connection_poolNtB5_16ConnectionHandle26ask_with_timeout_and_reply
FN:2759,_RNvMsv_NtCs4ULJ6nbTBOi_12kameo_remote15connection_poolNtB5_16ConnectionHandle26peer_supports_streaming_v2
FN:3070,_RNvMsv_NtCs4ULJ6nbTBOi_12kameo_remote15connection_poolNtB5_16ConnectionHandle3ask
FN:3064,_RNvMsv_NtCs4ULJ6nbTBOi_12kameo_remote15connection_poolNtB5_16ConnectionHandle8send_raw
FN:3262,_RNvMsv_NtCs4ULJ6nbTBOi_12kameo_remote15connection_poolNtB5_16ConnectionHandle9ask_batch
FN:2999,_RNvMsv_NtCs4ULJ6nbTBOi_12kameo_remote15connection_poolNtB5_16ConnectionHandle9tell_auto
FN:4067,_RNvMsw_NtCs4ULJ6nbTBOi_12kameo_remote15connection_poolNtB5_14ConnectionPool12send_to_node
FN:4209,_RNvMsw_NtCs4ULJ6nbTBOi_12kameo_remote15connection_poolNtB5_14ConnectionPool13return_buffer
FN:3854,_RNvMsw_NtCs4ULJ6nbTBOi_12kameo_remote15connection_poolNtB5_14ConnectionPool15send_to_peer_id
FN:4989,_RNvMsw_NtCs4ULJ6nbTBOi_12kameo_remote15connection_poolNtB5_14ConnectionPool17mark_disconnected
FN:4218,_RNvMsw_NtCs4ULJ6nbTBOi_12kameo_remote15connection_poolNtB5_14ConnectionPool18get_message_buffer
FN:4188,_RNvMsw_NtCs4ULJ6nbTBOi_12kameo_remote15connection_poolNtB5_14ConnectionPool19get_all_connections
FN:4174,_RNvMsw_NtCs4ULJ6nbTBOi_12kameo_remote15connection_poolNtB5_14ConnectionPool19get_connected_peers
FN:3576,_RNvMsw_NtCs4ULJ6nbTBOi_12kameo_remote15connection_poolNtB5_14ConnectionPool19update_node_address
FN:4018,_RNvMsw_NtCs4ULJ6nbTBOi_12kameo_remote15connection_poolNtB5_14ConnectionPool20send_lock_free_parts
FN:4997,_RNvMsw_NtCs4ULJ6nbTBOi_12kameo_remote15connection_poolNtB5_14ConnectionPool21remove_connection_mut
FN:4225,_RNvMsw_NtCs4ULJ6nbTBOi_12kameo_remote15connection_poolNtB5_14ConnectionPool21return_message_buffer
FN:5027,_RNvMsw_NtCs4ULJ6nbTBOi_12kameo_remote15connection_poolNtB5_14ConnectionPool23check_connection_health
FN:4244,_RNvMsw_NtCs4ULJ6nbTBOi_12kameo_remote15connection_poolNtB5_14ConnectionPool23get_existing_connection
FN:3915,_RNvMsw_NtCs4ULJ6nbTBOi_12kameo_remote15connection_poolNtB5_14ConnectionPool24add_lock_free_connection
FN:5066,_RNvMsw_NtCs4ULJ6nbTBOi_12kameo_remote15connection_poolNtB5_14ConnectionPool35handle_persistent_connection_reader
FN:2399,_RNvXININtCs4ULJ6nbTBOi_12kameo_remote15connection_poolsm_0KpENtB5_11TellMessageINtNtCs85QQFkKrybG_4core7convert4FromRAhpE4fromB7_
FN:365,_RNvXs3_NtCs4ULJ6nbTBOi_12kameo_remote15connection_poolNtB5_18LockFreeConnectionNtNtCs85QQFkKrybG_4core5clone5Clone5clone
FN:490,_RNvXs5_NtCs4ULJ6nbTBOi_12kameo_remote15connection_poolNtB5_12WritePayloadNtNtCs85QQFkKrybG_4core3fmt5Debug3fmt
FN:559,_RNvXs8_NtCs4ULJ6nbTBOi_12kameo_remote15connection_poolNtB5_12WriteCommandNtNtCs85QQFkKrybG_4core3fmt5Debug3fmt
FN:2320,_RNvXsg_NtCs4ULJ6nbTBOi_12kameo_remote15connection_poolNtB5_14StreamingGuardNtNtNtCs85QQFkKrybG_4core3ops4drop4Drop4drop
FN:2326,_RNvXsh_NtCs4ULJ6nbTBOi_12kameo_remote15connection_poolNtB5_20LockFreeStreamHandleNtNtCs85QQFkKrybG_4core3fmt5Debug3fmt
FN:2379,_RNvXsk_NtCs4ULJ6nbTBOi_12kameo_remote15connection_poolNtB5_11TellMessageINtNtCs85QQFkKrybG_4core7convert4FromINtNtCsdFlNUEO95cG_5alloc3vec3VecRShEE4from
FN:2389,_RNvXsl_NtCs4ULJ6nbTBOi_12kameo_remote15connection_poolNtB5_11TellMessageINtNtCs85QQFkKrybG_4core7convert4FromRSRShE4from
FN:2405,_RNvXsn_NtCs4ULJ6nbTBOi_12kameo_remote15connection_poolNtB5_11TellMessageINtNtCs85QQFkKrybG_4core7convert4FromRINtNtCsdFlNUEO95cG_5alloc3vec3VechEE4from
FN:2471,_RNvXsq_NtCs4ULJ6nbTBOi_12kameo_remote15connection_poolNtB5_18CorrelationTrackerNtNtCs85QQFkKrybG_4core3fmt5Debug3fmt
FN:2612,_RNvXss_NtCs4ULJ6nbTBOi_12kameo_remote15connection_poolNtB5_16ConnectionHandleNtNtCs85QQFkKrybG_4core3fmt5Debug3fmt
FN:2748,_RNvXsu_NtCs4ULJ6nbTBOi_12kameo_remote15connection_poolNtB5_20DelegatedReplySenderNtNtCs85QQFkKrybG_4core3fmt5Debug3fmt
FN:7953,_RNvNtNtCs4ULJ6nbTBOi_12kameo_remote15connection_pool5tests18create_test_server
FN:8149,_RNvNtNtCs4ULJ6nbTBOi_12kameo_remote15connection_pool5testss_17test_set_registry
FN:8065,_RNvNtNtCs4ULJ6nbTBOi_12kameo_remote15connection_pool5testss_23test_should_flush_rules
FN:8141,_RNvNtNtCs4ULJ6nbTBOi_12kameo_remote15connection_pool5testss_24test_connection_pool_new
FN:8013,_RNvNtNtCs4ULJ6nbTBOi_12kameo_remote15connection_pool5testss_26test_buffer_config_default
FN:7979,_RNvNtNtCs4ULJ6nbTBOi_12kameo_remote15connection_pool5testss_28test_connection_handle_debug
FN:7987,_RNvNtNtCs4ULJ6nbTBOi_12kameo_remote15connection_pool5testss_29test_buffer_config_validation
FN:8025,_RNvNtNtCs4ULJ6nbTBOi_12kameo_remote15connection_pool5testss_31test_buffer_config_minimum_size
FN:8165,_RNvNtNtCs4ULJ6nbTBOi_12kameo_remote15connection_pool5testss_32test_connection_handle_send_data
FN:8231,_RNvNtNtCs4ULJ6nbTBOi_12kameo_remote15connection_pool5testss_32test_task_tracker_aborts_on_drop
FN:8051,_RNvNtNtCs4ULJ6nbTBOi_12kameo_remote15connection_pool5testss_34test_control_reserved_slots_bounds
FN:8038,_RNvNtNtCs4ULJ6nbTBOi_12kameo_remote15connection_pool5testss_35test_streaming_threshold_saturation
FN:8002,_RNvNtNtCs4ULJ6nbTBOi_12kameo_remote15connection_pool5testss_36test_streaming_threshold_calculation
FN:8271,_RNvNtNtCs4ULJ6nbTBOi_12kameo_remote15connection_pool5testss_37test_task_tracker_replaces_old_handle
FN:8194,_RNvNtNtCs4ULJ6nbTBOi_12kameo_remote15connection_pool5testss_39test_connection_handle_send_data_closed
FN:8097,_RNvNtNtCs4ULJ6nbTBOi_12kameo_remote15connection_pool5testss_50test_permit_lanes_allow_control_when_ask_exhausted
FN:933,_RINvMsf_NtCs4ULJ6nbTBOi_12kameo_remote15connection_poolNtB6_20LockFreeStreamHandle22background_writer_taskINtNtCs85QQFkKrybG_4core3pin3PinINtNtCsdFlNUEO95cG_5alloc5boxed3BoxDNtNtNtCsh4ISjvibZbV_5tokio2io11async_write10AsyncWriteNtNtB1L_6marker4SendEL_EEEB8_
FN:933,_RINvMsf_NtCs4ULJ6nbTBOi_12kameo_remote15connection_poolNtB6_20LockFreeStreamHandle22background_writer_taskNtNtNtNtCsh4ISjvibZbV_5tokio2io4util3mem12DuplexStreamEB8_
FN:933,_RINvMsf_NtCs4ULJ6nbTBOi_12kameo_remote15connection_poolNtB6_20LockFreeStreamHandle22background_writer_taskNtNtNtNtCsh4ISjvibZbV_5tokio3net3tcp11split_owned14OwnedWriteHalfEB8_
FN:836,_RINvMsf_NtCs4ULJ6nbTBOi_12kameo_remote15connection_poolNtB6_20LockFreeStreamHandle3newINtNtCs85QQFkKrybG_4core3pin3PinINtNtCsdFlNUEO95cG_5alloc5boxed3BoxDNtNtNtCsh4ISjvibZbV_5tokio2io11async_write10AsyncWriteNtNtB1r_6marker4SendEL_EEEB8_
FN:836,_RINvMsf_NtCs4ULJ6nbTBOi_12kameo_remote15connection_poolNtB6_20LockFreeStreamHandle3newNtNtNtNtCsh4ISjvibZbV_5tokio2io4util3mem12DuplexStreamEB8_
FN:836,_RINvMsf_NtCs4ULJ6nbTBOi_12kameo_remote15connection_poolNtB6_20LockFreeStreamHandle3newNtNtNtNtCsh4ISjvibZbV_5tokio3net3tcp11split_owned14OwnedWriteHalfEB8_
FN:2981,_RINvMsv_NtCs4ULJ6nbTBOi_12kameo_remote15connection_poolNtB6_16ConnectionHandle4tellRShEB8_
FN:5907,_RINvMsw_NtCs4ULJ6nbTBOi_12kameo_remote15connection_poolNtB6_14ConnectionPool33process_reader_streaming_v2_frameINtNtCs85QQFkKrybG_4core3pin3PinINtNtCsdFlNUEO95cG_5alloc5boxed3BoxDNtNtNtCsh4ISjvibZbV_5tokio2io10async_read9AsyncReadNtNtB1Q_6marker4SendEL_EEEB8_
FN:761,_RINvNtCs4ULJ6nbTBOi_12kameo_remote15connection_pool24write_bytes_vectored_allINtNtNtNtCsh4ISjvibZbV_5tokio2io4util10buf_writer9BufWriterINtNtCs85QQFkKrybG_4core3pin3PinINtNtCsdFlNUEO95cG_5alloc5boxed3BoxDNtNtB1k_11async_write10AsyncWriteNtNtB2f_6marker4SendEL_EEEEB4_
FN:761,_RINvNtCs4ULJ6nbTBOi_12kameo_remote15connection_pool24write_bytes_vectored_allINtNtNtNtCsh4ISjvibZbV_5tokio2io4util10buf_writer9BufWriterNtNtB1i_3mem12DuplexStreamEEB4_
FN:761,_RINvNtCs4ULJ6nbTBOi_12kameo_remote15connection_pool24write_bytes_vectored_allINtNtNtNtCsh4ISjvibZbV_5tokio2io4util10buf_writer9BufWriterNtNtNtNtB1m_3net3tcp11split_owned14OwnedWriteHalfEEB4_
FN:6201,_RINvNtCs4ULJ6nbTBOi_12kameo_remote15connection_pool26hash_archived_vector_clockNtNtNtCswz7ZwgBZOU_3std4hash6random13DefaultHasherEB4_
FN:945,_RNCINvMsf_NtCs4ULJ6nbTBOi_12kameo_remote15connection_poolNtB8_20LockFreeStreamHandle22background_writer_taskINtNtCs85QQFkKrybG_4core3pin3PinINtNtCsdFlNUEO95cG_5alloc5boxed3BoxDNtNtNtCsh4ISjvibZbV_5tokio2io11async_write10AsyncWriteNtNtB1N_6marker4SendEL_EEE0Ba_
FN:945,_RNCINvMsf_NtCs4ULJ6nbTBOi_12kameo_remote15connection_poolNtB8_20LockFreeStreamHandle22background_writer_taskNtNtNtNtCsh4ISjvibZbV_5tokio2io4util3mem12DuplexStreamE0Ba_
FN:945,_RNCINvMsf_NtCs4ULJ6nbTBOi_12kameo_remote15connection_poolNtB8_20LockFreeStreamHandle22background_writer_taskNtNtNtNtCsh4ISjvibZbV_5tokio3net3tcp11split_owned14OwnedWriteHalfE0Ba_
FN:881,_RNCINvMsf_NtCs4ULJ6nbTBOi_12kameo_remote15connection_poolNtB8_20LockFreeStreamHandle3newINtNtCs85QQFkKrybG_4core3pin3PinINtNtCsdFlNUEO95cG_5alloc5boxed3BoxDNtNtNtCsh4ISjvibZbV_5tokio2io11async_write10AsyncWriteNtNtB1t_6marker4SendEL_EEE0Ba_
FN:881,_RNCINvMsf_NtCs4ULJ6nbTBOi_12kameo_remote15connection_poolNtB8_20LockFreeStreamHandle3newNtNtNtNtCsh4ISjvibZbV_5tokio2io4util3mem12DuplexStreamE0Ba_
FN:881,_RNCINvMsf_NtCs4ULJ6nbTBOi_12kameo_remote15connection_poolNtB8_20LockFreeStreamHandle3newNtNtNtNtCsh4ISjvibZbV_5tokio3net3tcp11split_owned14OwnedWriteHalfE0Ba_
FN:2981,_RNCINvMsv_NtCs4ULJ6nbTBOi_12kameo_remote15connection_poolNtB8_16ConnectionHandle4tellRShE0Ba_
FN:5916,_RNCINvMsw_NtCs4ULJ6nbTBOi_12kameo_remote15connection_poolNtB8_14ConnectionPool33process_reader_streaming_v2_frameINtNtCs85QQFkKrybG_4core3pin3PinINtNtCsdFlNUEO95cG_5alloc5boxed3BoxDNtNtNtCsh4ISjvibZbV_5tokio2io10async_read9AsyncReadNtNtB1S_6marker4SendEL_EEE0Ba_
FN:764,_RNCINvNtCs4ULJ6nbTBOi_12kameo_remote15connection_pool24write_bytes_vectored_allINtNtNtNtCsh4ISjvibZbV_5tokio2io4util10buf_writer9BufWriterINtNtCs85QQFkKrybG_4core3pin3PinINtNtCsdFlNUEO95cG_5alloc5boxed3BoxDNtNtB1m_11async_write10AsyncWriteNtNtB2h_6marker4SendEL_EEEE0B6_
FN:764,_RNCINvNtCs4ULJ6nbTBOi_12kameo_remote15connection_pool24write_bytes_vectored_allINtNtNtNtCsh4ISjvibZbV_5tokio2io4util10buf_writer9BufWriterNtNtB1k_3mem12DuplexStreamEE0B6_
FN:764,_RNCINvNtCs4ULJ6nbTBOi_12kameo_remote15connection_pool24write_bytes_vectored_allINtNtNtNtCsh4ISjvibZbV_5tokio2io4util10buf_writer9BufWriterNtNtNtNtB1o_3net3tcp11split_owned14OwnedWriteHalfEE0B6_
FN:4529,_RNCNCNCNvMsw_NtCs4ULJ6nbTBOi_12kameo_remote15connection_poolNtBb_14ConnectionPool27get_connection_with_node_id0s6_00Bd_
FN:4435,_RNCNCNCNvMsw_NtCs4ULJ6nbTBOi_12kameo_remote15connection_poolNtBb_14ConnectionPool27get_connection_with_node_id0s_00Bd_
FN:4711,_RNCNCNCNvMsw_NtCs4ULJ6nbTBOi_12kameo_remote15connection_poolNtBb_14ConnectionPool27get_connection_with_node_id0sg_00Bd_
FN:4712,_RNCNCNCNvMsw_NtCs4ULJ6nbTBOi_12kameo_remote15connection_poolNtBb_14ConnectionPool27get_connection_with_node_id0sg_0s_0Bd_
FN:4804,_RNCNCNCNvMsw_NtCs4ULJ6nbTBOi_12kameo_remote15connection_poolNtBb_14ConnectionPool27get_connection_with_node_id0si_00Bd_
FN:4815,_RNCNCNCNvMsw_NtCs4ULJ6nbTBOi_12kameo_remote15connection_poolNtBb_14ConnectionPool27get_connection_with_node_id0si_0s0_0Bd_
FN:4829,_RNCNCNCNvMsw_NtCs4ULJ6nbTBOi_12kameo_remote15connection_poolNtBb_14ConnectionPool27get_connection_with_node_id0si_0s1_0Bd_
FN:4845,_RNCNCNCNvMsw_NtCs4ULJ6nbTBOi_12kameo_remote15connection_poolNtBb_14ConnectionPool27get_connection_with_node_id0si_0s2_0Bd_
FN:4864,_RNCNCNCNvMsw_NtCs4ULJ6nbTBOi_12kameo_remote15connection_poolNtBb_14ConnectionPool27get_connection_with_node_id0si_0s3_0Bd_
FN:4890,_RNCNCNCNvMsw_NtCs4ULJ6nbTBOi_12kameo_remote15connection_poolNtBb_14ConnectionPool27get_connection_with_node_id0si_0s4_0Bd_
FN:4805,_RNCNCNCNvMsw_NtCs4ULJ6nbTBOi_12kameo_remote15connection_poolNtBb_14ConnectionPool27get_connection_with_node_id0si_0s_0Bd_
FN:3041,_RNCNCNvMsv_NtCs4ULJ6nbTBOi_12kameo_remote15connection_poolNtB9_16ConnectionHandle10tell_batch00Bb_
FN:4335,_RNCNCNvMsw_NtCs4ULJ6nbTBOi_12kameo_remote15connection_poolNtB9_14ConnectionPool22get_connection_to_peer00Bb_
FN:4430,_RNCNCNvMsw_NtCs4ULJ6nbTBOi_12kameo_remote15connection_poolNtB9_14ConnectionPool27get_connection_with_node_id00Bb_
FN:4448,_RNCNCNvMsw_NtCs4ULJ6nbTBOi_12kameo_remote15connection_poolNtB9_14ConnectionPool27get_connection_with_node_id0s0_0Bb_
FN:4449,_RNCNCNvMsw_NtCs4ULJ6nbTBOi_12kameo_remote15connection_poolNtB9_14ConnectionPool27get_connection_with_node_id0s1_0Bb_
FN:4459,_RNCNCNvMsw_NtCs4ULJ6nbTBOi_12kameo_remote15connection_poolNtB9_14ConnectionPool27get_connection_with_node_id0s2_0Bb_
FN:4502,_RNCNCNvMsw_NtCs4ULJ6nbTBOi_12kameo_remote15connection_poolNtB9_14ConnectionPool27get_connection_with_node_id0s3_0Bb_
FN:4506,_RNCNCNvMsw_NtCs4ULJ6nbTBOi_12kameo_remote15connection_poolNtB9_14ConnectionPool27get_connection_with_node_id0s4_0Bb_
FN:4518,_RNCNCNvMsw_NtCs4ULJ6nbTBOi_12kameo_remote15connection_poolNtB9_14ConnectionPool27get_connection_with_node_id0s5_0Bb_
FN:4525,_RNCNCNvMsw_NtCs4ULJ6nbTBOi_12kameo_remote15connection_poolNtB9_14ConnectionPool27get_connection_with_node_id0s6_0Bb_
FN:4540,_RNCNCNvMsw_NtCs4ULJ6nbTBOi_12kameo_remote15connection_poolNtB9_14ConnectionPool27get_connection_with_node_id0s7_0Bb_
FN:4546,_RNCNCNvMsw_NtCs4ULJ6nbTBOi_12kameo_remote15connection_poolNtB9_14ConnectionPool27get_connection_with_node_id0s8_0Bb_
FN:4572,_RNCNCNvMsw_NtCs4ULJ6nbTBOi_12kameo_remote15connection_poolNtB9_14ConnectionPool27get_connection_with_node_id0s9_0Bb_
FN:4667,_RNCNCNvMsw_NtCs4ULJ6nbTBOi_12kameo_remote15connection_poolNtB9_14ConnectionPool27get_connection_with_node_id0sB_0Bb_
FN:4431,_RNCNCNvMsw_NtCs4ULJ6nbTBOi_12kameo_remote15connection_poolNtB9_14ConnectionPool27get_connection_with_node_id0s_0Bb_
FN:4573,_RNCNCNvMsw_NtCs4ULJ6nbTBOi_12kameo_remote15connection_poolNtB9_14ConnectionPool27get_connection_with_node_id0sa_0Bb_
FN:4620,_RNCNCNvMsw_NtCs4ULJ6nbTBOi_12kameo_remote15connection_poolNtB9_14ConnectionPool27get_connection_with_node_id0sb_0Bb_
FN:4643,_RNCNCNvMsw_NtCs4ULJ6nbTBOi_12kameo_remote15connection_poolNtB9_14ConnectionPool27get_connection_with_node_id0sc_0Bb_
FN:4685,_RNCNCNvMsw_NtCs4ULJ6nbTBOi_12kameo_remote15connection_poolNtB9_14ConnectionPool27get_connection_with_node_id0sd_0Bb_
FN:4686,_RNCNCNvMsw_NtCs4ULJ6nbTBOi_12kameo_remote15connection_poolNtB9_14ConnectionPool27get_connection_with_node_id0se_0Bb_
FN:4706,_RNCNCNvMsw_NtCs4ULJ6nbTBOi_12kameo_remote15connection_poolNtB9_14ConnectionPool27get_connection_with_node_id0sf_0Bb_
FN:4707,_RNCNCNvMsw_NtCs4ULJ6nbTBOi_12kameo_remote15connection_poolNtB9_14ConnectionPool27get_connection_with_node_id0sg_0Bb_
FN:4747,_RNCNCNvMsw_NtCs4ULJ6nbTBOi_12kameo_remote15connection_poolNtB9_14ConnectionPool27get_connection_with_node_id0sh_0Bb_
FN:4799,_RNCNCNvMsw_NtCs4ULJ6nbTBOi_12kameo_remote15connection_poolNtB9_14ConnectionPool27get_connection_with_node_id0si_0Bb_
FN:4934,_RNCNCNvMsw_NtCs4ULJ6nbTBOi_12kameo_remote15connection_poolNtB9_14ConnectionPool27get_connection_with_node_id0sj_0Bb_
FN:6013,_RNCNCNvMsw_NtCs4ULJ6nbTBOi_12kameo_remote15connection_poolNtB9_14ConnectionPool28deliver_streaming_completion00Bb_
FN:6316,_RNCNCNvNtCs4ULJ6nbTBOi_12kameo_remote15connection_pool23handle_incoming_message00B7_
FN:6794,_RNCNCNvNtCs4ULJ6nbTBOi_12kameo_remote15connection_pool23handle_incoming_message0s0_0B7_
FN:7091,_RNCNCNvNtCs4ULJ6nbTBOi_12kameo_remote15connection_pool23handle_incoming_message0s1_0B7_
FN:7341,_RNCNCNvNtCs4ULJ6nbTBOi_12kameo_remote15connection_pool23handle_incoming_message0s2_0B7_
FN:7602,_RNCNCNvNtCs4ULJ6nbTBOi_12kameo_remote15connection_pool23handle_incoming_message0s4_0B7_
FN:7916,_RNCNCNvNtCs4ULJ6nbTBOi_12kameo_remote15connection_pool23handle_incoming_message0s5_0B7_
FN:7937,_RNCNCNvNtCs4ULJ6nbTBOi_12kameo_remote15connection_pool23handle_incoming_message0s6_0B7_
FN:6372,_RNCNCNvNtCs4ULJ6nbTBOi_12kameo_remote15connection_pool23handle_incoming_message0s_0B7_
FN:6959,_RNCNCNvNtCs4ULJ6nbTBOi_12kameo_remote15connection_pool23handle_incoming_message0sw_0B7_
FN:6966,_RNCNCNvNtCs4ULJ6nbTBOi_12kameo_remote15connection_pool23handle_incoming_message0sy_0B7_
FN:6057,_RNCNCNvNtCs4ULJ6nbTBOi_12kameo_remote15connection_pool23resolve_peer_state_addr00B7_
FN:6071,_RNCNCNvNtCs4ULJ6nbTBOi_12kameo_remote15connection_pool23resolve_peer_state_addr0s0_0B7_
FN:6058,_RNCNCNvNtCs4ULJ6nbTBOi_12kameo_remote15connection_pool23resolve_peer_state_addr0s_0B7_
FN:1583,_RNCNvMsf_NtCs4ULJ6nbTBOi_12kameo_remote15connection_poolNtB7_20LockFreeStreamHandle18acquire_ask_permit0B9_
FN:1704,_RNCNvMsf_NtCs4ULJ6nbTBOi_12kameo_remote15connection_poolNtB7_20LockFreeStreamHandle19write_bytes_control0B9_
FN:1591,_RNCNvMsf_NtCs4ULJ6nbTBOi_12kameo_remote15connection_poolNtB7_20LockFreeStreamHandle22acquire_control_permit0B9_
FN:1656,_RNCNvMsf_NtCs4ULJ6nbTBOi_12kameo_remote15connection_poolNtB7_20LockFreeStreamHandle27acquire_ask_permit_for_test0B9_
FN:1661,_RNCNvMsf_NtCs4ULJ6nbTBOi_12kameo_remote15connection_poolNtB7_20LockFreeStreamHandle31acquire_control_permit_for_test0B9_
FN:1723,_RNCNvMsf_NtCs4ULJ6nbTBOi_12kameo_remote15connection_poolNtB7_20LockFreeStreamHandle39write_header_and_payload_control_inline0B9_
FN:2363,_RNCNvMsi_NtCs4ULJ6nbTBOi_12kameo_remote15connection_poolNtB7_11TellMessage8send_via0B9_
FN:2481,_RNCNvMsr_NtCs4ULJ6nbTBOi_12kameo_remote15connection_poolNtB7_18CorrelationTracker3new0B9_
FN:3039,_RNCNvMsv_NtCs4ULJ6nbTBOi_12kameo_remote15connection_poolNtB7_16ConnectionHandle10tell_batch0B9_
FN:2923,_RNCNvMsv_NtCs4ULJ6nbTBOi_12kameo_remote15connection_poolNtB7_16ConnectionHandle8tell_raw0B9_
FN:2778,_RNCNvMsv_NtCs4ULJ6nbTBOi_12kameo_remote15connection_poolNtB7_16ConnectionHandle9send_data0B9_
FN:4375,_RNCNvMsw_NtCs4ULJ6nbTBOi_12kameo_remote15connection_poolNtB7_14ConnectionPool14get_connection0B9_
FN:5014,_RNCNvMsw_NtCs4ULJ6nbTBOi_12kameo_remote15connection_poolNtB7_14ConnectionPool14has_connection0B9_
FN:4007,_RNCNvMsw_NtCs4ULJ6nbTBOi_12kameo_remote15connection_poolNtB7_14ConnectionPool14send_lock_frees1_0B9_
FN:4169,_RNCNvMsw_NtCs4ULJ6nbTBOi_12kameo_remote15connection_poolNtB7_14ConnectionPool16connection_count0B9_
FN:3742,_RNCNvMsw_NtCs4ULJ6nbTBOi_12kameo_remote15connection_poolNtB7_14ConnectionPool19get_peer_id_by_addr0B9_
FN:5057,_RNCNvMsw_NtCs4ULJ6nbTBOi_12kameo_remote15connection_poolNtB7_14ConnectionPool21close_all_connections0B9_
FN:3730,_RNCNvMsw_NtCs4ULJ6nbTBOi_12kameo_remote15connection_poolNtB7_14ConnectionPool22get_connection_by_addr0B9_
FN:4280,_RNCNvMsw_NtCs4ULJ6nbTBOi_12kameo_remote15connection_poolNtB7_14ConnectionPool22get_connection_to_peer0B9_
FN:3911,_RNCNvMsw_NtCs4ULJ6nbTBOi_12kameo_remote15connection_poolNtB7_14ConnectionPool24get_lock_free_connection0B9_
FN:5038,_RNCNvMsw_NtCs4ULJ6nbTBOi_12kameo_remote15connection_poolNtB7_14ConnectionPool25cleanup_stale_connections0B9_
FN:5039,_RNCNvMsw_NtCs4ULJ6nbTBOi_12kameo_remote15connection_poolNtB7_14ConnectionPool25cleanup_stale_connectionss_0B9_
FN:3695,_RNCNvMsw_NtCs4ULJ6nbTBOi_12kameo_remote15connection_poolNtB7_14ConnectionPool25get_connection_by_peer_id0B9_
FN:3719,_RNCNvMsw_NtCs4ULJ6nbTBOi_12kameo_remote15connection_poolNtB7_14ConnectionPool25get_connection_by_peer_ids_0B9_
FN:5022,_RNCNvMsw_NtCs4ULJ6nbTBOi_12kameo_remote15connection_poolNtB7_14ConnectionPool25has_connection_by_peer_id0B9_
FN:3569,_RNCNvMsw_NtCs4ULJ6nbTBOi_12kameo_remote15connection_poolNtB7_14ConnectionPool27clear_capabilities_for_addr0B9_
FN:4383,_RNCNvMsw_NtCs4ULJ6nbTBOi_12kameo_remote15connection_poolNtB7_14ConnectionPool27get_connection_with_node_id0B9_
FN:5990,_RNCNvMsw_NtCs4ULJ6nbTBOi_12kameo_remote15connection_poolNtB7_14ConnectionPool28deliver_streaming_completion0B9_
FN:3762,_RNCNvMsw_NtCs4ULJ6nbTBOi_12kameo_remote15connection_poolNtB7_14ConnectionPool30get_shared_correlation_tracker0B9_
FN:4144,_RNCNvMsw_NtCs4ULJ6nbTBOi_12kameo_remote15connection_poolNtB7_14ConnectionPool32disconnect_connection_by_peer_id0B9_
FN:4145,_RNCNvMsw_NtCs4ULJ6nbTBOi_12kameo_remote15connection_poolNtB7_14ConnectionPool32disconnect_connection_by_peer_ids_0B9_
FN:3773,_RNCNvMsw_NtCs4ULJ6nbTBOi_12kameo_remote15connection_poolNtB7_14ConnectionPool33get_or_create_correlation_tracker0B9_
FN:6250,_RNCNvNtCs4ULJ6nbTBOi_12kameo_remote15connection_pool23handle_incoming_message0B5_
FN:6051,_RNCNvNtCs4ULJ6nbTBOi_12kameo_remote15connection_pool23resolve_peer_state_addr0B5_
FN:6154,_RNCNvNtCs4ULJ6nbTBOi_12kameo_remote15connection_pool29compare_archived_vector_clock0B5_
FN:6132,_RNCNvNtCs4ULJ6nbTBOi_12kameo_remote15connection_pool30archived_priority_is_immediate0B5_
FN:7982,_RINvNvNtNtCs4ULJ6nbTBOi_12kameo_remote15connection_pool5testss_28test_connection_handle_debug12assert_debugNtB6_16ConnectionHandleEB8_
FN:7960,_RNCNCNCNvNtNtCs4ULJ6nbTBOi_12kameo_remote15connection_pool5tests18create_test_server000Bb_
FN:7958,_RNCNCNvNtNtCs4ULJ6nbTBOi_12kameo_remote15connection_pool5tests18create_test_server00B9_
FN:8239,_RNCNCNvNtNtCs4ULJ6nbTBOi_12kameo_remote15connection_pool5testss_32test_task_tracker_aborts_on_drop00B9_
FN:8276,_RNCNCNvNtNtCs4ULJ6nbTBOi_12kameo_remote15connection_pool5testss_37test_task_tracker_replaces_old_handle00B9_
FN:8282,_RNCNCNvNtNtCs4ULJ6nbTBOi_12kameo_remote15connection_pool5testss_37test_task_tracker_replaces_old_handle0s_0B9_
FN:7953,_RNCNvNtNtCs4ULJ6nbTBOi_12kameo_remote15connection_pool5tests18create_test_server0B7_
FN:8149,_RNCNvNtNtCs4ULJ6nbTBOi_12kameo_remote15connection_pool5testss_17test_set_registry0B7_
FN:8141,_RNCNvNtNtCs4ULJ6nbTBOi_12kameo_remote15connection_pool5testss_24test_connection_pool_new0B7_
FN:8165,_RNCNvNtNtCs4ULJ6nbTBOi_12kameo_remote15connection_pool5testss_32test_connection_handle_send_data0B7_
FN:8231,_RNCNvNtNtCs4ULJ6nbTBOi_12kameo_remote15connection_pool5testss_32test_task_tracker_aborts_on_drop0B7_
FN:8271,_RNCNvNtNtCs4ULJ6nbTBOi_12kameo_remote15connection_pool5testss_37test_task_tracker_replaces_old_handle0B7_
FN:8194,_RNCNvNtNtCs4ULJ6nbTBOi_12kameo_remote15connection_pool5testss_39test_connection_handle_send_data_closed0B7_
FN:8097,_RNCNvNtNtCs4ULJ6nbTBOi_12kameo_remote15connection_pool5testss_50test_permit_lanes_allow_control_when_ask_exhausted0B7_
FN:68,_RNvMNtCs4ULJ6nbTBOi_12kameo_remote15connection_poolNtB2_11TaskTracker10set_reader
FN:60,_RNvMNtCs4ULJ6nbTBOi_12kameo_remote15connection_poolNtB2_11TaskTracker10set_writer
FN:86,_RNvMNtCs4ULJ6nbTBOi_12kameo_remote15connection_poolNtB2_11TaskTracker12abort_reader
FN:100,_RNvMNtCs4ULJ6nbTBOi_12kameo_remote15connection_poolNtB2_11TaskTracker13detach_writer
FN:55,_RNvMNtCs4ULJ6nbTBOi_12kameo_remote15connection_poolNtB2_11TaskTracker3new
FN:76,_RNvMNtCs4ULJ6nbTBOi_12kameo_remote15connection_poolNtB2_11TaskTracker9abort_all
FN:246,_RNvMs0_NtCs4ULJ6nbTBOi_12kameo_remote15connection_poolNtB5_12BufferConfig15tcp_buffer_size
FN:218,_RNvMs0_NtCs4ULJ6nbTBOi_12kameo_remote15connection_poolNtB5_12BufferConfig17ring_buffer_slots
FN:223,_RNvMs0_NtCs4ULJ6nbTBOi_12kameo_remote15connection_poolNtB5_12BufferConfig18ask_inflight_limit
FN:237,_RNvMs0_NtCs4ULJ6nbTBOi_12kameo_remote15connection_poolNtB5_12BufferConfig19streaming_threshold
FN:228,_RNvMs0_NtCs4ULJ6nbTBOi_12kameo_remote15connection_poolNtB5_12BufferConfig23with_ask_inflight_limit
FN:202,_RNvMs0_NtCs4ULJ6nbTBOi_12kameo_remote15connection_poolNtB5_12BufferConfig3new
FN:448,_RNvMs4_NtCs4ULJ6nbTBOi_12kameo_remote15connection_poolNtB5_18LockFreeConnection12is_connected
FN:435,_RNvMs4_NtCs4ULJ6nbTBOi_12kameo_remote15connection_poolNtB5_18LockFreeConnection16update_last_used
FN:407,_RNvMs4_NtCs4ULJ6nbTBOi_12kameo_remote15connection_poolNtB5_18LockFreeConnection25shutdown_tasks_gracefully
FN:385,_RNvMs4_NtCs4ULJ6nbTBOi_12kameo_remote15connection_poolNtB5_18LockFreeConnection3new
FN:416,_RNvMs4_NtCs4ULJ6nbTBOi_12kameo_remote15connection_poolNtB5_18LockFreeConnection9get_state
FN:420,_RNvMs4_NtCs4ULJ6nbTBOi_12kameo_remote15connection_poolNtB5_18LockFreeConnection9set_state
FN:612,_RNvMsd_NtCs4ULJ6nbTBOi_12kameo_remote15connection_poolNtB5_17MessageBufferPool10get_buffer
FN:637,_RNvMsd_NtCs4ULJ6nbTBOi_12kameo_remote15connection_poolNtB5_17MessageBufferPool13return_buffer
FN:597,_RNvMsd_NtCs4ULJ6nbTBOi_12kameo_remote15connection_poolNtB5_17MessageBufferPool3new
FN:726,_RNvMse_NtCs4ULJ6nbTBOi_12kameo_remote15connection_poolNtB5_18LockFreeRingBuffer13pending_count
FN:671,_RNvMse_NtCs4ULJ6nbTBOi_12kameo_remote15connection_poolNtB5_18LockFreeRingBuffer3new
FN:705,_RNvMse_NtCs4ULJ6nbTBOi_12kameo_remote15connection_poolNtB5_18LockFreeRingBuffer7try_pop
FN:683,_RNvMse_NtCs4ULJ6nbTBOi_12kameo_remote15connection_poolNtB5_18LockFreeRingBuffer8try_push
FN:1648,_RNvMsf_NtCs4ULJ6nbTBOi_12kameo_remote15connection_poolNtB5_20LockFreeStreamHandle13permit_counts
FN:1583,_RNvMsf_NtCs4ULJ6nbTBOi_12kameo_remote15connection_poolNtB5_20LockFreeStreamHandle18acquire_ask_permit
FN:1667,_RNvMsf_NtCs4ULJ6nbTBOi_12kameo_remote15connection_poolNtB5_20LockFreeStreamHandle19enqueue_with_permit
FN:1687,_RNvMsf_NtCs4ULJ6nbTBOi_12kameo_remote15connection_poolNtB5_20LockFreeStreamHandle19wake_writer_if_idle
FN:1704,_RNvMsf_NtCs4ULJ6nbTBOi_12kameo_remote15connection_poolNtB5_20LockFreeStreamHandle19write_bytes_controlB7_
FN:1591,_RNvMsf_NtCs4ULJ6nbTBOi_12kameo_remote15connection_poolNtB5_20LockFreeStreamHandle22acquire_control_permit
FN:1874,_RNvMsf_NtCs4ULJ6nbTBOi_12kameo_remote15connection_poolNtB5_20LockFreeStreamHandle23write_bytes_nonblocking
FN:1656,_RNvMsf_NtCs4ULJ6nbTBOi_12kameo_remote15connection_poolNtB5_20LockFreeStreamHandle27acquire_ask_permit_for_test
FN:1661,_RNvMsf_NtCs4ULJ6nbTBOi_12kameo_remote15connection_poolNtB5_20LockFreeStreamHandle31acquire_control_permit_for_test
FN:1718,_RNvMsf_NtCs4ULJ6nbTBOi_12kameo_remote15connection_poolNtB5_20LockFreeStreamHandle39write_header_and_payload_control_inline
FN:1936,_RNvMsf_NtCs4ULJ6nbTBOi_12kameo_remote15connection_poolNtB5_20LockFreeStreamHandle43write_header_and_payload_nonblocking_inline
FN:2106,_RNvMsf_NtCs4ULJ6nbTBOi_12kameo_remote15connection_poolNtB5_20LockFreeStreamHandle8shutdown
FN:2363,_RNvMsi_NtCs4ULJ6nbTBOi_12kameo_remote15connection_poolNtB5_11TellMessage8send_via
FN:2530,_RNvMsr_NtCs4ULJ6nbTBOi_12kameo_remote15connection_poolNtB5_18CorrelationTracker11has_pending
FN:2479,_RNvMsr_NtCs4ULJ6nbTBOi_12kameo_remote15connection_poolNtB5_18CorrelationTracker3new
FN:2536,_RNvMsr_NtCs4ULJ6nbTBOi_12kameo_remote15connection_poolNtB5_18CorrelationTracker8complete
FN:3039,_RNvMsv_NtCs4ULJ6nbTBOi_12kameo_remote15connection_poolNtB5_16ConnectionHandle10tell_batch
FN:2923,_RNvMsv_NtCs4ULJ6nbTBOi_12kameo_remote15connection_poolNtB5_16ConnectionHandle8tell_raw
FN:2778,_RNvMsv_NtCs4ULJ6nbTBOi_12kameo_remote15connection_poolNtB5_16ConnectionHandle9send_data
FN:4196,_RNvMsw_NtCs4ULJ6nbTBOi_12kameo_remote15connection_poolNtB5_14ConnectionPool10get_buffer
FN:3563,_RNvMsw_NtCs4ULJ6nbTBOi_12kameo_remote15connection_poolNtB5_14ConnectionPool12set_registry
FN:4375,_RNvMsw_NtCs4ULJ6nbTBOi_12kameo_remote15connection_poolNtB5_14ConnectionPool14get_connection
FN:5011,_RNvMsw_NtCs4ULJ6nbTBOi_12kameo_remote15connection_poolNtB5_14ConnectionPool14has_connection
FN:3994,_RNvMsw_NtCs4ULJ6nbTBOi_12kameo_remote15connection_poolNtB5_14ConnectionPool14send_lock_free
FN:4166,_RNvMsw_NtCs4ULJ6nbTBOi_12kameo_remote15connection_poolNtB5_14ConnectionPool16connection_count
FN:4090,_RNvMsw_NtCs4ULJ6nbTBOi_12kameo_remote15connection_poolNtB5_14ConnectionPool17remove_connection
FN:3747,_RNvMsw_NtCs4ULJ6nbTBOi_12kameo_remote15connection_poolNtB5_14ConnectionPool19add_addr_to_peer_id
FN:3741,_RNvMsw_NtCs4ULJ6nbTBOi_12kameo_remote15connection_poolNtB5_14ConnectionPool19get_peer_id_by_addr
FN:5050,_RNvMsw_NtCs4ULJ6nbTBOi_12kameo_remote15connection_poolNtB5_14ConnectionPool21close_all_connections
FN:4234,_RNvMsw_NtCs4ULJ6nbTBOi_12kameo_remote15connection_poolNtB5_14ConnectionPool21create_message_buffer
FN:3881,_RNvMsw_NtCs4ULJ6nbTBOi_12kameo_remote15connection_poolNtB5_14ConnectionPool21send_bytes_to_peer_id
FN:3729,_RNvMsw_NtCs4ULJ6nbTBOi_12kameo_remote15connection_poolNtB5_14ConnectionPool22get_connection_by_addr
FN:4277,_RNvMsw_NtCs4ULJ6nbTBOi_12kameo_remote15connection_poolNtB5_14ConnectionPool22get_connection_to_peer
FN:3599,_RNvMsw_NtCs4ULJ6nbTBOi_12kameo_remote15connection_poolNtB5_14ConnectionPool23reindex_connection_addr
FN:3908,_RNvMsw_NtCs4ULJ6nbTBOi_12kameo_remote15connection_poolNtB5_14ConnectionPool24get_lock_free_connection
FN:3845,_RNvMsw_NtCs4ULJ6nbTBOi_12kameo_remote15connection_poolNtB5_14ConnectionPool24index_connection_by_addr
FN:3790,_RNvMsw_NtCs4ULJ6nbTBOi_12kameo_remote15connection_poolNtB5_14ConnectionPool25add_connection_by_peer_id
FN:5033,_RNvMsw_NtCs4ULJ6nbTBOi_12kameo_remote15connection_poolNtB5_14ConnectionPool25cleanup_stale_connections
FN:3676,_RNvMsw_NtCs4ULJ6nbTBOi_12kameo_remote15connection_poolNtB5_14ConnectionPool25get_connection_by_peer_id
FN:5019,_RNvMsw_NtCs4ULJ6nbTBOi_12kameo_remote15connection_poolNtB5_14ConnectionPool25has_connection_by_peer_id
FN:3568,_RNvMsw_NtCs4ULJ6nbTBOi_12kameo_remote15connection_poolNtB5_14ConnectionPool27clear_capabilities_for_addr
FN:4379,_RNvMsw_NtCs4ULJ6nbTBOi_12kameo_remote15connection_poolNtB5_14ConnectionPool27get_connection_with_node_id
FN:4041,_RNvMsw_NtCs4ULJ6nbTBOi_12kameo_remote15connection_poolNtB5_14ConnectionPool27send_lock_free_parts_inline
FN:5986,_RNvMsw_NtCs4ULJ6nbTBOi_12kameo_remote15connection_poolNtB5_14ConnectionPool28deliver_streaming_completion
FN:3756,_RNvMsw_NtCs4ULJ6nbTBOi_12kameo_remote15connection_poolNtB5_14ConnectionPool30get_shared_correlation_tracker
FN:4123,_RNvMsw_NtCs4ULJ6nbTBOi_12kameo_remote15connection_poolNtB5_14ConnectionPool32disconnect_connection_by_peer_id
FN:3766,_RNvMsw_NtCs4ULJ6nbTBOi_12kameo_remote15connection_poolNtB5_14ConnectionPool33get_or_create_correlation_tracker
FN:3536,_RNvMsw_NtCs4ULJ6nbTBOi_12kameo_remote15connection_poolNtB5_14ConnectionPool3new
FN:128,_RNvNtCs4ULJ6nbTBOi_12kameo_remote15connection_pool12should_flush
FN:6122,_RNvNtCs4ULJ6nbTBOi_12kameo_remote15connection_pool16archived_node_id
FN:6116,_RNvNtCs4ULJ6nbTBOi_12kameo_remote15connection_pool16archived_peer_id
FN:6136,_RNvNtCs4ULJ6nbTBOi_12kameo_remote15connection_pool19archived_option_str
FN:162,_RNvNtCs4ULJ6nbTBOi_12kameo_remote15connection_pool20process_mock_request
FN:6098,_RNvNtCs4ULJ6nbTBOi_12kameo_remote15connection_pool21registry_message_kind
FN:116,_RNvNtCs4ULJ6nbTBOi_12kameo_remote15connection_pool22control_reserved_slots
FN:6244,_RNvNtCs4ULJ6nbTBOi_12kameo_remote15connection_pool23handle_incoming_message
FN:6047,_RNvNtCs4ULJ6nbTBOi_12kameo_remote15connection_pool23resolve_peer_state_addr
FN:184,_RNvNtCs4ULJ6nbTBOi_12kameo_remote15connection_pool28process_mock_request_payload
FN:6145,_RNvNtCs4ULJ6nbTBOi_12kameo_remote15connection_pool29compare_archived_vector_clock
FN:6128,_RNvNtCs4ULJ6nbTBOi_12kameo_remote15connection_pool30archived_priority_is_immediate
FN:6218,_RNvNtCs4ULJ6nbTBOi_12kameo_remote15connection_pool31collect_actor_map_from_archived
FN:6233,_RNvNtCs4ULJ6nbTBOi_12kameo_remote15connection_pool32peer_health_status_from_archived
FN:261,_RNvXs1_NtCs4ULJ6nbTBOi_12kameo_remote15connection_poolNtB5_12BufferConfigNtNtCs85QQFkKrybG_4core7default7Default7default
FN:328,_RNvXs2_NtCs4ULJ6nbTBOi_12kameo_remote15connection_poolNtB5_15ConnectionStateINtNtCs85QQFkKrybG_4core7convert4FrommE4from
FN:2373,_RNvXsj_NtCs4ULJ6nbTBOi_12kameo_remote15connection_poolNtB5_11TellMessageINtNtCs85QQFkKrybG_4core7convert4FromRShE4from
FN:111,_RNvXs_NtCs4ULJ6nbTBOi_12kameo_remote15connection_poolNtB4_11TaskTrackerNtNtNtCs85QQFkKrybG_4core3ops4drop4Drop4drop
FN:1704,_RNvMsf_NtCscNmhOS6QYVL_12kameo_remote15connection_poolNtB5_20LockFreeStreamHandle19write_bytes_controlCsgCKrPgQ6uob_14node_name_test
FN:2981,_RINvMsv_NtCscNmhOS6QYVL_12kameo_remote15connection_poolNtB6_16ConnectionHandle4tellRShECsgCKrPgQ6uob_14node_name_test
FN:2981,_RNCINvMsv_NtCscNmhOS6QYVL_12kameo_remote15connection_poolNtB8_16ConnectionHandle4tellRShE0CsgCKrPgQ6uob_14node_name_test
FN:3041,_RNCNCNvMsv_NtCscNmhOS6QYVL_12kameo_remote15connection_poolNtB9_16ConnectionHandle10tell_batch00CsgCKrPgQ6uob_14node_name_test
FN:4335,_RNCNCNvMsw_NtCscNmhOS6QYVL_12kameo_remote15connection_poolNtB9_14ConnectionPool22get_connection_to_peer00CsgCKrPgQ6uob_14node_name_test
FN:2363,_RNCNvMsi_NtCscNmhOS6QYVL_12kameo_remote15connection_poolNtB7_11TellMessage8send_via0CsgCKrPgQ6uob_14node_name_test
FN:3039,_RNCNvMsv_NtCscNmhOS6QYVL_12kameo_remote15connection_poolNtB7_16ConnectionHandle10tell_batch0CsgCKrPgQ6uob_14node_name_test
FN:2923,_RNCNvMsv_NtCscNmhOS6QYVL_12kameo_remote15connection_poolNtB7_16ConnectionHandle8tell_raw0CsgCKrPgQ6uob_14node_name_test
FN:4280,_RNCNvMsw_NtCscNmhOS6QYVL_12kameo_remote15connection_poolNtB7_14ConnectionPool22get_connection_to_peer0CsgCKrPgQ6uob_14node_name_test
FN:2981,_RINvMsv_NtCscNmhOS6QYVL_12kameo_remote15connection_poolNtB6_16ConnectionHandle4tellRShECs3qutdMVIhKi_20peer_discovery_tests
FN:2981,_RNCINvMsv_NtCscNmhOS6QYVL_12kameo_remote15connection_poolNtB8_16ConnectionHandle4tellRShE0Cs3qutdMVIhKi_20peer_discovery_tests
FN:3041,_RNCNCNvMsv_NtCscNmhOS6QYVL_12kameo_remote15connection_poolNtB9_16ConnectionHandle10tell_batch00Cs3qutdMVIhKi_20peer_discovery_tests
FN:2363,_RNCNvMsi_NtCscNmhOS6QYVL_12kameo_remote15connection_poolNtB7_11TellMessage8send_via0Cs3qutdMVIhKi_20peer_discovery_tests
FN:3039,_RNCNvMsv_NtCscNmhOS6QYVL_12kameo_remote15connection_poolNtB7_16ConnectionHandle10tell_batch0Cs3qutdMVIhKi_20peer_discovery_tests
FN:2923,_RNCNvMsv_NtCscNmhOS6QYVL_12kameo_remote15connection_poolNtB7_16ConnectionHandle8tell_raw0Cs3qutdMVIhKi_20peer_discovery_tests
FN:1704,_RNvMsf_NtCscNmhOS6QYVL_12kameo_remote15connection_poolNtB5_20LockFreeStreamHandle19write_bytes_controlCs3qutdMVIhKi_20peer_discovery_tests
FN:2981,_RINvMsv_NtCscNmhOS6QYVL_12kameo_remote15connection_poolNtB6_16ConnectionHandle4tellRShECs9MW0dUygFlO_26peer_discovery_toctou_test
FN:2981,_RNCINvMsv_NtCscNmhOS6QYVL_12kameo_remote15connection_poolNtB8_16ConnectionHandle4tellRShE0Cs9MW0dUygFlO_26peer_discovery_toctou_test
FN:3041,_RNCNCNvMsv_NtCscNmhOS6QYVL_12kameo_remote15connection_poolNtB9_16ConnectionHandle10tell_batch00Cs9MW0dUygFlO_26peer_discovery_toctou_test
FN:2363,_RNCNvMsi_NtCscNmhOS6QYVL_12kameo_remote15connection_poolNtB7_11TellMessage8send_via0Cs9MW0dUygFlO_26peer_discovery_toctou_test
FN:3039,_RNCNvMsv_NtCscNmhOS6QYVL_12kameo_remote15connection_poolNtB7_16ConnectionHandle10tell_batch0Cs9MW0dUygFlO_26peer_discovery_toctou_test
FN:2923,_RNCNvMsv_NtCscNmhOS6QYVL_12kameo_remote15connection_poolNtB7_16ConnectionHandle8tell_raw0Cs9MW0dUygFlO_26peer_discovery_toctou_test
FN:1704,_RNvMsf_NtCscNmhOS6QYVL_12kameo_remote15connection_poolNtB5_20LockFreeStreamHandle19write_bytes_controlCs9MW0dUygFlO_26peer_discovery_toctou_test
FN:933,_RINvMsf_NtCscNmhOS6QYVL_12kameo_remote15connection_poolNtB6_20LockFreeStreamHandle22background_writer_taskNtNtNtNtCsh4ISjvibZbV_5tokio2io4util3mem12DuplexStreamECs62ASYDEVRPE_17pooled_send_bench
FN:836,_RINvMsf_NtCscNmhOS6QYVL_12kameo_remote15connection_poolNtB6_20LockFreeStreamHandle3newNtNtNtNtCsh4ISjvibZbV_5tokio2io4util3mem12DuplexStreamECs62ASYDEVRPE_17pooled_send_bench
FN:761,_RINvNtCscNmhOS6QYVL_12kameo_remote15connection_pool24write_bytes_vectored_allINtNtNtNtCsh4ISjvibZbV_5tokio2io4util10buf_writer9BufWriterNtNtB1i_3mem12DuplexStreamEECs62ASYDEVRPE_17pooled_send_bench
FN:945,_RNCINvMsf_NtCscNmhOS6QYVL_12kameo_remote15connection_poolNtB8_20LockFreeStreamHandle22background_writer_taskNtNtNtNtCsh4ISjvibZbV_5tokio2io4util3mem12DuplexStreamE0Cs62ASYDEVRPE_17pooled_send_bench
FN:881,_RNCINvMsf_NtCscNmhOS6QYVL_12kameo_remote15connection_poolNtB8_20LockFreeStreamHandle3newNtNtNtNtCsh4ISjvibZbV_5tokio2io4util3mem12DuplexStreamE0Cs62ASYDEVRPE_17pooled_send_bench
FN:764,_RNCINvNtCscNmhOS6QYVL_12kameo_remote15connection_pool24write_bytes_vectored_allINtNtNtNtCsh4ISjvibZbV_5tokio2io4util10buf_writer9BufWriterNtNtB1k_3mem12DuplexStreamEE0Cs62ASYDEVRPE_17pooled_send_bench
FN:1583,_RNCNvMsf_NtCscNmhOS6QYVL_12kameo_remote15connection_poolNtB7_20LockFreeStreamHandle18acquire_ask_permit0Cs62ASYDEVRPE_17pooled_send_bench
FN:1739,_RNCNvMsf_NtCscNmhOS6QYVL_12kameo_remote15connection_poolNtB7_20LockFreeStreamHandle28write_header_and_payload_ask0Cs62ASYDEVRPE_17pooled_send_bench
FN:1713,_RNCNvMsf_NtCscNmhOS6QYVL_12kameo_remote15connection_poolNtB7_20LockFreeStreamHandle32write_header_and_payload_control0Cs62ASYDEVRPE_17pooled_send_bench
FN:933,_RINvMsf_NtCscNmhOS6QYVL_12kameo_remote15connection_poolNtB6_20LockFreeStreamHandle22background_writer_taskNtNtNtNtCsh4ISjvibZbV_5tokio2io4util3mem12DuplexStreamECs5K7vlHKW34j_17pooled_typed_send
FN:836,_RINvMsf_NtCscNmhOS6QYVL_12kameo_remote15connection_poolNtB6_20LockFreeStreamHandle3newNtNtNtNtCsh4ISjvibZbV_5tokio2io4util3mem12DuplexStreamECs5K7vlHKW34j_17pooled_typed_send
FN:761,_RINvNtCscNmhOS6QYVL_12kameo_remote15connection_pool24write_bytes_vectored_allINtNtNtNtCsh4ISjvibZbV_5tokio2io4util10buf_writer9BufWriterNtNtB1i_3mem12DuplexStreamEECs5K7vlHKW34j_17pooled_typed_send
FN:945,_RNCINvMsf_NtCscNmhOS6QYVL_12kameo_remote15connection_poolNtB8_20LockFreeStreamHandle22background_writer_taskNtNtNtNtCsh4ISjvibZbV_5tokio2io4util3mem12DuplexStreamE0Cs5K7vlHKW34j_17pooled_typed_send
FN:881,_RNCINvMsf_NtCscNmhOS6QYVL_12kameo_remote15connection_poolNtB8_20LockFreeStreamHandle3newNtNtNtNtCsh4ISjvibZbV_5tokio2io4util3mem12DuplexStreamE0Cs5K7vlHKW34j_17pooled_typed_send
FN:764,_RNCINvNtCscNmhOS6QYVL_12kameo_remote15connection_pool24write_bytes_vectored_allINtNtNtNtCsh4ISjvibZbV_5tokio2io4util10buf_writer9BufWriterNtNtB1k_3mem12DuplexStreamEE0Cs5K7vlHKW34j_17pooled_typed_send
FN:1583,_RNCNvMsf_NtCscNmhOS6QYVL_12kameo_remote15connection_poolNtB7_20LockFreeStreamHandle18acquire_ask_permit0Cs5K7vlHKW34j_17pooled_typed_send
FN:1785,_RNCNvMsf_NtCscNmhOS6QYVL_12kameo_remote15connection_poolNtB7_20LockFreeStreamHandle27write_pooled_control_inline0Cs5K7vlHKW34j_17pooled_typed_send
FN:1739,_RNCNvMsf_NtCscNmhOS6QYVL_12kameo_remote15connection_poolNtB7_20LockFreeStreamHandle28write_header_and_payload_ask0Cs5K7vlHKW34j_17pooled_typed_send
FN:1704,_RNvMsf_NtCscNmhOS6QYVL_12kameo_remote15connection_poolNtB5_20LockFreeStreamHandle19write_bytes_controlCse2axp3xcI2k_30register_actor_sync_real_peers
FN:2981,_RINvMsv_NtCscNmhOS6QYVL_12kameo_remote15connection_poolNtB6_16ConnectionHandle4tellRShECse2axp3xcI2k_30register_actor_sync_real_peers
FN:2981,_RNCINvMsv_NtCscNmhOS6QYVL_12kameo_remote15connection_poolNtB8_16ConnectionHandle4tellRShE0Cse2axp3xcI2k_30register_actor_sync_real_peers
FN:3041,_RNCNCNvMsv_NtCscNmhOS6QYVL_12kameo_remote15connection_poolNtB9_16ConnectionHandle10tell_batch00Cse2axp3xcI2k_30register_actor_sync_real_peers
FN:4335,_RNCNCNvMsw_NtCscNmhOS6QYVL_12kameo_remote15connection_poolNtB9_14ConnectionPool22get_connection_to_peer00Cse2axp3xcI2k_30register_actor_sync_real_peers
FN:2363,_RNCNvMsi_NtCscNmhOS6QYVL_12kameo_remote15connection_poolNtB7_11TellMessage8send_via0Cse2axp3xcI2k_30register_actor_sync_real_peers
FN:3039,_RNCNvMsv_NtCscNmhOS6QYVL_12kameo_remote15connection_poolNtB7_16ConnectionHandle10tell_batch0Cse2axp3xcI2k_30register_actor_sync_real_peers
FN:2923,_RNCNvMsv_NtCscNmhOS6QYVL_12kameo_remote15connection_poolNtB7_16ConnectionHandle8tell_raw0Cse2axp3xcI2k_30register_actor_sync_real_peers
FN:4280,_RNCNvMsw_NtCscNmhOS6QYVL_12kameo_remote15connection_poolNtB7_14ConnectionPool22get_connection_to_peer0Cse2axp3xcI2k_30register_actor_sync_real_peers
FN:1704,_RNvMsf_NtCscNmhOS6QYVL_12kameo_remote15connection_poolNtB5_20LockFreeStreamHandle19write_bytes_controlCscsKZLhnnxZe_21tell_message_api_demo
FN:2981,_RINvMsv_NtCscNmhOS6QYVL_12kameo_remote15connection_poolNtB6_16ConnectionHandle4tellNtB6_11TellMessageECscsKZLhnnxZe_21tell_message_api_demo
FN:2981,_RINvMsv_NtCscNmhOS6QYVL_12kameo_remote15connection_poolNtB6_16ConnectionHandle4tellRINtNtCsdFlNUEO95cG_5alloc3vec3VechEECscsKZLhnnxZe_21tell_message_api_demo
FN:2981,_RINvMsv_NtCscNmhOS6QYVL_12kameo_remote15connection_poolNtB6_16ConnectionHandle4tellRShECscsKZLhnnxZe_21tell_message_api_demo
FN:2981,_RNCINvMsv_NtCscNmhOS6QYVL_12kameo_remote15connection_poolNtB8_16ConnectionHandle4tellNtB8_11TellMessageE0CscsKZLhnnxZe_21tell_message_api_demo
FN:2981,_RNCINvMsv_NtCscNmhOS6QYVL_12kameo_remote15connection_poolNtB8_16ConnectionHandle4tellRINtNtCsdFlNUEO95cG_5alloc3vec3VechEE0CscsKZLhnnxZe_21tell_message_api_demo
FN:2981,_RNCINvMsv_NtCscNmhOS6QYVL_12kameo_remote15connection_poolNtB8_16ConnectionHandle4tellRShE0CscsKZLhnnxZe_21tell_message_api_demo
FN:3041,_RNCNCNvMsv_NtCscNmhOS6QYVL_12kameo_remote15connection_poolNtB9_16ConnectionHandle10tell_batch00CscsKZLhnnxZe_21tell_message_api_demo
FN:1583,_RNCNvMsf_NtCscNmhOS6QYVL_12kameo_remote15connection_poolNtB7_20LockFreeStreamHandle18acquire_ask_permit0CscsKZLhnnxZe_21tell_message_api_demo
FN:1749,_RNCNvMsf_NtCscNmhOS6QYVL_12kameo_remote15connection_poolNtB7_20LockFreeStreamHandle35write_header_and_payload_ask_inline0CscsKZLhnnxZe_21tell_message_api_demo
FN:2363,_RNCNvMsi_NtCscNmhOS6QYVL_12kameo_remote15connection_poolNtB7_11TellMessage8send_via0CscsKZLhnnxZe_21tell_message_api_demo
FN:2571,_RNCNvMsr_NtCscNmhOS6QYVL_12kameo_remote15connection_poolNtB7_18CorrelationTracker17wait_for_response0CscsKZLhnnxZe_21tell_message_api_demo
FN:3039,_RNCNvMsv_NtCscNmhOS6QYVL_12kameo_remote15connection_poolNtB7_16ConnectionHandle10tell_batch0CscsKZLhnnxZe_21tell_message_api_demo
FN:3171,_RNCNvMsv_NtCscNmhOS6QYVL_12kameo_remote15connection_poolNtB7_16ConnectionHandle16ask_with_timeout0CscsKZLhnnxZe_21tell_message_api_demo
FN:3070,_RNCNvMsv_NtCscNmhOS6QYVL_12kameo_remote15connection_poolNtB7_16ConnectionHandle3ask0CscsKZLhnnxZe_21tell_message_api_demo
FN:2923,_RNCNvMsv_NtCscNmhOS6QYVL_12kameo_remote15connection_poolNtB7_16ConnectionHandle8tell_raw0CscsKZLhnnxZe_21tell_message_api_demo
FN:1704,_RNvMsf_NtCscNmhOS6QYVL_12kameo_remote15connection_poolNtB5_20LockFreeStreamHandle19write_bytes_controlCs6e0SCmjIPsc_21tell_with_lookup_demo
FN:2981,_RINvMsv_NtCscNmhOS6QYVL_12kameo_remote15connection_poolNtB6_16ConnectionHandle4tellNtB6_11TellMessageECs6e0SCmjIPsc_21tell_with_lookup_demo
FN:2981,_RINvMsv_NtCscNmhOS6QYVL_12kameo_remote15connection_poolNtB6_16ConnectionHandle4tellRShECs6e0SCmjIPsc_21tell_with_lookup_demo
FN:2981,_RNCINvMsv_NtCscNmhOS6QYVL_12kameo_remote15connection_poolNtB8_16ConnectionHandle4tellNtB8_11TellMessageE0Cs6e0SCmjIPsc_21tell_with_lookup_demo
FN:2981,_RNCINvMsv_NtCscNmhOS6QYVL_12kameo_remote15connection_poolNtB8_16ConnectionHandle4tellRShE0Cs6e0SCmjIPsc_21tell_with_lookup_demo
FN:3041,_RNCNCNvMsv_NtCscNmhOS6QYVL_12kameo_remote15connection_poolNtB9_16ConnectionHandle10tell_batch00Cs6e0SCmjIPsc_21tell_with_lookup_demo
FN:4335,_RNCNCNvMsw_NtCscNmhOS6QYVL_12kameo_remote15connection_poolNtB9_14ConnectionPool22get_connection_to_peer00Cs6e0SCmjIPsc_21tell_with_lookup_demo
FN:2363,_RNCNvMsi_NtCscNmhOS6QYVL_12kameo_remote15connection_poolNtB7_11TellMessage8send_via0Cs6e0SCmjIPsc_21tell_with_lookup_demo
FN:3039,_RNCNvMsv_NtCscNmhOS6QYVL_12kameo_remote15connection_poolNtB7_16ConnectionHandle10tell_batch0Cs6e0SCmjIPsc_21tell_with_lookup_demo
FN:2923,_RNCNvMsv_NtCscNmhOS6QYVL_12kameo_remote15connection_poolNtB7_16ConnectionHandle8tell_raw0Cs6e0SCmjIPsc_21tell_with_lookup_demo
FN:4280,_RNCNvMsw_NtCscNmhOS6QYVL_12kameo_remote15connection_poolNtB7_14ConnectionPool22get_connection_to_peer0Cs6e0SCmjIPsc_21tell_with_lookup_demo
FN:1704,_RNvMsf_NtCscNmhOS6QYVL_12kameo_remote15connection_poolNtB5_20LockFreeStreamHandle19write_bytes_controlCsk9ZdOj1Nc7t_24test_peer_initialization
FN:2981,_RINvMsv_NtCscNmhOS6QYVL_12kameo_remote15connection_poolNtB6_16ConnectionHandle4tellRShECsk9ZdOj1Nc7t_24test_peer_initialization
FN:2981,_RNCINvMsv_NtCscNmhOS6QYVL_12kameo_remote15connection_poolNtB8_16ConnectionHandle4tellRShE0Csk9ZdOj1Nc7t_24test_peer_initialization
FN:3041,_RNCNCNvMsv_NtCscNmhOS6QYVL_12kameo_remote15connection_poolNtB9_16ConnectionHandle10tell_batch00Csk9ZdOj1Nc7t_24test_peer_initialization
FN:4335,_RNCNCNvMsw_NtCscNmhOS6QYVL_12kameo_remote15connection_poolNtB9_14ConnectionPool22get_connection_to_peer00Csk9ZdOj1Nc7t_24test_peer_initialization
FN:2363,_RNCNvMsi_NtCscNmhOS6QYVL_12kameo_remote15connection_poolNtB7_11TellMessage8send_via0Csk9ZdOj1Nc7t_24test_peer_initialization
FN:3039,_RNCNvMsv_NtCscNmhOS6QYVL_12kameo_remote15connection_poolNtB7_16ConnectionHandle10tell_batch0Csk9ZdOj1Nc7t_24test_peer_initialization
FN:2923,_RNCNvMsv_NtCscNmhOS6QYVL_12kameo_remote15connection_poolNtB7_16ConnectionHandle8tell_raw0Csk9ZdOj1Nc7t_24test_peer_initialization
FN:4280,_RNCNvMsw_NtCscNmhOS6QYVL_12kameo_remote15connection_poolNtB7_14ConnectionPool22get_connection_to_peer0Csk9ZdOj1Nc7t_24test_peer_initialization
FN:2981,_RINvMsv_NtCscNmhOS6QYVL_12kameo_remote15connection_poolNtB6_16ConnectionHandle4tellRShECsi8FU15tTkCn_12timing_debug
FN:2981,_RNCINvMsv_NtCscNmhOS6QYVL_12kameo_remote15connection_poolNtB8_16ConnectionHandle4tellRShE0Csi8FU15tTkCn_12timing_debug
FN:3041,_RNCNCNvMsv_NtCscNmhOS6QYVL_12kameo_remote15connection_poolNtB9_16ConnectionHandle10tell_batch00Csi8FU15tTkCn_12timing_debug
FN:4335,_RNCNCNvMsw_NtCscNmhOS6QYVL_12kameo_remote15connection_poolNtB9_14ConnectionPool22get_connection_to_peer00Csi8FU15tTkCn_12timing_debug
FN:2363,_RNCNvMsi_NtCscNmhOS6QYVL_12kameo_remote15connection_poolNtB7_11TellMessage8send_via0Csi8FU15tTkCn_12timing_debug
FN:3039,_RNCNvMsv_NtCscNmhOS6QYVL_12kameo_remote15connection_poolNtB7_16ConnectionHandle10tell_batch0Csi8FU15tTkCn_12timing_debug
FN:2923,_RNCNvMsv_NtCscNmhOS6QYVL_12kameo_remote15connection_poolNtB7_16ConnectionHandle8tell_raw0Csi8FU15tTkCn_12timing_debug
FN:4280,_RNCNvMsw_NtCscNmhOS6QYVL_12kameo_remote15connection_poolNtB7_14ConnectionPool22get_connection_to_peer0Csi8FU15tTkCn_12timing_debug
FN:1704,_RNvMsf_NtCscNmhOS6QYVL_12kameo_remote15connection_poolNtB5_20LockFreeStreamHandle19write_bytes_controlCsi8FU15tTkCn_12timing_debug
FN:2981,_RINvMsv_NtCscNmhOS6QYVL_12kameo_remote15connection_poolNtB6_16ConnectionHandle4tellRShECseXnjFWXUgcY_15tls_integration
FN:2981,_RNCINvMsv_NtCscNmhOS6QYVL_12kameo_remote15connection_poolNtB8_16ConnectionHandle4tellRShE0CseXnjFWXUgcY_15tls_integration
FN:3041,_RNCNCNvMsv_NtCscNmhOS6QYVL_12kameo_remote15connection_poolNtB9_16ConnectionHandle10tell_batch00CseXnjFWXUgcY_15tls_integration
FN:4335,_RNCNCNvMsw_NtCscNmhOS6QYVL_12kameo_remote15connection_poolNtB9_14ConnectionPool22get_connection_to_peer00CseXnjFWXUgcY_15tls_integration
FN:2363,_RNCNvMsi_NtCscNmhOS6QYVL_12kameo_remote15connection_poolNtB7_11TellMessage8send_via0CseXnjFWXUgcY_15tls_integration
FN:3039,_RNCNvMsv_NtCscNmhOS6QYVL_12kameo_remote15connection_poolNtB7_16ConnectionHandle10tell_batch0CseXnjFWXUgcY_15tls_integration
FN:2923,_RNCNvMsv_NtCscNmhOS6QYVL_12kameo_remote15connection_poolNtB7_16ConnectionHandle8tell_raw0CseXnjFWXUgcY_15tls_integration
FN:4280,_RNCNvMsw_NtCscNmhOS6QYVL_12kameo_remote15connection_poolNtB7_14ConnectionPool22get_connection_to_peer0CseXnjFWXUgcY_15tls_integration
FN:1704,_RNvMsf_NtCscNmhOS6QYVL_12kameo_remote15connection_poolNtB5_20LockFreeStreamHandle19write_bytes_controlCseXnjFWXUgcY_15tls_integration
FN:2945,_RINvMsv_NtCscNmhOS6QYVL_12kameo_remote15connection_poolNtB6_16ConnectionHandle10tell_typedNtCs4r4m1QEivDF_20typed_tls_end_to_end4PingEB1s_
FN:3076,_RINvMsv_NtCscNmhOS6QYVL_12kameo_remote15connection_poolNtB6_16ConnectionHandle18ask_typed_archivedNtCs4r4m1QEivDF_20typed_tls_end_to_end4PingB1y_EB1A_
FN:2981,_RINvMsv_NtCscNmhOS6QYVL_12kameo_remote15connection_poolNtB6_16ConnectionHandle4tellRShECs4r4m1QEivDF_20typed_tls_end_to_end
FN:2948,_RNCINvMsv_NtCscNmhOS6QYVL_12kameo_remote15connection_poolNtB8_16ConnectionHandle10tell_typedNtCs4r4m1QEivDF_20typed_tls_end_to_end4PingE0B1u_
FN:3093,_RNCINvMsv_NtCscNmhOS6QYVL_12kameo_remote15connection_poolNtB8_16ConnectionHandle18ask_typed_archivedNtCs4r4m1QEivDF_20typed_tls_end_to_end4PingB1A_E0B1C_
FN:2981,_RNCINvMsv_NtCscNmhOS6QYVL_12kameo_remote15connection_poolNtB8_16ConnectionHandle4tellRShE0Cs4r4m1QEivDF_20typed_tls_end_to_end
FN:3041,_RNCNCNvMsv_NtCscNmhOS6QYVL_12kameo_remote15connection_poolNtB9_16ConnectionHandle10tell_batch00Cs4r4m1QEivDF_20typed_tls_end_to_end
FN:4335,_RNCNCNvMsw_NtCscNmhOS6QYVL_12kameo_remote15connection_poolNtB9_14ConnectionPool22get_connection_to_peer00Cs4r4m1QEivDF_20typed_tls_end_to_end
FN:1583,_RNCNvMsf_NtCscNmhOS6QYVL_12kameo_remote15connection_poolNtB7_20LockFreeStreamHandle18acquire_ask_permit0Cs4r4m1QEivDF_20typed_tls_end_to_end
FN:1823,_RNCNvMsf_NtCscNmhOS6QYVL_12kameo_remote15connection_poolNtB7_20LockFreeStreamHandle23write_pooled_ask_inline0Cs4r4m1QEivDF_20typed_tls_end_to_end
FN:1785,_RNCNvMsf_NtCscNmhOS6QYVL_12kameo_remote15connection_poolNtB7_20LockFreeStreamHandle27write_pooled_control_inline0Cs4r4m1QEivDF_20typed_tls_end_to_end
FN:2363,_RNCNvMsi_NtCscNmhOS6QYVL_12kameo_remote15connection_poolNtB7_11TellMessage8send_via0Cs4r4m1QEivDF_20typed_tls_end_to_end
FN:2571,_RNCNvMsr_NtCscNmhOS6QYVL_12kameo_remote15connection_poolNtB7_18CorrelationTracker17wait_for_response0Cs4r4m1QEivDF_20typed_tls_end_to_end
FN:3039,_RNCNvMsv_NtCscNmhOS6QYVL_12kameo_remote15connection_poolNtB7_16ConnectionHandle10tell_batch0Cs4r4m1QEivDF_20typed_tls_end_to_end
FN:3145,_RNCNvMsv_NtCscNmhOS6QYVL_12kameo_remote15connection_poolNtB7_16ConnectionHandle23ask_with_timeout_pooled0Cs4r4m1QEivDF_20typed_tls_end_to_end
FN:2923,_RNCNvMsv_NtCscNmhOS6QYVL_12kameo_remote15connection_poolNtB7_16ConnectionHandle8tell_raw0Cs4r4m1QEivDF_20typed_tls_end_to_end
FN:4280,_RNCNvMsw_NtCscNmhOS6QYVL_12kameo_remote15connection_poolNtB7_14ConnectionPool22get_connection_to_peer0Cs4r4m1QEivDF_20typed_tls_end_to_end
FN:1704,_RNvMsf_NtCscNmhOS6QYVL_12kameo_remote15connection_poolNtB5_20LockFreeStreamHandle19write_bytes_controlCs4r4m1QEivDF_20typed_tls_end_to_end
FNDA:0,_RNvMsf_NtCscNmhOS6QYVL_12kameo_remote15connection_poolNtB5_20LockFreeStreamHandle19write_bytes_controlCsa8O6w5083kA_20ask_reply_end_to_end
FNDA:0,_RINvMsv_NtCscNmhOS6QYVL_12kameo_remote15connection_poolNtB6_16ConnectionHandle4tellRShECsa8O6w5083kA_20ask_reply_end_to_end
FNDA:0,_RNCINvMsv_NtCscNmhOS6QYVL_12kameo_remote15connection_poolNtB8_16ConnectionHandle4tellRShE0Csa8O6w5083kA_20ask_reply_end_to_end
FNDA:0,_RNCNCNvMsv_NtCscNmhOS6QYVL_12kameo_remote15connection_poolNtB9_16ConnectionHandle10tell_batch00Csa8O6w5083kA_20ask_reply_end_to_end
FNDA:0,_RNCNCNvMsw_NtCscNmhOS6QYVL_12kameo_remote15connection_poolNtB9_14ConnectionPool22get_connection_to_peer00Csa8O6w5083kA_20ask_reply_end_to_end
FNDA:112,_RNCNvMsf_NtCscNmhOS6QYVL_12kameo_remote15connection_poolNtB7_20LockFreeStreamHandle18acquire_ask_permit0Csa8O6w5083kA_20ask_reply_end_to_end
FNDA:0,_RNCNvMsf_NtCscNmhOS6QYVL_12kameo_remote15connection_poolNtB7_20LockFreeStreamHandle26stream_large_message_zoned0Csa8O6w5083kA_20ask_reply_end_to_end
FNDA:0,_RNCNvMsf_NtCscNmhOS6QYVL_12kameo_remote15connection_poolNtB7_20LockFreeStreamHandle29stream_large_message_internal0Csa8O6w5083kA_20ask_reply_end_to_end
FNDA:0,_RNCNvMsf_NtCscNmhOS6QYVL_12kameo_remote15connection_poolNtB7_20LockFreeStreamHandle35stream_large_message_internal_bytes0Csa8O6w5083kA_20ask_reply_end_to_end
FNDA:112,_RNCNvMsf_NtCscNmhOS6QYVL_12kameo_remote15connection_poolNtB7_20LockFreeStreamHandle35write_header_and_payload_ask_inline0Csa8O6w5083kA_20ask_reply_end_to_end
FNDA:0,_RNCNvMsf_NtCscNmhOS6QYVL_12kameo_remote15connection_poolNtB7_20LockFreeStreamHandle37stream_large_message_with_correlation0Csa8O6w5083kA_20ask_reply_end_to_end
FNDA:0,_RNCNvMsi_NtCscNmhOS6QYVL_12kameo_remote15connection_poolNtB7_11TellMessage8send_via0Csa8O6w5083kA_20ask_reply_end_to_end
FNDA:112,_RNCNvMsr_NtCscNmhOS6QYVL_12kameo_remote15connection_poolNtB7_18CorrelationTracker17wait_for_response0Csa8O6w5083kA_20ask_reply_end_to_end
FNDA:0,_RNCNvMsv_NtCscNmhOS6QYVL_12kameo_remote15connection_poolNtB7_16ConnectionHandle10tell_batch0Csa8O6w5083kA_20ask_reply_end_to_end
FNDA:0,_RNCNvMsv_NtCscNmhOS6QYVL_12kameo_remote15connection_poolNtB7_16ConnectionHandle13ask_streaming0Csa8O6w5083kA_20ask_reply_end_to_end
FNDA:112,_RNCNvMsv_NtCscNmhOS6QYVL_12kameo_remote15connection_poolNtB7_16ConnectionHandle16ask_with_timeout0Csa8O6w5083kA_20ask_reply_end_to_end
FNDA:112,_RNCNvMsv_NtCscNmhOS6QYVL_12kameo_remote15connection_poolNtB7_16ConnectionHandle3ask0Csa8O6w5083kA_20ask_reply_end_to_end
FNDA:0,_RNCNvMsv_NtCscNmhOS6QYVL_12kameo_remote15connection_poolNtB7_16ConnectionHandle8tell_raw0Csa8O6w5083kA_20ask_reply_end_to_end
FNDA:6,_RNCNvMsw_NtCscNmhOS6QYVL_12kameo_remote15connection_poolNtB7_14ConnectionPool22get_connection_to_peer0Csa8O6w5083kA_20ask_reply_end_to_end
FNDA:174,_RNvMNtCscNmhOS6QYVL_12kameo_remote15connection_poolNtB2_11TaskTracker10set_reader
FNDA:347,_RNvMNtCscNmhOS6QYVL_12kameo_remote15connection_poolNtB2_11TaskTracker10set_writer
FNDA:214,_RNvMNtCscNmhOS6QYVL_12kameo_remote15connection_poolNtB2_11TaskTracker12abort_reader
FNDA:0,_RNvMNtCscNmhOS6QYVL_12kameo_remote15connection_poolNtB2_11TaskTracker12abort_writer
FNDA:0,_RNvMNtCscNmhOS6QYVL_12kameo_remote15connection_poolNtB2_11TaskTracker13detach_reader
FNDA:214,_RNvMNtCscNmhOS6QYVL_12kameo_remote15connection_poolNtB2_11TaskTracker13detach_writer
FNDA:347,_RNvMNtCscNmhOS6QYVL_12kameo_remote15connection_poolNtB2_11TaskTracker3new
FNDA:347,_RNvMNtCscNmhOS6QYVL_12kameo_remote15connection_poolNtB2_11TaskTracker9abort_all
FNDA:0,_RNvMs0_NtCscNmhOS6QYVL_12kameo_remote15connection_poolNtB5_12BufferConfig11from_master
FNDA:0,_RNvMs0_NtCscNmhOS6QYVL_12kameo_remote15connection_poolNtB5_12BufferConfig15tcp_buffer_size
FNDA:905,_RNvMs0_NtCscNmhOS6QYVL_12kameo_remote15connection_poolNtB5_12BufferConfig17ring_buffer_slots
FNDA:351,_RNvMs0_NtCscNmhOS6QYVL_12kameo_remote15connection_poolNtB5_12BufferConfig18ask_inflight_limit
FNDA:0,_RNvMs0_NtCscNmhOS6QYVL_12kameo_remote15connection_poolNtB5_12BufferConfig19streaming_threshold
FNDA:347,_RNvMs0_NtCscNmhOS6QYVL_12kameo_remote15connection_poolNtB5_12BufferConfig23with_ask_inflight_limit
FNDA:0,_RNvMs0_NtCscNmhOS6QYVL_12kameo_remote15connection_poolNtB5_12BufferConfig3new
FNDA:0,_RNvMs4_NtCscNmhOS6QYVL_12kameo_remote15connection_poolNtB5_18LockFreeConnection11abort_tasks
FNDA:9088,_RNvMs4_NtCscNmhOS6QYVL_12kameo_remote15connection_poolNtB5_18LockFreeConnection12is_connected
FNDA:0,_RNvMs4_NtCscNmhOS6QYVL_12kameo_remote15connection_poolNtB5_18LockFreeConnection13try_set_state
FNDA:1848,_RNvMs4_NtCscNmhOS6QYVL_12kameo_remote15connection_poolNtB5_18LockFreeConnection16update_last_used
FNDA:0,_RNvMs4_NtCscNmhOS6QYVL_12kameo_remote15connection_poolNtB5_18LockFreeConnection19reset_failure_count
FNDA:0,_RNvMs4_NtCscNmhOS6QYVL_12kameo_remote15connection_poolNtB5_18LockFreeConnection23increment_failure_count
FNDA:214,_RNvMs4_NtCscNmhOS6QYVL_12kameo_remote15connection_poolNtB5_18LockFreeConnection25shutdown_tasks_gracefully
FNDA:347,_RNvMs4_NtCscNmhOS6QYVL_12kameo_remote15connection_poolNtB5_18LockFreeConnection3new
FNDA:9090,_RNvMs4_NtCscNmhOS6QYVL_12kameo_remote15connection_poolNtB5_18LockFreeConnection9get_state
FNDA:0,_RNvMs4_NtCscNmhOS6QYVL_12kameo_remote15connection_poolNtB5_18LockFreeConnection9is_failed
FNDA:387,_RNvMs4_NtCscNmhOS6QYVL_12kameo_remote15connection_poolNtB5_18LockFreeConnection9set_state
FNDA:1540,_RNvMsd_NtCscNmhOS6QYVL_12kameo_remote15connection_poolNtB5_17MessageBufferPool10get_buffer
FNDA:0,_RNvMsd_NtCscNmhOS6QYVL_12kameo_remote15connection_poolNtB5_17MessageBufferPool13return_buffer
FNDA:0,_RNvMsd_NtCscNmhOS6QYVL_12kameo_remote15connection_poolNtB5_17MessageBufferPool15available_count
FNDA:146,_RNvMsd_NtCscNmhOS6QYVL_12kameo_remote15connection_poolNtB5_17MessageBufferPool3new
FNDA:0,_RNvMsd_NtCscNmhOS6QYVL_12kameo_remote15connection_poolNtB5_17MessageBufferPool8is_empty
FNDA:0,_RNvMse_NtCscNmhOS6QYVL_12kameo_remote15connection_poolNtB5_18LockFreeRingBuffer11utilization
FNDA:9426,_RNvMse_NtCscNmhOS6QYVL_12kameo_remote15connection_poolNtB5_18LockFreeRingBuffer13pending_count
FNDA:0,_RNvMse_NtCscNmhOS6QYVL_12kameo_remote15connection_poolNtB5_18LockFreeRingBuffer14is_nearly_full
FNDA:351,_RNvMse_NtCscNmhOS6QYVL_12kameo_remote15connection_poolNtB5_18LockFreeRingBuffer3new
FNDA:28833,_RNvMse_NtCscNmhOS6QYVL_12kameo_remote15connection_poolNtB5_18LockFreeRingBuffer7try_pop
FNDA:19681,_RNvMse_NtCscNmhOS6QYVL_12kameo_remote15connection_poolNtB5_18LockFreeRingBuffer8try_push
FNDA:0,_RNvMsf_NtCscNmhOS6QYVL_12kameo_remote15connection_poolNtB5_20LockFreeStreamHandle10channel_id
FNDA:0,_RNvMsf_NtCscNmhOS6QYVL_12kameo_remote15connection_poolNtB5_20LockFreeStreamHandle13buffer_status
FNDA:0,_RNvMsf_NtCscNmhOS6QYVL_12kameo_remote15connection_poolNtB5_20LockFreeStreamHandle13bytes_written
FNDA:0,_RNvMsf_NtCscNmhOS6QYVL_12kameo_remote15connection_poolNtB5_20LockFreeStreamHandle14is_buffer_full
FNDA:0,_RNvMsf_NtCscNmhOS6QYVL_12kameo_remote15connection_poolNtB5_20LockFreeStreamHandle15sequence_number
FNDA:0,_RNvMsf_NtCscNmhOS6QYVL_12kameo_remote15connection_poolNtB5_20LockFreeStreamHandle16write_pooled_ask
FNDA:0,_RNvMsf_NtCscNmhOS6QYVL_12kameo_remote15connection_poolNtB5_20LockFreeStreamHandle17flush_immediately
FNDA:8479,_RNvMsf_NtCscNmhOS6QYVL_12kameo_remote15connection_poolNtB5_20LockFreeStreamHandle18acquire_ask_permit
FNDA:0,_RNvMsf_NtCscNmhOS6QYVL_12kameo_remote15connection_poolNtB5_20LockFreeStreamHandle18write_owned_chunks
FNDA:18076,_RNvMsf_NtCscNmhOS6QYVL_12kameo_remote15connection_poolNtB5_20LockFreeStreamHandle19enqueue_with_permit
FNDA:0,_RNvMsf_NtCscNmhOS6QYVL_12kameo_remote15connection_poolNtB5_20LockFreeStreamHandle19streaming_threshold
FNDA:19681,_RNvMsf_NtCscNmhOS6QYVL_12kameo_remote15connection_poolNtB5_20LockFreeStreamHandle19wake_writer_if_idle
FNDA:210,_RNvMsf_NtCscNmhOS6QYVL_12kameo_remote15connection_poolNtB5_20LockFreeStreamHandle19write_bytes_controlB7_
FNDA:0,_RNvMsf_NtCscNmhOS6QYVL_12kameo_remote15connection_poolNtB5_20LockFreeStreamHandle20stream_large_message
FNDA:0,_RNvMsf_NtCscNmhOS6QYVL_12kameo_remote15connection_poolNtB5_20LockFreeStreamHandle20write_bytes_vectored
FNDA:0,_RNvMsf_NtCscNmhOS6QYVL_12kameo_remote15connection_poolNtB5_20LockFreeStreamHandle20write_pooled_control
FNDA:9597,_RNvMsf_NtCscNmhOS6QYVL_12kameo_remote15connection_poolNtB5_20LockFreeStreamHandle22acquire_control_permit
FNDA:0,_RNvMsf_NtCscNmhOS6QYVL_12kameo_remote15connection_poolNtB5_20LockFreeStreamHandle22next_frame_sequence_id
FNDA:1493,_RNvMsf_NtCscNmhOS6QYVL_12kameo_remote15connection_poolNtB5_20LockFreeStreamHandle23write_bytes_nonblocking
FNDA:1,_RNvMsf_NtCscNmhOS6QYVL_12kameo_remote15connection_poolNtB5_20LockFreeStreamHandle23write_pooled_ask_inline
FNDA:0,_RNvMsf_NtCscNmhOS6QYVL_12kameo_remote15connection_poolNtB5_20LockFreeStreamHandle25write_chunked_nonblocking
FNDA:0,_RNvMsf_NtCscNmhOS6QYVL_12kameo_remote15connection_poolNtB5_20LockFreeStreamHandle26stream_large_message_bytes
FNDA:0,_RNvMsf_NtCscNmhOS6QYVL_12kameo_remote15connection_poolNtB5_20LockFreeStreamHandle26stream_large_message_zoned
FNDA:0,_RNvMsf_NtCscNmhOS6QYVL_12kameo_remote15connection_poolNtB5_20LockFreeStreamHandle26write_vectored_nonblocking
FNDA:2,_RNvMsf_NtCscNmhOS6QYVL_12kameo_remote15connection_poolNtB5_20LockFreeStreamHandle27write_pooled_control_inline
FNDA:5048,_RNvMsf_NtCscNmhOS6QYVL_12kameo_remote15connection_poolNtB5_20LockFreeStreamHandle28write_header_and_payload_ask
FNDA:0,_RNvMsf_NtCscNmhOS6QYVL_12kameo_remote15connection_poolNtB5_20LockFreeStreamHandle29stream_large_message_internal
FNDA:0,_RNvMsf_NtCscNmhOS6QYVL_12kameo_remote15connection_poolNtB5_20LockFreeStreamHandle31write_bytes_nonblocking_checked
FNDA:3048,_RNvMsf_NtCscNmhOS6QYVL_12kameo_remote15connection_poolNtB5_20LockFreeStreamHandle32write_header_and_payload_control
FNDA:0,_RNvMsf_NtCscNmhOS6QYVL_12kameo_remote15connection_poolNtB5_20LockFreeStreamHandle35stream_large_message_internal_bytes
FNDA:2420,_RNvMsf_NtCscNmhOS6QYVL_12kameo_remote15connection_poolNtB5_20LockFreeStreamHandle35write_header_and_payload_ask_inline
FNDA:0,_RNvMsf_NtCscNmhOS6QYVL_12kameo_remote15connection_poolNtB5_20LockFreeStreamHandle36write_header_and_payload_nonblocking
FNDA:0,_RNvMsf_NtCscNmhOS6QYVL_12kameo_remote15connection_poolNtB5_20LockFreeStreamHandle37stream_large_message_with_correlation
FNDA:2535,_RNvMsf_NtCscNmhOS6QYVL_12kameo_remote15connection_poolNtB5_20LockFreeStreamHandle39write_header_and_payload_control_inline
FNDA:0,_RNvMsf_NtCscNmhOS6QYVL_12kameo_remote15connection_poolNtB5_20LockFreeStreamHandle43stream_large_message_with_correlation_bytes
FNDA:112,_RNvMsf_NtCscNmhOS6QYVL_12kameo_remote15connection_poolNtB5_20LockFreeStreamHandle43write_header_and_payload_nonblocking_inline
FNDA:0,_RNvMsf_NtCscNmhOS6QYVL_12kameo_remote15connection_poolNtB5_20LockFreeStreamHandle44write_header_and_payload_nonblocking_checked
FNDA:0,_RNvMsf_NtCscNmhOS6QYVL_12kameo_remote15connection_poolNtB5_20LockFreeStreamHandle4addr
FNDA:304,_RNvMsf_NtCscNmhOS6QYVL_12kameo_remote15connection_poolNtB5_20LockFreeStreamHandle8shutdown
FNDA:0,_RNvMsi_NtCscNmhOS6QYVL_12kameo_remote15connection_poolNtB5_11TellMessage10from_slice
FNDA:28,_RNvMsi_NtCscNmhOS6QYVL_12kameo_remote15connection_poolNtB5_11TellMessage5batch
FNDA:0,_RNvMsi_NtCscNmhOS6QYVL_12kameo_remote15connection_poolNtB5_11TellMessage6single
FNDA:3802,_RNvMsi_NtCscNmhOS6QYVL_12kameo_remote15connection_poolNtB5_11TellMessage8send_via
FNDA:2646,_RNvMsr_NtCscNmhOS6QYVL_12kameo_remote15connection_poolNtB5_18CorrelationTracker11has_pending
FNDA:5292,_RNvMsr_NtCscNmhOS6QYVL_12kameo_remote15connection_poolNtB5_18CorrelationTracker13take_response
FNDA:2646,_RNvMsr_NtCscNmhOS6QYVL_12kameo_remote15connection_poolNtB5_18CorrelationTracker17wait_for_response
FNDA:521,_RNvMsr_NtCscNmhOS6QYVL_12kameo_remote15connection_poolNtB5_18CorrelationTracker3new
FNDA:0,_RNvMsr_NtCscNmhOS6QYVL_12kameo_remote15connection_poolNtB5_18CorrelationTracker6cancel
FNDA:2647,_RNvMsr_NtCscNmhOS6QYVL_12kameo_remote15connection_poolNtB5_18CorrelationTracker8allocate
FNDA:2646,_RNvMsr_NtCscNmhOS6QYVL_12kameo_remote15connection_poolNtB5_18CorrelationTracker8complete
FNDA:0,_RNvMst_NtCscNmhOS6QYVL_12kameo_remote15connection_poolNtB5_20DelegatedReplySender11reply_error
FNDA:0,_RNvMst_NtCscNmhOS6QYVL_12kameo_remote15connection_poolNtB5_20DelegatedReplySender11request_len
FNDA:2,_RNvMst_NtCscNmhOS6QYVL_12kameo_remote15connection_poolNtB5_20DelegatedReplySender12is_timed_out
FNDA:0,_RNvMst_NtCscNmhOS6QYVL_12kameo_remote15connection_poolNtB5_20DelegatedReplySender14wait_for_reply
FNDA:1,_RNvMst_NtCscNmhOS6QYVL_12kameo_remote15connection_poolNtB5_20DelegatedReplySender16new_with_timeout
FNDA:1,_RNvMst_NtCscNmhOS6QYVL_12kameo_remote15connection_poolNtB5_20DelegatedReplySender17create_mock_reply
FNDA:0,_RNvMst_NtCscNmhOS6QYVL_12kameo_remote15connection_poolNtB5_20DelegatedReplySender27wait_for_reply_with_timeout
FNDA:1,_RNvMst_NtCscNmhOS6QYVL_12kameo_remote15connection_poolNtB5_20DelegatedReplySender3new
FNDA:0,_RNvMst_NtCscNmhOS6QYVL_12kameo_remote15connection_poolNtB5_20DelegatedReplySender5reply
FNDA:2,_RNvMst_NtCscNmhOS6QYVL_12kameo_remote15connection_poolNtB5_20DelegatedReplySender7elapsed
FNDA:28,_RNvMsv_NtCscNmhOS6QYVL_12kameo_remote15connection_poolNtB5_16ConnectionHandle10tell_batch
FNDA:0,_RNvMsv_NtCscNmhOS6QYVL_12kameo_remote15connection_poolNtB5_16ConnectionHandle10tell_bytes
FNDA:0,_RNvMsv_NtCscNmhOS6QYVL_12kameo_remote15connection_poolNtB5_16ConnectionHandle13ask_streaming
FNDA:0,_RNvMsv_NtCscNmhOS6QYVL_12kameo_remote15connection_poolNtB5_16ConnectionHandle13send_messages
FNDA:0,_RNvMsv_NtCscNmhOS6QYVL_12kameo_remote15connection_poolNtB5_16ConnectionHandle14send_raw_bytes
FNDA:0,_RNvMsv_NtCscNmhOS6QYVL_12kameo_remote15connection_poolNtB5_16ConnectionHandle15try_send_direct
FNDA:2420,_RNvMsv_NtCscNmhOS6QYVL_12kameo_remote15connection_poolNtB5_16ConnectionHandle16ask_with_timeout
FNDA:1,_RNvMsv_NtCscNmhOS6QYVL_12kameo_remote15connection_poolNtB5_16ConnectionHandle17ask_with_reply_to
FNDA:0,_RNvMsv_NtCscNmhOS6QYVL_12kameo_remote15connection_poolNtB5_16ConnectionHandle17send_tell_message
FNDA:0,_RNvMsv_NtCscNmhOS6QYVL_12kameo_remote15connection_poolNtB5_16ConnectionHandle18write_owned_chunks
FNDA:0,_RNvMsv_NtCscNmhOS6QYVL_12kameo_remote15connection_poolNtB5_16ConnectionHandle19ask_batch_optimized
FNDA:0,_RNvMsv_NtCscNmhOS6QYVL_12kameo_remote15connection_poolNtB5_16ConnectionHandle19ask_streaming_bytes
FNDA:0,_RNvMsv_NtCscNmhOS6QYVL_12kameo_remote15connection_poolNtB5_16ConnectionHandle19ensure_streaming_v2
FNDA:0,_RNvMsv_NtCscNmhOS6QYVL_12kameo_remote15connection_poolNtB5_16ConnectionHandle19send_binary_message
FNDA:1,_RNvMsv_NtCscNmhOS6QYVL_12kameo_remote15connection_poolNtB5_16ConnectionHandle19send_response_bytes
FNDA:0,_RNvMsv_NtCscNmhOS6QYVL_12kameo_remote15connection_poolNtB5_16ConnectionHandle19streaming_threshold
FNDA:0,_RNvMsv_NtCscNmhOS6QYVL_12kameo_remote15connection_poolNtB5_16ConnectionHandle20get_lock_free_stream
FNDA:0,_RNvMsv_NtCscNmhOS6QYVL_12kameo_remote15connection_poolNtB5_16ConnectionHandle20send_bytes_zero_copy
FNDA:0,_RNvMsv_NtCscNmhOS6QYVL_12kameo_remote15connection_poolNtB5_16ConnectionHandle20send_response_pooled
FNDA:0,_RNvMsv_NtCscNmhOS6QYVL_12kameo_remote15connection_poolNtB5_16ConnectionHandle20stream_large_message
FNDA:0,_RNvMsv_NtCscNmhOS6QYVL_12kameo_remote15connection_poolNtB5_16ConnectionHandle20write_bytes_vectored
FNDA:1,_RNvMsv_NtCscNmhOS6QYVL_12kameo_remote15connection_poolNtB5_16ConnectionHandle21ask_with_reply_sender
FNDA:2,_RNvMsv_NtCscNmhOS6QYVL_12kameo_remote15connection_poolNtB5_16ConnectionHandle22ask_batch_with_timeout
FNDA:1,_RNvMsv_NtCscNmhOS6QYVL_12kameo_remote15connection_poolNtB5_16ConnectionHandle23ask_with_timeout_pooled
FNDA:1,_RNvMsv_NtCscNmhOS6QYVL_12kameo_remote15connection_poolNtB5_16ConnectionHandle26ask_with_timeout_and_reply
FNDA:0,_RNvMsv_NtCscNmhOS6QYVL_12kameo_remote15connection_poolNtB5_16ConnectionHandle26peer_supports_streaming_v2
FNDA:2420,_RNvMsv_NtCscNmhOS6QYVL_12kameo_remote15connection_poolNtB5_16ConnectionHandle3ask
FNDA:0,_RNvMsv_NtCscNmhOS6QYVL_12kameo_remote15connection_poolNtB5_16ConnectionHandle8send_raw
FNDA:3774,_RNvMsv_NtCscNmhOS6QYVL_12kameo_remote15connection_poolNtB5_16ConnectionHandle8tell_raw
FNDA:9,_RNvMsv_NtCscNmhOS6QYVL_12kameo_remote15connection_poolNtB5_16ConnectionHandle9ask_batch
FNDA:210,_RNvMsv_NtCscNmhOS6QYVL_12kameo_remote15connection_poolNtB5_16ConnectionHandle9send_data
FNDA:0,_RNvMsv_NtCscNmhOS6QYVL_12kameo_remote15connection_poolNtB5_16ConnectionHandle9tell_auto
FNDA:1540,_RNvMsw_NtCscNmhOS6QYVL_12kameo_remote15connection_poolNtB5_14ConnectionPool10get_buffer
FNDA:0,_RNvMsw_NtCscNmhOS6QYVL_12kameo_remote15connection_poolNtB5_14ConnectionPool12send_to_node
FNDA:131,_RNvMsw_NtCscNmhOS6QYVL_12kameo_remote15connection_poolNtB5_14ConnectionPool12set_registry
FNDA:0,_RNvMsw_NtCscNmhOS6QYVL_12kameo_remote15connection_poolNtB5_14ConnectionPool13return_buffer
FNDA:2017,_RNvMsw_NtCscNmhOS6QYVL_12kameo_remote15connection_poolNtB5_14ConnectionPool14get_connection
FNDA:423,_RNvMsw_NtCscNmhOS6QYVL_12kameo_remote15connection_poolNtB5_14ConnectionPool14has_connection
FNDA:42,_RNvMsw_NtCscNmhOS6QYVL_12kameo_remote15connection_poolNtB5_14ConnectionPool14send_lock_free
FNDA:0,_RNvMsw_NtCscNmhOS6QYVL_12kameo_remote15connection_poolNtB5_14ConnectionPool15send_to_peer_id
FNDA:7,_RNvMsw_NtCscNmhOS6QYVL_12kameo_remote15connection_poolNtB5_14ConnectionPool16connection_count
FNDA:0,_RNvMsw_NtCscNmhOS6QYVL_12kameo_remote15connection_poolNtB5_14ConnectionPool17mark_disconnected
FNDA:5,_RNvMsw_NtCscNmhOS6QYVL_12kameo_remote15connection_poolNtB5_14ConnectionPool17remove_connection
FNDA:0,_RNvMsw_NtCscNmhOS6QYVL_12kameo_remote15connection_poolNtB5_14ConnectionPool18get_message_buffer
FNDA:54,_RNvMsw_NtCscNmhOS6QYVL_12kameo_remote15connection_poolNtB5_14ConnectionPool19add_addr_to_peer_id
FNDA:0,_RNvMsw_NtCscNmhOS6QYVL_12kameo_remote15connection_poolNtB5_14ConnectionPool19get_all_connections
FNDA:0,_RNvMsw_NtCscNmhOS6QYVL_12kameo_remote15connection_poolNtB5_14ConnectionPool19get_connected_peers
FNDA:35,_RNvMsw_NtCscNmhOS6QYVL_12kameo_remote15connection_poolNtB5_14ConnectionPool19get_peer_id_by_addr
FNDA:0,_RNvMsw_NtCscNmhOS6QYVL_12kameo_remote15connection_poolNtB5_14ConnectionPool19update_node_address
FNDA:0,_RNvMsw_NtCscNmhOS6QYVL_12kameo_remote15connection_poolNtB5_14ConnectionPool20send_lock_free_parts
FNDA:110,_RNvMsw_NtCscNmhOS6QYVL_12kameo_remote15connection_poolNtB5_14ConnectionPool21close_all_connections
FNDA:1540,_RNvMsw_NtCscNmhOS6QYVL_12kameo_remote15connection_poolNtB5_14ConnectionPool21create_message_buffer
FNDA:0,_RNvMsw_NtCscNmhOS6QYVL_12kameo_remote15connection_poolNtB5_14ConnectionPool21remove_connection_mut
FNDA:0,_RNvMsw_NtCscNmhOS6QYVL_12kameo_remote15connection_poolNtB5_14ConnectionPool21return_message_buffer
FNDA:1469,_RNvMsw_NtCscNmhOS6QYVL_12kameo_remote15connection_poolNtB5_14ConnectionPool21send_bytes_to_peer_id
FNDA:5180,_RNvMsw_NtCscNmhOS6QYVL_12kameo_remote15connection_poolNtB5_14ConnectionPool22get_connection_by_addr
FNDA:77,_RNvMsw_NtCscNmhOS6QYVL_12kameo_remote15connection_poolNtB5_14ConnectionPool22get_connection_to_peer
FNDA:0,_RNvMsw_NtCscNmhOS6QYVL_12kameo_remote15connection_poolNtB5_14ConnectionPool23check_connection_health
FNDA:0,_RNvMsw_NtCscNmhOS6QYVL_12kameo_remote15connection_poolNtB5_14ConnectionPool23get_existing_connection
FNDA:1510,_RNvMsw_NtCscNmhOS6QYVL_12kameo_remote15connection_poolNtB5_14ConnectionPool23reindex_connection_addr
FNDA:0,_RNvMsw_NtCscNmhOS6QYVL_12kameo_remote15connection_poolNtB5_14ConnectionPool24add_lock_free_connection
FNDA:154,_RNvMsw_NtCscNmhOS6QYVL_12kameo_remote15connection_poolNtB5_14ConnectionPool24get_lock_free_connection
FNDA:54,_RNvMsw_NtCscNmhOS6QYVL_12kameo_remote15connection_poolNtB5_14ConnectionPool24index_connection_by_addr
FNDA:155,_RNvMsw_NtCscNmhOS6QYVL_12kameo_remote15connection_poolNtB5_14ConnectionPool25add_connection_by_peer_id
FNDA:255,_RNvMsw_NtCscNmhOS6QYVL_12kameo_remote15connection_poolNtB5_14ConnectionPool25cleanup_stale_connections
FNDA:2041,_RNvMsw_NtCscNmhOS6QYVL_12kameo_remote15connection_poolNtB5_14ConnectionPool25get_connection_by_peer_id
FNDA:172,_RNvMsw_NtCscNmhOS6QYVL_12kameo_remote15connection_poolNtB5_14ConnectionPool25has_connection_by_peer_id
FNDA:347,_RNvMsw_NtCscNmhOS6QYVL_12kameo_remote15connection_poolNtB5_14ConnectionPool27clear_capabilities_for_addr
FNDA:2075,_RNvMsw_NtCscNmhOS6QYVL_12kameo_remote15connection_poolNtB5_14ConnectionPool27get_connection_with_node_id
FNDA:112,_RNvMsw_NtCscNmhOS6QYVL_12kameo_remote15connection_poolNtB5_14ConnectionPool27send_lock_free_parts_inline
FNDA:0,_RNvMsw_NtCscNmhOS6QYVL_12kameo_remote15connection_poolNtB5_14ConnectionPool28deliver_streaming_completion
FNDA:0,_RNvMsw_NtCscNmhOS6QYVL_12kameo_remote15connection_poolNtB5_14ConnectionPool30get_shared_correlation_tracker
FNDA:209,_RNvMsw_NtCscNmhOS6QYVL_12kameo_remote15connection_poolNtB5_14ConnectionPool32disconnect_connection_by_peer_id
FNDA:59,_RNvMsw_NtCscNmhOS6QYVL_12kameo_remote15connection_poolNtB5_14ConnectionPool33get_or_create_correlation_tracker
FNDA:0,_RNvMsw_NtCscNmhOS6QYVL_12kameo_remote15connection_poolNtB5_14ConnectionPool35handle_persistent_connection_reader
FNDA:146,_RNvMsw_NtCscNmhOS6QYVL_12kameo_remote15connection_poolNtB5_14ConnectionPool3new
FNDA:9426,_RNvNtCscNmhOS6QYVL_12kameo_remote15connection_pool12should_flush
FNDA:0,_RNvNtCscNmhOS6QYVL_12kameo_remote15connection_pool16archived_node_id
FNDA:2954,_RNvNtCscNmhOS6QYVL_12kameo_remote15connection_pool16archived_peer_id
FNDA:2917,_RNvNtCscNmhOS6QYVL_12kameo_remote15connection_pool19archived_option_str
FNDA:2307,_RNvNtCscNmhOS6QYVL_12kameo_remote15connection_pool20process_mock_request
FNDA:3448,_RNvNtCscNmhOS6QYVL_12kameo_remote15connection_pool21registry_message_kind
FNDA:351,_RNvNtCscNmhOS6QYVL_12kameo_remote15connection_pool22control_reserved_slots
FNDA:3448,_RNvNtCscNmhOS6QYVL_12kameo_remote15connection_pool23handle_incoming_message
FNDA:501,_RNvNtCscNmhOS6QYVL_12kameo_remote15connection_pool23resolve_peer_state_addr
FNDA:2533,_RNvNtCscNmhOS6QYVL_12kameo_remote15connection_pool28process_mock_request_payload
FNDA:1,_RNvNtCscNmhOS6QYVL_12kameo_remote15connection_pool29compare_archived_vector_clock
FNDA:69,_RNvNtCscNmhOS6QYVL_12kameo_remote15connection_pool30archived_priority_is_immediate
FNDA:5834,_RNvNtCscNmhOS6QYVL_12kameo_remote15connection_pool31collect_actor_map_from_archived
FNDA:1,_RNvNtCscNmhOS6QYVL_12kameo_remote15connection_pool32peer_health_status_from_archived
FNDA:351,_RNvXs1_NtCscNmhOS6QYVL_12kameo_remote15connection_poolNtB5_12BufferConfigNtNtCs85QQFkKrybG_4core7default7Default7default
FNDA:9090,_RNvXs2_NtCscNmhOS6QYVL_12kameo_remote15connection_poolNtB5_15ConnectionStateINtNtCs85QQFkKrybG_4core7convert4FrommE4from
FNDA:0,_RNvXs3_NtCscNmhOS6QYVL_12kameo_remote15connection_poolNtB5_18LockFreeConnectionNtNtCs85QQFkKrybG_4core5clone5Clone5clone
FNDA:0,_RNvXs5_NtCscNmhOS6QYVL_12kameo_remote15connection_poolNtB5_12WritePayloadNtNtCs85QQFkKrybG_4core3fmt5Debug3fmt
FNDA:0,_RNvXs8_NtCscNmhOS6QYVL_12kameo_remote15connection_poolNtB5_12WriteCommandNtNtCs85QQFkKrybG_4core3fmt5Debug3fmt
FNDA:0,_RNvXsh_NtCscNmhOS6QYVL_12kameo_remote15connection_poolNtB5_20LockFreeStreamHandleNtNtCs85QQFkKrybG_4core3fmt5Debug3fmt
FNDA:2664,_RNvXsj_NtCscNmhOS6QYVL_12kameo_remote15connection_poolNtB5_11TellMessageINtNtCs85QQFkKrybG_4core7convert4FromRShE4from
FNDA:0,_RNvXsk_NtCscNmhOS6QYVL_12kameo_remote15connection_poolNtB5_11TellMessageINtNtCs85QQFkKrybG_4core7convert4FromINtNtCsdFlNUEO95cG_5alloc3vec3VecRShEE4from
FNDA:0,_RNvXsl_NtCscNmhOS6QYVL_12kameo_remote15connection_poolNtB5_11TellMessageINtNtCs85QQFkKrybG_4core7convert4FromRSRShE4from
FNDA:1010,_RNvXsn_NtCscNmhOS6QYVL_12kameo_remote15connection_poolNtB5_11TellMessageINtNtCs85QQFkKrybG_4core7convert4FromRINtNtCsdFlNUEO95cG_5alloc3vec3VechEE4from
FNDA:0,_RNvXsq_NtCscNmhOS6QYVL_12kameo_remote15connection_poolNtB5_18CorrelationTrackerNtNtCs85QQFkKrybG_4core3fmt5Debug3fmt
FNDA:0,_RNvXss_NtCscNmhOS6QYVL_12kameo_remote15connection_poolNtB5_16ConnectionHandleNtNtCs85QQFkKrybG_4core3fmt5Debug3fmt
FNDA:2,_RNvXsu_NtCscNmhOS6QYVL_12kameo_remote15connection_poolNtB5_20DelegatedReplySenderNtNtCs85QQFkKrybG_4core3fmt5Debug3fmt
FNDA:334,_RINvMsf_NtCscNmhOS6QYVL_12kameo_remote15connection_poolNtB6_20LockFreeStreamHandle22background_writer_taskINtNtCs85QQFkKrybG_4core3pin3PinINtNtCsdFlNUEO95cG_5alloc5boxed3BoxDNtNtNtCsh4ISjvibZbV_5tokio2io11async_write10AsyncWriteNtNtB1L_6marker4SendEL_EEEB8_
FNDA:0,_RINvMsf_NtCscNmhOS6QYVL_12kameo_remote15connection_poolNtB6_20LockFreeStreamHandle22background_writer_taskNtNtNtNtCsh4ISjvibZbV_5tokio3net3tcp11split_owned14OwnedWriteHalfEB8_
FNDA:347,_RINvMsf_NtCscNmhOS6QYVL_12kameo_remote15connection_poolNtB6_20LockFreeStreamHandle3newINtNtCs85QQFkKrybG_4core3pin3PinINtNtCsdFlNUEO95cG_5alloc5boxed3BoxDNtNtNtCsh4ISjvibZbV_5tokio2io11async_write10AsyncWriteNtNtB1r_6marker4SendEL_EEEB8_
FNDA:0,_RINvMsf_NtCscNmhOS6QYVL_12kameo_remote15connection_poolNtB6_20LockFreeStreamHandle3newNtNtNtNtCsh4ISjvibZbV_5tokio3net3tcp11split_owned14OwnedWriteHalfEB8_
FNDA:0,_RINvMsw_NtCscNmhOS6QYVL_12kameo_remote15connection_poolNtB6_14ConnectionPool33process_reader_streaming_v2_frameINtNtCs85QQFkKrybG_4core3pin3PinINtNtCsdFlNUEO95cG_5alloc5boxed3BoxDNtNtNtCsh4ISjvibZbV_5tokio2io10async_read9AsyncReadNtNtB1Q_6marker4SendEL_EEEB8_
FNDA:0,_RINvNtCscNmhOS6QYVL_12kameo_remote15connection_pool24write_bytes_vectored_allINtNtNtNtCsh4ISjvibZbV_5tokio2io4util10buf_writer9BufWriterINtNtCs85QQFkKrybG_4core3pin3PinINtNtCsdFlNUEO95cG_5alloc5boxed3BoxDNtNtB1k_11async_write10AsyncWriteNtNtB2f_6marker4SendEL_EEEEB4_
FNDA:0,_RINvNtCscNmhOS6QYVL_12kameo_remote15connection_pool24write_bytes_vectored_allINtNtNtNtCsh4ISjvibZbV_5tokio2io4util10buf_writer9BufWriterNtNtNtNtB1m_3net3tcp11split_owned14OwnedWriteHalfEEB4_
FNDA:0,_RINvNtCscNmhOS6QYVL_12kameo_remote15connection_pool26hash_archived_vector_clockNtNtNtCswz7ZwgBZOU_3std4hash6random13DefaultHasherEB4_
FNDA:334,_RNCINvMsf_NtCscNmhOS6QYVL_12kameo_remote15connection_poolNtB8_20LockFreeStreamHandle22background_writer_taskINtNtCs85QQFkKrybG_4core3pin3PinINtNtCsdFlNUEO95cG_5alloc5boxed3BoxDNtNtNtCsh4ISjvibZbV_5tokio2io11async_write10AsyncWriteNtNtB1N_6marker4SendEL_EEE0Ba_
FNDA:0,_RNCINvMsf_NtCscNmhOS6QYVL_12kameo_remote15connection_poolNtB8_20LockFreeStreamHandle22background_writer_taskNtNtNtNtCsh4ISjvibZbV_5tokio3net3tcp11split_owned14OwnedWriteHalfE0Ba_
FNDA:334,_RNCINvMsf_NtCscNmhOS6QYVL_12kameo_remote15connection_poolNtB8_20LockFreeStreamHandle3newINtNtCs85QQFkKrybG_4core3pin3PinINtNtCsdFlNUEO95cG_5alloc5boxed3BoxDNtNtNtCsh4ISjvibZbV_5tokio2io11async_write10AsyncWriteNtNtB1t_6marker4SendEL_EEE0Ba_
FNDA:0,_RNCINvMsf_NtCscNmhOS6QYVL_12kameo_remote15connection_poolNtB8_20LockFreeStreamHandle3newNtNtNtNtCsh4ISjvibZbV_5tokio3net3tcp11split_owned14OwnedWriteHalfE0Ba_
FNDA:0,_RNCINvMsw_NtCscNmhOS6QYVL_12kameo_remote15connection_poolNtB8_14ConnectionPool33process_reader_streaming_v2_frameINtNtCs85QQFkKrybG_4core3pin3PinINtNtCsdFlNUEO95cG_5alloc5boxed3BoxDNtNtNtCsh4ISjvibZbV_5tokio2io10async_read9AsyncReadNtNtB1S_6marker4SendEL_EEE0Ba_
FNDA:0,_RNCINvNtCscNmhOS6QYVL_12kameo_remote15connection_pool24write_bytes_vectored_allINtNtNtNtCsh4ISjvibZbV_5tokio2io4util10buf_writer9BufWriterINtNtCs85QQFkKrybG_4core3pin3PinINtNtCsdFlNUEO95cG_5alloc5boxed3BoxDNtNtB1m_11async_write10AsyncWriteNtNtB2h_6marker4SendEL_EEEE0B6_
FNDA:0,_RNCINvNtCscNmhOS6QYVL_12kameo_remote15connection_pool24write_bytes_vectored_allINtNtNtNtCsh4ISjvibZbV_5tokio2io4util10buf_writer9BufWriterNtNtNtNtB1o_3net3tcp11split_owned14OwnedWriteHalfEE0B6_
FNDA:0,_RNCNCNCNvMsw_NtCscNmhOS6QYVL_12kameo_remote15connection_poolNtBb_14ConnectionPool27get_connection_with_node_id0s6_00Bd_
FNDA:0,_RNCNCNCNvMsw_NtCscNmhOS6QYVL_12kameo_remote15connection_poolNtBb_14ConnectionPool27get_connection_with_node_id0s_00Bd_
FNDA:134,_RNCNCNCNvMsw_NtCscNmhOS6QYVL_12kameo_remote15connection_poolNtBb_14ConnectionPool27get_connection_with_node_id0sg_00Bd_
FNDA:56,_RNCNCNCNvMsw_NtCscNmhOS6QYVL_12kameo_remote15connection_poolNtBb_14ConnectionPool27get_connection_with_node_id0sg_0s_0Bd_
FNDA:174,_RNCNCNCNvMsw_NtCscNmhOS6QYVL_12kameo_remote15connection_poolNtBb_14ConnectionPool27get_connection_with_node_id0si_00Bd_
FNDA:1625,_RNCNCNCNvMsw_NtCscNmhOS6QYVL_12kameo_remote15connection_poolNtBb_14ConnectionPool27get_connection_with_node_id0si_0s0_0Bd_
FNDA:112,_RNCNCNCNvMsw_NtCscNmhOS6QYVL_12kameo_remote15connection_poolNtBb_14ConnectionPool27get_connection_with_node_id0si_0s1_0Bd_
FNDA:2534,_RNCNCNCNvMsw_NtCscNmhOS6QYVL_12kameo_remote15connection_poolNtBb_14ConnectionPool27get_connection_with_node_id0si_0s2_0Bd_
FNDA:0,_RNCNCNCNvMsw_NtCscNmhOS6QYVL_12kameo_remote15connection_poolNtBb_14ConnectionPool27get_connection_with_node_id0si_0s3_0Bd_
FNDA:0,_RNCNCNCNvMsw_NtCscNmhOS6QYVL_12kameo_remote15connection_poolNtBb_14ConnectionPool27get_connection_with_node_id0si_0s4_0Bd_
FNDA:174,_RNCNCNCNvMsw_NtCscNmhOS6QYVL_12kameo_remote15connection_poolNtBb_14ConnectionPool27get_connection_with_node_id0si_0s_0Bd_
FNDA:0,_RNCNCNCNvMsw_NtCscNmhOS6QYVL_12kameo_remote15connection_poolNtBb_14ConnectionPool35handle_persistent_connection_reader000Bd_
FNDA:0,_RNCNCNCNvMsw_NtCscNmhOS6QYVL_12kameo_remote15connection_poolNtBb_14ConnectionPool35handle_persistent_connection_reader00s_0Bd_
FNDA:523,_RNCNCNvMsw_NtCscNmhOS6QYVL_12kameo_remote15connection_poolNtB9_14ConnectionPool27get_connection_with_node_id00Bb_
FNDA:0,_RNCNCNvMsw_NtCscNmhOS6QYVL_12kameo_remote15connection_poolNtB9_14ConnectionPool27get_connection_with_node_id0s0_0Bb_
FNDA:0,_RNCNCNvMsw_NtCscNmhOS6QYVL_12kameo_remote15connection_poolNtB9_14ConnectionPool27get_connection_with_node_id0s1_0Bb_
FNDA:581,_RNCNCNvMsw_NtCscNmhOS6QYVL_12kameo_remote15connection_poolNtB9_14ConnectionPool27get_connection_with_node_id0s2_0Bb_
FNDA:0,_RNCNCNvMsw_NtCscNmhOS6QYVL_12kameo_remote15connection_poolNtB9_14ConnectionPool27get_connection_with_node_id0s3_0Bb_
FNDA:136,_RNCNCNvMsw_NtCscNmhOS6QYVL_12kameo_remote15connection_poolNtB9_14ConnectionPool27get_connection_with_node_id0s4_0Bb_
FNDA:181,_RNCNCNvMsw_NtCscNmhOS6QYVL_12kameo_remote15connection_poolNtB9_14ConnectionPool27get_connection_with_node_id0s5_0Bb_
FNDA:56,_RNCNCNvMsw_NtCscNmhOS6QYVL_12kameo_remote15connection_poolNtB9_14ConnectionPool27get_connection_with_node_id0s6_0Bb_
FNDA:0,_RNCNCNvMsw_NtCscNmhOS6QYVL_12kameo_remote15connection_poolNtB9_14ConnectionPool27get_connection_with_node_id0s7_0Bb_
FNDA:0,_RNCNCNvMsw_NtCscNmhOS6QYVL_12kameo_remote15connection_poolNtB9_14ConnectionPool27get_connection_with_node_id0s8_0Bb_
FNDA:174,_RNCNCNvMsw_NtCscNmhOS6QYVL_12kameo_remote15connection_poolNtB9_14ConnectionPool27get_connection_with_node_id0s9_0Bb_
FNDA:0,_RNCNCNvMsw_NtCscNmhOS6QYVL_12kameo_remote15connection_poolNtB9_14ConnectionPool27get_connection_with_node_id0sB_0Bb_
FNDA:64,_RNCNCNvMsw_NtCscNmhOS6QYVL_12kameo_remote15connection_poolNtB9_14ConnectionPool27get_connection_with_node_id0s_0Bb_
FNDA:174,_RNCNCNvMsw_NtCscNmhOS6QYVL_12kameo_remote15connection_poolNtB9_14ConnectionPool27get_connection_with_node_id0sa_0Bb_
FNDA:174,_RNCNCNvMsw_NtCscNmhOS6QYVL_12kameo_remote15connection_poolNtB9_14ConnectionPool27get_connection_with_node_id0sb_0Bb_
FNDA:0,_RNCNCNvMsw_NtCscNmhOS6QYVL_12kameo_remote15connection_poolNtB9_14ConnectionPool27get_connection_with_node_id0sc_0Bb_
FNDA:174,_RNCNCNvMsw_NtCscNmhOS6QYVL_12kameo_remote15connection_poolNtB9_14ConnectionPool27get_connection_with_node_id0sd_0Bb_
FNDA:174,_RNCNCNvMsw_NtCscNmhOS6QYVL_12kameo_remote15connection_poolNtB9_14ConnectionPool27get_connection_with_node_id0se_0Bb_
FNDA:3,_RNCNCNvMsw_NtCscNmhOS6QYVL_12kameo_remote15connection_poolNtB9_14ConnectionPool27get_connection_with_node_id0sf_0Bb_
FNDA:171,_RNCNCNvMsw_NtCscNmhOS6QYVL_12kameo_remote15connection_poolNtB9_14ConnectionPool27get_connection_with_node_id0sg_0Bb_
FNDA:174,_RNCNCNvMsw_NtCscNmhOS6QYVL_12kameo_remote15connection_poolNtB9_14ConnectionPool27get_connection_with_node_id0sh_0Bb_
FNDA:174,_RNCNCNvMsw_NtCscNmhOS6QYVL_12kameo_remote15connection_poolNtB9_14ConnectionPool27get_connection_with_node_id0si_0Bb_
FNDA:174,_RNCNCNvMsw_NtCscNmhOS6QYVL_12kameo_remote15connection_poolNtB9_14ConnectionPool27get_connection_with_node_id0sj_0Bb_
FNDA:0,_RNCNCNvMsw_NtCscNmhOS6QYVL_12kameo_remote15connection_poolNtB9_14ConnectionPool28deliver_streaming_completion00Bb_
FNDA:0,_RNCNCNvMsw_NtCscNmhOS6QYVL_12kameo_remote15connection_poolNtB9_14ConnectionPool35handle_persistent_connection_reader00Bb_
FNDA:0,_RNCNCNvMsw_NtCscNmhOS6QYVL_12kameo_remote15connection_poolNtB9_14ConnectionPool35handle_persistent_connection_reader0s0_0Bb_
FNDA:0,_RNCNCNvMsw_NtCscNmhOS6QYVL_12kameo_remote15connection_poolNtB9_14ConnectionPool35handle_persistent_connection_reader0s1_0Bb_
FNDA:0,_RNCNCNvMsw_NtCscNmhOS6QYVL_12kameo_remote15connection_poolNtB9_14ConnectionPool35handle_persistent_connection_reader0s2_0Bb_
FNDA:0,_RNCNCNvMsw_NtCscNmhOS6QYVL_12kameo_remote15connection_poolNtB9_14ConnectionPool35handle_persistent_connection_reader0s_0Bb_
FNDA:35,_RNCNCNvNtCscNmhOS6QYVL_12kameo_remote15connection_pool23handle_incoming_message00B7_
FNDA:1469,_RNCNCNvNtCscNmhOS6QYVL_12kameo_remote15connection_pool23handle_incoming_message0s0_0B7_
FNDA:0,_RNCNCNvNtCscNmhOS6QYVL_12kameo_remote15connection_pool23handle_incoming_message0s1_0B7_
FNDA:0,_RNCNCNvNtCscNmhOS6QYVL_12kameo_remote15connection_pool23handle_incoming_message0s2_0B7_
FNDA:0,_RNCNCNvNtCscNmhOS6QYVL_12kameo_remote15connection_pool23handle_incoming_message0s4_0B7_
FNDA:67,_RNCNCNvNtCscNmhOS6QYVL_12kameo_remote15connection_pool23handle_incoming_message0s5_0B7_
FNDA:39,_RNCNCNvNtCscNmhOS6QYVL_12kameo_remote15connection_pool23handle_incoming_message0s6_0B7_
FNDA:35,_RNCNCNvNtCscNmhOS6QYVL_12kameo_remote15connection_pool23handle_incoming_message0s_0B7_
FNDA:2,_RNCNCNvNtCscNmhOS6QYVL_12kameo_remote15connection_pool23handle_incoming_message0sw_0B7_
FNDA:1,_RNCNCNvNtCscNmhOS6QYVL_12kameo_remote15connection_pool23handle_incoming_message0sy_0B7_
FNDA:36,_RNCNCNvNtCscNmhOS6QYVL_12kameo_remote15connection_pool23resolve_peer_state_addr00B7_
FNDA:457,_RNCNCNvNtCscNmhOS6QYVL_12kameo_remote15connection_pool23resolve_peer_state_addr0s0_0B7_
FNDA:36,_RNCNCNvNtCscNmhOS6QYVL_12kameo_remote15connection_pool23resolve_peer_state_addr0s_0B7_
FNDA:0,_RNCNvMsf_NtCscNmhOS6QYVL_12kameo_remote15connection_poolNtB7_20LockFreeStreamHandle17flush_immediately0B9_
FNDA:4012,_RNCNvMsf_NtCscNmhOS6QYVL_12kameo_remote15connection_poolNtB7_20LockFreeStreamHandle19write_bytes_control0B9_
FNDA:9597,_RNCNvMsf_NtCscNmhOS6QYVL_12kameo_remote15connection_poolNtB7_20LockFreeStreamHandle22acquire_control_permit0B9_
FNDA:0,_RNCNvMsf_NtCscNmhOS6QYVL_12kameo_remote15connection_poolNtB7_20LockFreeStreamHandle26write_vectored_nonblocking0B9_
FNDA:2535,_RNCNvMsf_NtCscNmhOS6QYVL_12kameo_remote15connection_poolNtB7_20LockFreeStreamHandle39write_header_and_payload_control_inline0B9_
FNDA:533504,_RNCNvMsr_NtCscNmhOS6QYVL_12kameo_remote15connection_poolNtB7_18CorrelationTracker3new0B9_
FNDA:0,_RNCNvMsv_NtCscNmhOS6QYVL_12kameo_remote15connection_poolNtB7_16ConnectionHandle26peer_supports_streaming_v20B9_
FNDA:0,_RNCNvMsv_NtCscNmhOS6QYVL_12kameo_remote15connection_poolNtB7_16ConnectionHandle26peer_supports_streaming_v2s_0B9_
FNDA:210,_RNCNvMsv_NtCscNmhOS6QYVL_12kameo_remote15connection_poolNtB7_16ConnectionHandle9send_data0B9_
FNDA:2017,_RNCNvMsw_NtCscNmhOS6QYVL_12kameo_remote15connection_poolNtB7_14ConnectionPool14get_connection0B9_
FNDA:299,_RNCNvMsw_NtCscNmhOS6QYVL_12kameo_remote15connection_poolNtB7_14ConnectionPool14has_connection0B9_
FNDA:0,_RNCNvMsw_NtCscNmhOS6QYVL_12kameo_remote15connection_poolNtB7_14ConnectionPool14send_lock_frees1_0B9_
FNDA:4,_RNCNvMsw_NtCscNmhOS6QYVL_12kameo_remote15connection_poolNtB7_14ConnectionPool16connection_count0B9_
FNDA:0,_RNCNvMsw_NtCscNmhOS6QYVL_12kameo_remote15connection_poolNtB7_14ConnectionPool18get_message_buffer0B9_
FNDA:0,_RNCNvMsw_NtCscNmhOS6QYVL_12kameo_remote15connection_poolNtB7_14ConnectionPool19get_all_connections0B9_
FNDA:0,_RNCNvMsw_NtCscNmhOS6QYVL_12kameo_remote15connection_poolNtB7_14ConnectionPool19get_connected_peers0B9_
FNDA:4,_RNCNvMsw_NtCscNmhOS6QYVL_12kameo_remote15connection_poolNtB7_14ConnectionPool19get_peer_id_by_addr0B9_
FNDA:132,_RNCNvMsw_NtCscNmhOS6QYVL_12kameo_remote15connection_poolNtB7_14ConnectionPool21close_all_connections0B9_
FNDA:5180,_RNCNvMsw_NtCscNmhOS6QYVL_12kameo_remote15connection_poolNtB7_14ConnectionPool22get_connection_by_addr0B9_
FNDA:0,_RNCNvMsw_NtCscNmhOS6QYVL_12kameo_remote15connection_poolNtB7_14ConnectionPool24add_lock_free_connection0B9_
FNDA:0,_RNCNvMsw_NtCscNmhOS6QYVL_12kameo_remote15connection_poolNtB7_14ConnectionPool24add_lock_free_connections0_0B9_
FNDA:0,_RNCNvMsw_NtCscNmhOS6QYVL_12kameo_remote15connection_poolNtB7_14ConnectionPool24add_lock_free_connections_0B9_
FNDA:143,_RNCNvMsw_NtCscNmhOS6QYVL_12kameo_remote15connection_poolNtB7_14ConnectionPool24get_lock_free_connection0B9_
FNDA:217,_RNCNvMsw_NtCscNmhOS6QYVL_12kameo_remote15connection_poolNtB7_14ConnectionPool25cleanup_stale_connections0B9_
FNDA:2,_RNCNvMsw_NtCscNmhOS6QYVL_12kameo_remote15connection_poolNtB7_14ConnectionPool25cleanup_stale_connectionss_0B9_
FNDA:115,_RNCNvMsw_NtCscNmhOS6QYVL_12kameo_remote15connection_poolNtB7_14ConnectionPool25get_connection_by_peer_id0B9_
FNDA:191,_RNCNvMsw_NtCscNmhOS6QYVL_12kameo_remote15connection_poolNtB7_14ConnectionPool25get_connection_by_peer_ids_0B9_
FNDA:59,_RNCNvMsw_NtCscNmhOS6QYVL_12kameo_remote15connection_poolNtB7_14ConnectionPool25has_connection_by_peer_id0B9_
FNDA:347,_RNCNvMsw_NtCscNmhOS6QYVL_12kameo_remote15connection_poolNtB7_14ConnectionPool27clear_capabilities_for_addr0B9_
FNDA:2075,_RNCNvMsw_NtCscNmhOS6QYVL_12kameo_remote15connection_poolNtB7_14ConnectionPool27get_connection_with_node_id0B9_
FNDA:0,_RNCNvMsw_NtCscNmhOS6QYVL_12kameo_remote15connection_poolNtB7_14ConnectionPool28deliver_streaming_completion0B9_
FNDA:0,_RNCNvMsw_NtCscNmhOS6QYVL_12kameo_remote15connection_poolNtB7_14ConnectionPool30get_shared_correlation_tracker0B9_
FNDA:533,_RNCNvMsw_NtCscNmhOS6QYVL_12kameo_remote15connection_poolNtB7_14ConnectionPool32disconnect_connection_by_peer_id0B9_
FNDA:342,_RNCNvMsw_NtCscNmhOS6QYVL_12kameo_remote15connection_poolNtB7_14ConnectionPool32disconnect_connection_by_peer_ids_0B9_
FNDA:59,_RNCNvMsw_NtCscNmhOS6QYVL_12kameo_remote15connection_poolNtB7_14ConnectionPool33get_or_create_correlation_tracker0B9_
FNDA:0,_RNCNvMsw_NtCscNmhOS6QYVL_12kameo_remote15connection_poolNtB7_14ConnectionPool35handle_persistent_connection_reader0B9_
FNDA:3448,_RNCNvNtCscNmhOS6QYVL_12kameo_remote15connection_pool23handle_incoming_message0B5_
FNDA:501,_RNCNvNtCscNmhOS6QYVL_12kameo_remote15connection_pool23resolve_peer_state_addr0B5_
FNDA:1,_RNCNvNtCscNmhOS6QYVL_12kameo_remote15connection_pool29compare_archived_vector_clock0B5_
FNDA:69,_RNCNvNtCscNmhOS6QYVL_12kameo_remote15connection_pool30archived_priority_is_immediate0B5_
FNDA:0,_RNCNvXs5_NtCscNmhOS6QYVL_12kameo_remote15connection_poolNtB7_12WritePayloadNtNtCs85QQFkKrybG_4core3fmt5Debug3fmt0B9_
FNDA:0,_RINvMsf_NtCscNmhOS6QYVL_12kameo_remote15connection_poolNtB6_20LockFreeStreamHandle13write_buf_askpEB8_
FNDA:0,_RINvMsf_NtCscNmhOS6QYVL_12kameo_remote15connection_poolNtB6_20LockFreeStreamHandle17write_buf_controlpEB8_
FNDA:0,_RINvMsf_NtCscNmhOS6QYVL_12kameo_remote15connection_poolNtB6_20LockFreeStreamHandle43write_header_and_payload_control_inline_bufpEB8_
FNDA:0,_RINvMsv_NtCscNmhOS6QYVL_12kameo_remote15connection_poolNtB6_16ConnectionHandle10tell_smartpEB8_
FNDA:0,_RINvMsv_NtCscNmhOS6QYVL_12kameo_remote15connection_poolNtB6_16ConnectionHandle10tell_typedpEB8_
FNDA:0,_RINvMsv_NtCscNmhOS6QYVL_12kameo_remote15connection_poolNtB6_16ConnectionHandle11stream_sendpEB8_
FNDA:0,_RINvMsv_NtCscNmhOS6QYVL_12kameo_remote15connection_poolNtB6_16ConnectionHandle17send_response_bufpEB8_
FNDA:0,_RINvMsv_NtCscNmhOS6QYVL_12kameo_remote15connection_poolNtB6_16ConnectionHandle17stream_send_batchpEB8_
FNDA:0,_RINvMsv_NtCscNmhOS6QYVL_12kameo_remote15connection_poolNtB6_16ConnectionHandle18ask_typed_archivedppEB8_
FNDA:0,_RINvMsv_NtCscNmhOS6QYVL_12kameo_remote15connection_poolNtB6_16ConnectionHandle31ask_typed_archived_with_timeoutppEB8_
FNDA:0,_RINvMsv_NtCscNmhOS6QYVL_12kameo_remote15connection_poolNtB6_16ConnectionHandle4tellpEB8_
FNDA:0,_RINvMsv_NtCscNmhOS6QYVL_12kameo_remote15connection_poolNtB6_16ConnectionHandle9tell_manypEB8_
FNDA:0,_RNCINvMsf_NtCscNmhOS6QYVL_12kameo_remote15connection_poolNtB8_20LockFreeStreamHandle13write_buf_askpE0Ba_
FNDA:0,_RNCINvMsf_NtCscNmhOS6QYVL_12kameo_remote15connection_poolNtB8_20LockFreeStreamHandle17write_buf_controlpE0Ba_
FNDA:0,_RNCINvMsf_NtCscNmhOS6QYVL_12kameo_remote15connection_poolNtB8_20LockFreeStreamHandle43write_header_and_payload_control_inline_bufpE0Ba_
FNDA:0,_RNCINvMsv_NtCscNmhOS6QYVL_12kameo_remote15connection_poolNtB8_16ConnectionHandle10tell_smartpE0Ba_
FNDA:0,_RNCINvMsv_NtCscNmhOS6QYVL_12kameo_remote15connection_poolNtB8_16ConnectionHandle10tell_typedpE0Ba_
FNDA:0,_RNCINvMsv_NtCscNmhOS6QYVL_12kameo_remote15connection_poolNtB8_16ConnectionHandle11stream_sendpE0Ba_
FNDA:0,_RNCINvMsv_NtCscNmhOS6QYVL_12kameo_remote15connection_poolNtB8_16ConnectionHandle17send_response_bufpE0Ba_
FNDA:0,_RNCINvMsv_NtCscNmhOS6QYVL_12kameo_remote15connection_poolNtB8_16ConnectionHandle17stream_send_batchpE0Ba_
FNDA:0,_RNCINvMsv_NtCscNmhOS6QYVL_12kameo_remote15connection_poolNtB8_16ConnectionHandle18ask_typed_archivedppE0Ba_
FNDA:0,_RNCINvMsv_NtCscNmhOS6QYVL_12kameo_remote15connection_poolNtB8_16ConnectionHandle31ask_typed_archived_with_timeoutppE0Ba_
FNDA:0,_RNCINvMsv_NtCscNmhOS6QYVL_12kameo_remote15connection_poolNtB8_16ConnectionHandle4tellpE0Ba_
FNDA:0,_RNCINvMsv_NtCscNmhOS6QYVL_12kameo_remote15connection_poolNtB8_16ConnectionHandle9tell_manypE0Ba_
FNDA:0,_RNCNCINvMsv_NtCscNmhOS6QYVL_12kameo_remote15connection_poolNtBa_16ConnectionHandle10tell_smartpE00Bc_
FNDA:0,_RNCNCINvMsv_NtCscNmhOS6QYVL_12kameo_remote15connection_poolNtBa_16ConnectionHandle9tell_manypE00Bc_
FNDA:0,_RNCNCNvMsv_NtCscNmhOS6QYVL_12kameo_remote15connection_poolNtB9_16ConnectionHandle10tell_batch00Bb_
FNDA:0,_RNCNCNvMsv_NtCscNmhOS6QYVL_12kameo_remote15connection_poolNtB9_16ConnectionHandle19ask_batch_optimized00Bb_
FNDA:0,_RNCNCNvMsv_NtCscNmhOS6QYVL_12kameo_remote15connection_poolNtB9_16ConnectionHandle19ask_batch_optimized0s_0Bb_
FNDA:0,_RNCNCNvMsv_NtCscNmhOS6QYVL_12kameo_remote15connection_poolNtB9_16ConnectionHandle20send_response_pooled00Bb_
FNDA:0,_RNCNCNvMsv_NtCscNmhOS6QYVL_12kameo_remote15connection_poolNtB9_16ConnectionHandle22ask_batch_with_timeout00Bb_
FNDA:0,_RNCNCNvMsv_NtCscNmhOS6QYVL_12kameo_remote15connection_poolNtB9_16ConnectionHandle9ask_batch00Bb_
FNDA:0,_RNCNCNvMsw_NtCscNmhOS6QYVL_12kameo_remote15connection_poolNtB9_14ConnectionPool22get_connection_to_peer00Bb_
FNDA:0,_RNCNvMsf_NtCscNmhOS6QYVL_12kameo_remote15connection_poolNtB7_20LockFreeStreamHandle15write_bytes_ask0B9_
FNDA:0,_RNCNvMsf_NtCscNmhOS6QYVL_12kameo_remote15connection_poolNtB7_20LockFreeStreamHandle16write_pooled_ask0B9_
FNDA:0,_RNCNvMsf_NtCscNmhOS6QYVL_12kameo_remote15connection_poolNtB7_20LockFreeStreamHandle18acquire_ask_permit0B9_
FNDA:0,_RNCNvMsf_NtCscNmhOS6QYVL_12kameo_remote15connection_poolNtB7_20LockFreeStreamHandle20stream_large_message0B9_
FNDA:0,_RNCNvMsf_NtCscNmhOS6QYVL_12kameo_remote15connection_poolNtB7_20LockFreeStreamHandle20write_pooled_control0B9_
FNDA:0,_RNCNvMsf_NtCscNmhOS6QYVL_12kameo_remote15connection_poolNtB7_20LockFreeStreamHandle23write_pooled_ask_inline0B9_
FNDA:0,_RNCNvMsf_NtCscNmhOS6QYVL_12kameo_remote15connection_poolNtB7_20LockFreeStreamHandle26stream_large_message_bytes0B9_
FNDA:0,_RNCNvMsf_NtCscNmhOS6QYVL_12kameo_remote15connection_poolNtB7_20LockFreeStreamHandle26stream_large_message_zoned0B9_
FNDA:0,_RNCNvMsf_NtCscNmhOS6QYVL_12kameo_remote15connection_poolNtB7_20LockFreeStreamHandle27write_pooled_control_inline0B9_
FNDA:0,_RNCNvMsf_NtCscNmhOS6QYVL_12kameo_remote15connection_poolNtB7_20LockFreeStreamHandle28write_header_and_payload_ask0B9_
FNDA:0,_RNCNvMsf_NtCscNmhOS6QYVL_12kameo_remote15connection_poolNtB7_20LockFreeStreamHandle29stream_large_message_internal0B9_
FNDA:0,_RNCNvMsf_NtCscNmhOS6QYVL_12kameo_remote15connection_poolNtB7_20LockFreeStreamHandle32write_header_and_payload_control0B9_
FNDA:0,_RNCNvMsf_NtCscNmhOS6QYVL_12kameo_remote15connection_poolNtB7_20LockFreeStreamHandle35stream_large_message_internal_bytes0B9_
FNDA:0,_RNCNvMsf_NtCscNmhOS6QYVL_12kameo_remote15connection_poolNtB7_20LockFreeStreamHandle35write_header_and_payload_ask_inline0B9_
FNDA:0,_RNCNvMsf_NtCscNmhOS6QYVL_12kameo_remote15connection_poolNtB7_20LockFreeStreamHandle37stream_large_message_with_correlation0B9_
FNDA:0,_RNCNvMsf_NtCscNmhOS6QYVL_12kameo_remote15connection_poolNtB7_20LockFreeStreamHandle43stream_large_message_with_correlation_bytes0B9_
FNDA:0,_RNCNvMsi_NtCscNmhOS6QYVL_12kameo_remote15connection_poolNtB7_11TellMessage8send_via0B9_
FNDA:0,_RNCNvMsr_NtCscNmhOS6QYVL_12kameo_remote15connection_poolNtB7_18CorrelationTracker17wait_for_response0B9_
FNDA:0,_RNCNvMst_NtCscNmhOS6QYVL_12kameo_remote15connection_poolNtB7_20DelegatedReplySender14wait_for_reply0B9_
FNDA:0,_RNCNvMst_NtCscNmhOS6QYVL_12kameo_remote15connection_poolNtB7_20DelegatedReplySender27wait_for_reply_with_timeout0B9_
FNDA:0,_RNCNvMsv_NtCscNmhOS6QYVL_12kameo_remote15connection_poolNtB7_16ConnectionHandle10tell_batch0B9_
FNDA:0,_RNCNvMsv_NtCscNmhOS6QYVL_12kameo_remote15connection_poolNtB7_16ConnectionHandle10tell_bytes0B9_
FNDA:0,_RNCNvMsv_NtCscNmhOS6QYVL_12kameo_remote15connection_poolNtB7_16ConnectionHandle13ask_streaming0B9_
FNDA:0,_RNCNvMsv_NtCscNmhOS6QYVL_12kameo_remote15connection_poolNtB7_16ConnectionHandle13send_messages0B9_
FNDA:0,_RNCNvMsv_NtCscNmhOS6QYVL_12kameo_remote15connection_poolNtB7_16ConnectionHandle14send_raw_bytes0B9_
FNDA:0,_RNCNvMsv_NtCscNmhOS6QYVL_12kameo_remote15connection_poolNtB7_16ConnectionHandle16ask_with_timeout0B9_
FNDA:0,_RNCNvMsv_NtCscNmhOS6QYVL_12kameo_remote15connection_poolNtB7_16ConnectionHandle17ask_with_reply_to0B9_
FNDA:0,_RNCNvMsv_NtCscNmhOS6QYVL_12kameo_remote15connection_poolNtB7_16ConnectionHandle17send_tell_message0B9_
FNDA:0,_RNCNvMsv_NtCscNmhOS6QYVL_12kameo_remote15connection_poolNtB7_16ConnectionHandle19ask_batch_optimized0B9_
FNDA:0,_RNCNvMsv_NtCscNmhOS6QYVL_12kameo_remote15connection_poolNtB7_16ConnectionHandle19ask_streaming_bytes0B9_
FNDA:0,_RNCNvMsv_NtCscNmhOS6QYVL_12kameo_remote15connection_poolNtB7_16ConnectionHandle19send_binary_message0B9_
FNDA:0,_RNCNvMsv_NtCscNmhOS6QYVL_12kameo_remote15connection_poolNtB7_16ConnectionHandle19send_response_bytes0B9_
FNDA:0,_RNCNvMsv_NtCscNmhOS6QYVL_12kameo_remote15connection_poolNtB7_16ConnectionHandle20send_bytes_zero_copy0B9_
FNDA:0,_RNCNvMsv_NtCscNmhOS6QYVL_12kameo_remote15connection_poolNtB7_16ConnectionHandle20send_response_pooled0B9_
FNDA:0,_RNCNvMsv_NtCscNmhOS6QYVL_12kameo_remote15connection_poolNtB7_16ConnectionHandle20stream_large_message0B9_
FNDA:0,_RNCNvMsv_NtCscNmhOS6QYVL_12kameo_remote15connection_poolNtB7_16ConnectionHandle21ask_with_reply_sender0B9_
FNDA:0,_RNCNvMsv_NtCscNmhOS6QYVL_12kameo_remote15connection_poolNtB7_16ConnectionHandle22ask_batch_with_timeout0B9_
FNDA:0,_RNCNvMsv_NtCscNmhOS6QYVL_12kameo_remote15connection_poolNtB7_16ConnectionHandle23ask_with_timeout_pooled0B9_
FNDA:0,_RNCNvMsv_NtCscNmhOS6QYVL_12kameo_remote15connection_poolNtB7_16ConnectionHandle26ask_with_timeout_and_reply0B9_
FNDA:0,_RNCNvMsv_NtCscNmhOS6QYVL_12kameo_remote15connection_poolNtB7_16ConnectionHandle3ask0B9_
FNDA:0,_RNCNvMsv_NtCscNmhOS6QYVL_12kameo_remote15connection_poolNtB7_16ConnectionHandle8send_raw0B9_
FNDA:0,_RNCNvMsv_NtCscNmhOS6QYVL_12kameo_remote15connection_poolNtB7_16ConnectionHandle8tell_raw0B9_
FNDA:0,_RNCNvMsv_NtCscNmhOS6QYVL_12kameo_remote15connection_poolNtB7_16ConnectionHandle9ask_batch0B9_
FNDA:0,_RNCNvMsv_NtCscNmhOS6QYVL_12kameo_remote15connection_poolNtB7_16ConnectionHandle9tell_auto0B9_
FNDA:0,_RNCNvMsw_NtCscNmhOS6QYVL_12kameo_remote15connection_poolNtB7_14ConnectionPool22get_connection_to_peer0B9_
FNDA:0,_RNCNvMsw_NtCscNmhOS6QYVL_12kameo_remote15connection_poolNtB7_14ConnectionPool23check_connection_health0B9_
FNDA:0,_RNvMsf_NtCscNmhOS6QYVL_12kameo_remote15connection_poolNtB5_20LockFreeStreamHandle15write_bytes_askB7_
FNDA:0,_RNvXININtCscNmhOS6QYVL_12kameo_remote15connection_poolsm_0KpENtB5_11TellMessageINtNtCs85QQFkKrybG_4core7convert4FromRAhpE4fromB7_
FNDA:347,_RNvXs_NtCscNmhOS6QYVL_12kameo_remote15connection_poolNtB4_11TaskTrackerNtNtNtCs85QQFkKrybG_4core3ops4drop4Drop4drop
FNDA:0,_RNvXsg_NtCscNmhOS6QYVL_12kameo_remote15connection_poolNtB5_14StreamingGuardNtNtNtCs85QQFkKrybG_4core3ops4drop4Drop4drop
FNDA:0,_RINvMsv_NtCscNmhOS6QYVL_12kameo_remote15connection_poolNtB6_16ConnectionHandle4tellRShECs4EqTPqKkQep_16ask_reply_simple
FNDA:0,_RNCINvMsv_NtCscNmhOS6QYVL_12kameo_remote15connection_poolNtB8_16ConnectionHandle4tellRShE0Cs4EqTPqKkQep_16ask_reply_simple
FNDA:0,_RNCNCNvMsv_NtCscNmhOS6QYVL_12kameo_remote15connection_poolNtB9_16ConnectionHandle10tell_batch00Cs4EqTPqKkQep_16ask_reply_simple
FNDA:0,_RNCNCNvMsw_NtCscNmhOS6QYVL_12kameo_remote15connection_poolNtB9_14ConnectionPool22get_connection_to_peer00Cs4EqTPqKkQep_16ask_reply_simple
FNDA:1,_RNCNvMsf_NtCscNmhOS6QYVL_12kameo_remote15connection_poolNtB7_20LockFreeStreamHandle15write_bytes_ask0Cs4EqTPqKkQep_16ask_reply_simple
FNDA:1011,_RNCNvMsf_NtCscNmhOS6QYVL_12kameo_remote15connection_poolNtB7_20LockFreeStreamHandle18acquire_ask_permit0Cs4EqTPqKkQep_16ask_reply_simple
FNDA:1010,_RNCNvMsf_NtCscNmhOS6QYVL_12kameo_remote15connection_poolNtB7_20LockFreeStreamHandle35write_header_and_payload_ask_inline0Cs4EqTPqKkQep_16ask_reply_simple
FNDA:0,_RNCNvMsi_NtCscNmhOS6QYVL_12kameo_remote15connection_poolNtB7_11TellMessage8send_via0Cs4EqTPqKkQep_16ask_reply_simple
FNDA:1010,_RNCNvMsr_NtCscNmhOS6QYVL_12kameo_remote15connection_poolNtB7_18CorrelationTracker17wait_for_response0Cs4EqTPqKkQep_16ask_reply_simple
FNDA:0,_RNCNvMsv_NtCscNmhOS6QYVL_12kameo_remote15connection_poolNtB7_16ConnectionHandle10tell_batch0Cs4EqTPqKkQep_16ask_reply_simple
FNDA:1010,_RNCNvMsv_NtCscNmhOS6QYVL_12kameo_remote15connection_poolNtB7_16ConnectionHandle16ask_with_timeout0Cs4EqTPqKkQep_16ask_reply_simple
FNDA:1,_RNCNvMsv_NtCscNmhOS6QYVL_12kameo_remote15connection_poolNtB7_16ConnectionHandle17ask_with_reply_to0Cs4EqTPqKkQep_16ask_reply_simple
FNDA:1,_RNCNvMsv_NtCscNmhOS6QYVL_12kameo_remote15connection_poolNtB7_16ConnectionHandle19send_response_bytes0Cs4EqTPqKkQep_16ask_reply_simple
FNDA:1010,_RNCNvMsv_NtCscNmhOS6QYVL_12kameo_remote15connection_poolNtB7_16ConnectionHandle3ask0Cs4EqTPqKkQep_16ask_reply_simple
FNDA:0,_RNCNvMsv_NtCscNmhOS6QYVL_12kameo_remote15connection_poolNtB7_16ConnectionHandle8tell_raw0Cs4EqTPqKkQep_16ask_reply_simple
FNDA:2,_RNCNvMsw_NtCscNmhOS6QYVL_12kameo_remote15connection_poolNtB7_14ConnectionPool22get_connection_to_peer0Cs4EqTPqKkQep_16ask_reply_simple
FNDA:1,_RNvMsf_NtCscNmhOS6QYVL_12kameo_remote15connection_poolNtB5_20LockFreeStreamHandle15write_bytes_askCs4EqTPqKkQep_16ask_reply_simple
FNDA:0,_RNvMsf_NtCscNmhOS6QYVL_12kameo_remote15connection_poolNtB5_20LockFreeStreamHandle19write_bytes_controlCs4EqTPqKkQep_16ask_reply_simple
FNDA:102,_RNvMsf_NtCscNmhOS6QYVL_12kameo_remote15connection_poolNtB5_20LockFreeStreamHandle19write_bytes_controlCs3gQfcGJLyAz_20ask_with_lookup_demo
FNDA:100,_RINvMsv_NtCscNmhOS6QYVL_12kameo_remote15connection_poolNtB6_16ConnectionHandle4tellRAhj11_ECs3gQfcGJLyAz_20ask_with_lookup_demo
FNDA:2,_RINvMsv_NtCscNmhOS6QYVL_12kameo_remote15connection_poolNtB6_16ConnectionHandle4tellRShECs3gQfcGJLyAz_20ask_with_lookup_demo
FNDA:100,_RNCINvMsv_NtCscNmhOS6QYVL_12kameo_remote15connection_poolNtB8_16ConnectionHandle4tellRAhj11_E0Cs3gQfcGJLyAz_20ask_with_lookup_demo
FNDA:2,_RNCINvMsv_NtCscNmhOS6QYVL_12kameo_remote15connection_poolNtB8_16ConnectionHandle4tellRShE0Cs3gQfcGJLyAz_20ask_with_lookup_demo
FNDA:0,_RNCNCNvMsv_NtCscNmhOS6QYVL_12kameo_remote15connection_poolNtB9_16ConnectionHandle10tell_batch00Cs3gQfcGJLyAz_20ask_with_lookup_demo
FNDA:0,_RNCNCNvMsw_NtCscNmhOS6QYVL_12kameo_remote15connection_poolNtB9_14ConnectionPool22get_connection_to_peer00Cs3gQfcGJLyAz_20ask_with_lookup_demo
FNDA:1122,_RNCNvMsf_NtCscNmhOS6QYVL_12kameo_remote15connection_poolNtB7_20LockFreeStreamHandle18acquire_ask_permit0Cs3gQfcGJLyAz_20ask_with_lookup_demo
FNDA:1122,_RNCNvMsf_NtCscNmhOS6QYVL_12kameo_remote15connection_poolNtB7_20LockFreeStreamHandle35write_header_and_payload_ask_inline0Cs3gQfcGJLyAz_20ask_with_lookup_demo
FNDA:102,_RNCNvMsi_NtCscNmhOS6QYVL_12kameo_remote15connection_poolNtB7_11TellMessage8send_via0Cs3gQfcGJLyAz_20ask_with_lookup_demo
FNDA:1122,_RNCNvMsr_NtCscNmhOS6QYVL_12kameo_remote15connection_poolNtB7_18CorrelationTracker17wait_for_response0Cs3gQfcGJLyAz_20ask_with_lookup_demo
FNDA:0,_RNCNvMsv_NtCscNmhOS6QYVL_12kameo_remote15connection_poolNtB7_16ConnectionHandle10tell_batch0Cs3gQfcGJLyAz_20ask_with_lookup_demo
FNDA:1122,_RNCNvMsv_NtCscNmhOS6QYVL_12kameo_remote15connection_poolNtB7_16ConnectionHandle16ask_with_timeout0Cs3gQfcGJLyAz_20ask_with_lookup_demo
FNDA:1,_RNCNvMsv_NtCscNmhOS6QYVL_12kameo_remote15connection_poolNtB7_16ConnectionHandle21ask_with_reply_sender0Cs3gQfcGJLyAz_20ask_with_lookup_demo
FNDA:1,_RNCNvMsv_NtCscNmhOS6QYVL_12kameo_remote15connection_poolNtB7_16ConnectionHandle26ask_with_timeout_and_reply0Cs3gQfcGJLyAz_20ask_with_lookup_demo
FNDA:1122,_RNCNvMsv_NtCscNmhOS6QYVL_12kameo_remote15connection_poolNtB7_16ConnectionHandle3ask0Cs3gQfcGJLyAz_20ask_with_lookup_demo
FNDA:102,_RNCNvMsv_NtCscNmhOS6QYVL_12kameo_remote15connection_poolNtB7_16ConnectionHandle8tell_raw0Cs3gQfcGJLyAz_20ask_with_lookup_demo
FNDA:7,_RNCNvMsw_NtCscNmhOS6QYVL_12kameo_remote15connection_poolNtB7_14ConnectionPool22get_connection_to_peer0Cs3gQfcGJLyAz_20ask_with_lookup_demo
FNDA:100,_RNvXsm_NtCscNmhOS6QYVL_12kameo_remote15connection_poolNtB5_11TellMessageINtNtCs85QQFkKrybG_4core7convert4FromRAhj11_E4fromCs3gQfcGJLyAz_20ask_with_lookup_demo
FNDA:0,_RINvMsv_NtCscNmhOS6QYVL_12kameo_remote15connection_poolNtB6_16ConnectionHandle4tellRShECs36kK6wN0hlG_21batch_ask_performance
FNDA:0,_RNCINvMsv_NtCscNmhOS6QYVL_12kameo_remote15connection_poolNtB8_16ConnectionHandle4tellRShE0Cs36kK6wN0hlG_21batch_ask_performance
FNDA:0,_RNCNCNvMsv_NtCscNmhOS6QYVL_12kameo_remote15connection_poolNtB9_16ConnectionHandle10tell_batch00Cs36kK6wN0hlG_21batch_ask_performance
FNDA:0,_RNCNCNvMsv_NtCscNmhOS6QYVL_12kameo_remote15connection_poolNtB9_16ConnectionHandle19ask_batch_optimized00Cs36kK6wN0hlG_21batch_ask_performance
FNDA:0,_RNCNCNvMsv_NtCscNmhOS6QYVL_12kameo_remote15connection_poolNtB9_16ConnectionHandle19ask_batch_optimized0s_0Cs36kK6wN0hlG_21batch_ask_performance
FNDA:10,_RNCNCNvMsv_NtCscNmhOS6QYVL_12kameo_remote15connection_poolNtB9_16ConnectionHandle22ask_batch_with_timeout00Cs36kK6wN0hlG_21batch_ask_performance
FNDA:10,_RNCNCNvMsv_NtCscNmhOS6QYVL_12kameo_remote15connection_poolNtB9_16ConnectionHandle9ask_batch00Cs36kK6wN0hlG_21batch_ask_performance
FNDA:1,_RNCNvMsf_NtCscNmhOS6QYVL_12kameo_remote15connection_poolNtB7_20LockFreeStreamHandle15write_bytes_ask0Cs36kK6wN0hlG_21batch_ask_performance
FNDA:1,_RNCNvMsf_NtCscNmhOS6QYVL_12kameo_remote15connection_poolNtB7_20LockFreeStreamHandle18acquire_ask_permit0Cs36kK6wN0hlG_21batch_ask_performance
FNDA:0,_RNCNvMsf_NtCscNmhOS6QYVL_12kameo_remote15connection_poolNtB7_20LockFreeStreamHandle35write_header_and_payload_ask_inline0Cs36kK6wN0hlG_21batch_ask_performance
FNDA:0,_RNCNvMsi_NtCscNmhOS6QYVL_12kameo_remote15connection_poolNtB7_11TellMessage8send_via0Cs36kK6wN0hlG_21batch_ask_performance
FNDA:10,_RNCNvMsr_NtCscNmhOS6QYVL_12kameo_remote15connection_poolNtB7_18CorrelationTracker17wait_for_response0Cs36kK6wN0hlG_21batch_ask_performance
FNDA:0,_RNCNvMsv_NtCscNmhOS6QYVL_12kameo_remote15connection_poolNtB7_16ConnectionHandle10tell_batch0Cs36kK6wN0hlG_21batch_ask_performance
FNDA:0,_RNCNvMsv_NtCscNmhOS6QYVL_12kameo_remote15connection_poolNtB7_16ConnectionHandle16ask_with_timeout0Cs36kK6wN0hlG_21batch_ask_performance
FNDA:0,_RNCNvMsv_NtCscNmhOS6QYVL_12kameo_remote15connection_poolNtB7_16ConnectionHandle19ask_batch_optimized0Cs36kK6wN0hlG_21batch_ask_performance
FNDA:1,_RNCNvMsv_NtCscNmhOS6QYVL_12kameo_remote15connection_poolNtB7_16ConnectionHandle22ask_batch_with_timeout0Cs36kK6wN0hlG_21batch_ask_performance
FNDA:0,_RNCNvMsv_NtCscNmhOS6QYVL_12kameo_remote15connection_poolNtB7_16ConnectionHandle3ask0Cs36kK6wN0hlG_21batch_ask_performance
FNDA:0,_RNCNvMsv_NtCscNmhOS6QYVL_12kameo_remote15connection_poolNtB7_16ConnectionHandle8tell_raw0Cs36kK6wN0hlG_21batch_ask_performance
FNDA:1,_RNCNvMsv_NtCscNmhOS6QYVL_12kameo_remote15connection_poolNtB7_16ConnectionHandle9ask_batch0Cs36kK6wN0hlG_21batch_ask_performance
FNDA:1,_RNvMsf_NtCscNmhOS6QYVL_12kameo_remote15connection_poolNtB5_20LockFreeStreamHandle15write_bytes_askCs36kK6wN0hlG_21batch_ask_performance
FNDA:0,_RNvMsf_NtCscNmhOS6QYVL_12kameo_remote15connection_poolNtB5_20LockFreeStreamHandle19write_bytes_controlCs36kK6wN0hlG_21batch_ask_performance
FNDA:8,_RNvMsf_NtCscNmhOS6QYVL_12kameo_remote15connection_poolNtB5_20LockFreeStreamHandle15write_bytes_askCs3Gqi3lF3rZv_16batch_ask_simple
FNDA:0,_RNvMsf_NtCscNmhOS6QYVL_12kameo_remote15connection_poolNtB5_20LockFreeStreamHandle19write_bytes_controlCs3Gqi3lF3rZv_16batch_ask_simple
FNDA:0,_RINvMsv_NtCscNmhOS6QYVL_12kameo_remote15connection_poolNtB6_16ConnectionHandle4tellRShECs3Gqi3lF3rZv_16batch_ask_simple
FNDA:0,_RNCINvMsv_NtCscNmhOS6QYVL_12kameo_remote15connection_poolNtB8_16ConnectionHandle4tellRShE0Cs3Gqi3lF3rZv_16batch_ask_simple
FNDA:0,_RNCNCNvMsv_NtCscNmhOS6QYVL_12kameo_remote15connection_poolNtB9_16ConnectionHandle10tell_batch00Cs3Gqi3lF3rZv_16batch_ask_simple
FNDA:5,_RNCNCNvMsv_NtCscNmhOS6QYVL_12kameo_remote15connection_poolNtB9_16ConnectionHandle22ask_batch_with_timeout00Cs3Gqi3lF3rZv_16batch_ask_simple
FNDA:215,_RNCNCNvMsv_NtCscNmhOS6QYVL_12kameo_remote15connection_poolNtB9_16ConnectionHandle9ask_batch00Cs3Gqi3lF3rZv_16batch_ask_simple
FNDA:0,_RNCNCNvMsw_NtCscNmhOS6QYVL_12kameo_remote15connection_poolNtB9_14ConnectionPool22get_connection_to_peer00Cs3Gqi3lF3rZv_16batch_ask_simple
FNDA:8,_RNCNvMsf_NtCscNmhOS6QYVL_12kameo_remote15connection_poolNtB7_20LockFreeStreamHandle15write_bytes_ask0Cs3Gqi3lF3rZv_16batch_ask_simple
FNDA:9,_RNCNvMsf_NtCscNmhOS6QYVL_12kameo_remote15connection_poolNtB7_20LockFreeStreamHandle18acquire_ask_permit0Cs3Gqi3lF3rZv_16batch_ask_simple
FNDA:1,_RNCNvMsf_NtCscNmhOS6QYVL_12kameo_remote15connection_poolNtB7_20LockFreeStreamHandle35write_header_and_payload_ask_inline0Cs3Gqi3lF3rZv_16batch_ask_simple
FNDA:0,_RNCNvMsi_NtCscNmhOS6QYVL_12kameo_remote15connection_poolNtB7_11TellMessage8send_via0Cs3Gqi3lF3rZv_16batch_ask_simple
FNDA:216,_RNCNvMsr_NtCscNmhOS6QYVL_12kameo_remote15connection_poolNtB7_18CorrelationTracker17wait_for_response0Cs3Gqi3lF3rZv_16batch_ask_simple
FNDA:0,_RNCNvMsv_NtCscNmhOS6QYVL_12kameo_remote15connection_poolNtB7_16ConnectionHandle10tell_batch0Cs3Gqi3lF3rZv_16batch_ask_simple
FNDA:1,_RNCNvMsv_NtCscNmhOS6QYVL_12kameo_remote15connection_poolNtB7_16ConnectionHandle16ask_with_timeout0Cs3Gqi3lF3rZv_16batch_ask_simple
FNDA:1,_RNCNvMsv_NtCscNmhOS6QYVL_12kameo_remote15connection_poolNtB7_16ConnectionHandle22ask_batch_with_timeout0Cs3Gqi3lF3rZv_16batch_ask_simple
FNDA:1,_RNCNvMsv_NtCscNmhOS6QYVL_12kameo_remote15connection_poolNtB7_16ConnectionHandle3ask0Cs3Gqi3lF3rZv_16batch_ask_simple
FNDA:0,_RNCNvMsv_NtCscNmhOS6QYVL_12kameo_remote15connection_poolNtB7_16ConnectionHandle8tell_raw0Cs3Gqi3lF3rZv_16batch_ask_simple
FNDA:8,_RNCNvMsv_NtCscNmhOS6QYVL_12kameo_remote15connection_poolNtB7_16ConnectionHandle9ask_batch0Cs3Gqi3lF3rZv_16batch_ask_simple
FNDA:4,_RNCNvMsw_NtCscNmhOS6QYVL_12kameo_remote15connection_poolNtB7_14ConnectionPool22get_connection_to_peer0Cs3Gqi3lF3rZv_16batch_ask_simple
FNDA:48,_RNvMsf_NtCscNmhOS6QYVL_12kameo_remote15connection_poolNtB5_20LockFreeStreamHandle19write_bytes_controlCseMZ9mYNOGxi_25connection_lifecycle_test
FNDA:48,_RINvMsv_NtCscNmhOS6QYVL_12kameo_remote15connection_poolNtB6_16ConnectionHandle4tellRShECseMZ9mYNOGxi_25connection_lifecycle_test
FNDA:48,_RNCINvMsv_NtCscNmhOS6QYVL_12kameo_remote15connection_poolNtB8_16ConnectionHandle4tellRShE0CseMZ9mYNOGxi_25connection_lifecycle_test
FNDA:0,_RNCNCNvMsv_NtCscNmhOS6QYVL_12kameo_remote15connection_poolNtB9_16ConnectionHandle10tell_batch00CseMZ9mYNOGxi_25connection_lifecycle_test
FNDA:1,_RNCNCNvMsw_NtCscNmhOS6QYVL_12kameo_remote15connection_poolNtB9_14ConnectionPool22get_connection_to_peer00CseMZ9mYNOGxi_25connection_lifecycle_test
FNDA:21,_RNCNvMsf_NtCscNmhOS6QYVL_12kameo_remote15connection_poolNtB7_20LockFreeStreamHandle18acquire_ask_permit0CseMZ9mYNOGxi_25connection_lifecycle_test
FNDA:21,_RNCNvMsf_NtCscNmhOS6QYVL_12kameo_remote15connection_poolNtB7_20LockFreeStreamHandle35write_header_and_payload_ask_inline0CseMZ9mYNOGxi_25connection_lifecycle_test
FNDA:48,_RNCNvMsi_NtCscNmhOS6QYVL_12kameo_remote15connection_poolNtB7_11TellMessage8send_via0CseMZ9mYNOGxi_25connection_lifecycle_test
FNDA:21,_RNCNvMsr_NtCscNmhOS6QYVL_12kameo_remote15connection_poolNtB7_18CorrelationTracker17wait_for_response0CseMZ9mYNOGxi_25connection_lifecycle_test
FNDA:0,_RNCNvMsv_NtCscNmhOS6QYVL_12kameo_remote15connection_poolNtB7_16ConnectionHandle10tell_batch0CseMZ9mYNOGxi_25connection_lifecycle_test
FNDA:21,_RNCNvMsv_NtCscNmhOS6QYVL_12kameo_remote15connection_poolNtB7_16ConnectionHandle16ask_with_timeout0CseMZ9mYNOGxi_25connection_lifecycle_test
FNDA:21,_RNCNvMsv_NtCscNmhOS6QYVL_12kameo_remote15connection_poolNtB7_16ConnectionHandle3ask0CseMZ9mYNOGxi_25connection_lifecycle_test
FNDA:48,_RNCNvMsv_NtCscNmhOS6QYVL_12kameo_remote15connection_poolNtB7_16ConnectionHandle8tell_raw0CseMZ9mYNOGxi_25connection_lifecycle_test
FNDA:4,_RNCNvMsw_NtCscNmhOS6QYVL_12kameo_remote15connection_poolNtB7_14ConnectionPool22get_connection_to_peer0CseMZ9mYNOGxi_25connection_lifecycle_test
FNDA:0,_RNvMsf_NtCscNmhOS6QYVL_12kameo_remote15connection_poolNtB5_20LockFreeStreamHandle19write_bytes_controlCsQ4Soct5oTX_21crypto_security_tests
FNDA:0,_RINvMsv_NtCscNmhOS6QYVL_12kameo_remote15connection_poolNtB6_16ConnectionHandle4tellRShECsQ4Soct5oTX_21crypto_security_tests
FNDA:0,_RNCINvMsv_NtCscNmhOS6QYVL_12kameo_remote15connection_poolNtB8_16ConnectionHandle4tellRShE0CsQ4Soct5oTX_21crypto_security_tests
FNDA:0,_RNCNCNvMsv_NtCscNmhOS6QYVL_12kameo_remote15connection_poolNtB9_16ConnectionHandle10tell_batch00CsQ4Soct5oTX_21crypto_security_tests
FNDA:1,_RNCNCNvMsw_NtCscNmhOS6QYVL_12kameo_remote15connection_poolNtB9_14ConnectionPool22get_connection_to_peer00CsQ4Soct5oTX_21crypto_security_tests
FNDA:0,_RNCNvMsi_NtCscNmhOS6QYVL_12kameo_remote15connection_poolNtB7_11TellMessage8send_via0CsQ4Soct5oTX_21crypto_security_tests
FNDA:0,_RNCNvMsv_NtCscNmhOS6QYVL_12kameo_remote15connection_poolNtB7_16ConnectionHandle10tell_batch0CsQ4Soct5oTX_21crypto_security_tests
FNDA:0,_RNCNvMsv_NtCscNmhOS6QYVL_12kameo_remote15connection_poolNtB7_16ConnectionHandle8tell_raw0CsQ4Soct5oTX_21crypto_security_tests
FNDA:2,_RNCNvMsw_NtCscNmhOS6QYVL_12kameo_remote15connection_poolNtB7_14ConnectionPool22get_connection_to_peer0CsQ4Soct5oTX_21crypto_security_tests
FNDA:1,_RINvMsf_NtCscNmhOS6QYVL_12kameo_remote15connection_poolNtB6_20LockFreeStreamHandle22background_writer_taskNtNtNtNtCsh4ISjvibZbV_5tokio2io4util3mem12DuplexStreamECs9vT5Lgu9Bt6_12flow_control
FNDA:1,_RINvMsf_NtCscNmhOS6QYVL_12kameo_remote15connection_poolNtB6_20LockFreeStreamHandle3newNtNtNtNtCsh4ISjvibZbV_5tokio2io4util3mem12DuplexStreamECs9vT5Lgu9Bt6_12flow_control
FNDA:0,_RINvNtCscNmhOS6QYVL_12kameo_remote15connection_pool24write_bytes_vectored_allINtNtNtNtCsh4ISjvibZbV_5tokio2io4util10buf_writer9BufWriterNtNtB1i_3mem12DuplexStreamEECs9vT5Lgu9Bt6_12flow_control
FNDA:1,_RNCINvMsf_NtCscNmhOS6QYVL_12kameo_remote15connection_poolNtB8_20LockFreeStreamHandle22background_writer_taskNtNtNtNtCsh4ISjvibZbV_5tokio2io4util3mem12DuplexStreamE0Cs9vT5Lgu9Bt6_12flow_control
FNDA:1,_RNCINvMsf_NtCscNmhOS6QYVL_12kameo_remote15connection_poolNtB8_20LockFreeStreamHandle3newNtNtNtNtCsh4ISjvibZbV_5tokio2io4util3mem12DuplexStreamE0Cs9vT5Lgu9Bt6_12flow_control
FNDA:0,_RNCINvNtCscNmhOS6QYVL_12kameo_remote15connection_pool24write_bytes_vectored_allINtNtNtNtCsh4ISjvibZbV_5tokio2io4util10buf_writer9BufWriterNtNtB1k_3mem12DuplexStreamEE0Cs9vT5Lgu9Bt6_12flow_control
FNDA:1000,_RNCNvMsf_NtCscNmhOS6QYVL_12kameo_remote15connection_poolNtB7_20LockFreeStreamHandle15write_bytes_ask0Cs9vT5Lgu9Bt6_12flow_control
FNDA:1000,_RNCNvMsf_NtCscNmhOS6QYVL_12kameo_remote15connection_poolNtB7_20LockFreeStreamHandle18acquire_ask_permit0Cs9vT5Lgu9Bt6_12flow_control
FNDA:1000,_RNvMsf_NtCscNmhOS6QYVL_12kameo_remote15connection_poolNtB5_20LockFreeStreamHandle15write_bytes_askCs9vT5Lgu9Bt6_12flow_control
FNDA:0,_RINvMsv_NtCscNmhOS6QYVL_12kameo_remote15connection_poolNtB6_16ConnectionHandle4tellRShECs4cwBtOJSvgn_19gossip_conflict_e2e
FNDA:0,_RNCINvMsv_NtCscNmhOS6QYVL_12kameo_remote15connection_poolNtB8_16ConnectionHandle4tellRShE0Cs4cwBtOJSvgn_19gossip_conflict_e2e
FNDA:0,_RNCNCNvMsv_NtCscNmhOS6QYVL_12kameo_remote15connection_poolNtB9_16ConnectionHandle10tell_batch00Cs4cwBtOJSvgn_19gossip_conflict_e2e
FNDA:0,_RNCNCNvMsw_NtCscNmhOS6QYVL_12kameo_remote15connection_poolNtB9_14ConnectionPool22get_connection_to_peer00Cs4cwBtOJSvgn_19gossip_conflict_e2e
FNDA:0,_RNCNvMsi_NtCscNmhOS6QYVL_12kameo_remote15connection_poolNtB7_11TellMessage8send_via0Cs4cwBtOJSvgn_19gossip_conflict_e2e
FNDA:0,_RNCNvMsv_NtCscNmhOS6QYVL_12kameo_remote15connection_poolNtB7_16ConnectionHandle10tell_batch0Cs4cwBtOJSvgn_19gossip_conflict_e2e
FNDA:0,_RNCNvMsv_NtCscNmhOS6QYVL_12kameo_remote15connection_poolNtB7_16ConnectionHandle8tell_raw0Cs4cwBtOJSvgn_19gossip_conflict_e2e
FNDA:2,_RNCNvMsw_NtCscNmhOS6QYVL_12kameo_remote15connection_poolNtB7_14ConnectionPool22get_connection_to_peer0Cs4cwBtOJSvgn_19gossip_conflict_e2e
FNDA:0,_RNvMsf_NtCscNmhOS6QYVL_12kameo_remote15connection_poolNtB5_20LockFreeStreamHandle19write_bytes_controlCs4cwBtOJSvgn_19gossip_conflict_e2e
FNDA:1,_RINvMsv_NtCscNmhOS6QYVL_12kameo_remote15connection_poolNtB6_16ConnectionHandle4tellRShECs1ne0vv3Fhzm_16gossip_e2e_tests
FNDA:1,_RNCINvMsv_NtCscNmhOS6QYVL_12kameo_remote15connection_poolNtB8_16ConnectionHandle4tellRShE0Cs1ne0vv3Fhzm_16gossip_e2e_tests
FNDA:0,_RNCNCNvMsv_NtCscNmhOS6QYVL_12kameo_remote15connection_poolNtB9_16ConnectionHandle10tell_batch00Cs1ne0vv3Fhzm_16gossip_e2e_tests
FNDA:1,_RNCNvMsi_NtCscNmhOS6QYVL_12kameo_remote15connection_poolNtB7_11TellMessage8send_via0Cs1ne0vv3Fhzm_16gossip_e2e_tests
FNDA:0,_RNCNvMsv_NtCscNmhOS6QYVL_12kameo_remote15connection_poolNtB7_16ConnectionHandle10tell_batch0Cs1ne0vv3Fhzm_16gossip_e2e_tests
FNDA:1,_RNCNvMsv_NtCscNmhOS6QYVL_12kameo_remote15connection_poolNtB7_16ConnectionHandle8tell_raw0Cs1ne0vv3Fhzm_16gossip_e2e_tests
FNDA:1,_RNvMsf_NtCscNmhOS6QYVL_12kameo_remote15connection_poolNtB5_20LockFreeStreamHandle19write_bytes_controlCs1ne0vv3Fhzm_16gossip_e2e_tests
FNDA:6,_RNvMsf_NtCscNmhOS6QYVL_12kameo_remote15connection_poolNtB5_20LockFreeStreamHandle19write_bytes_controlCs8rLwhA5jnOy_17gossip_matrix_e2e
FNDA:6,_RINvMsv_NtCscNmhOS6QYVL_12kameo_remote15connection_poolNtB6_16ConnectionHandle4tellRShECs8rLwhA5jnOy_17gossip_matrix_e2e
FNDA:6,_RNCINvMsv_NtCscNmhOS6QYVL_12kameo_remote15connection_poolNtB8_16ConnectionHandle4tellRShE0Cs8rLwhA5jnOy_17gossip_matrix_e2e
FNDA:0,_RNCNCNvMsv_NtCscNmhOS6QYVL_12kameo_remote15connection_poolNtB9_16ConnectionHandle10tell_batch00Cs8rLwhA5jnOy_17gossip_matrix_e2e
FNDA:0,_RNCNCNvMsw_NtCscNmhOS6QYVL_12kameo_remote15connection_poolNtB9_14ConnectionPool22get_connection_to_peer00Cs8rLwhA5jnOy_17gossip_matrix_e2e
FNDA:6,_RNCNvMsi_NtCscNmhOS6QYVL_12kameo_remote15connection_poolNtB7_11TellMessage8send_via0Cs8rLwhA5jnOy_17gossip_matrix_e2e
FNDA:0,_RNCNvMsv_NtCscNmhOS6QYVL_12kameo_remote15connection_poolNtB7_16ConnectionHandle10tell_batch0Cs8rLwhA5jnOy_17gossip_matrix_e2e
FNDA:6,_RNCNvMsv_NtCscNmhOS6QYVL_12kameo_remote15connection_poolNtB7_16ConnectionHandle8tell_raw0Cs8rLwhA5jnOy_17gossip_matrix_e2e
FNDA:6,_RNCNvMsw_NtCscNmhOS6QYVL_12kameo_remote15connection_poolNtB7_14ConnectionPool22get_connection_to_peer0Cs8rLwhA5jnOy_17gossip_matrix_e2e
FNDA:10,_RINvMsv_NtCscNmhOS6QYVL_12kameo_remote15connection_poolNtB6_16ConnectionHandle4tellRShECs8Yv4B2eQpLz_20gossip_partition_e2e
FNDA:10,_RNCINvMsv_NtCscNmhOS6QYVL_12kameo_remote15connection_poolNtB8_16ConnectionHandle4tellRShE0Cs8Yv4B2eQpLz_20gossip_partition_e2e
FNDA:0,_RNCNCNvMsv_NtCscNmhOS6QYVL_12kameo_remote15connection_poolNtB9_16ConnectionHandle10tell_batch00Cs8Yv4B2eQpLz_20gossip_partition_e2e
FNDA:0,_RNCNCNvMsw_NtCscNmhOS6QYVL_12kameo_remote15connection_poolNtB9_14ConnectionPool22get_connection_to_peer00Cs8Yv4B2eQpLz_20gossip_partition_e2e
FNDA:10,_RNCNvMsi_NtCscNmhOS6QYVL_12kameo_remote15connection_poolNtB7_11TellMessage8send_via0Cs8Yv4B2eQpLz_20gossip_partition_e2e
FNDA:0,_RNCNvMsv_NtCscNmhOS6QYVL_12kameo_remote15connection_poolNtB7_16ConnectionHandle10tell_batch0Cs8Yv4B2eQpLz_20gossip_partition_e2e
FNDA:10,_RNCNvMsv_NtCscNmhOS6QYVL_12kameo_remote15connection_poolNtB7_16ConnectionHandle8tell_raw0Cs8Yv4B2eQpLz_20gossip_partition_e2e
FNDA:6,_RNCNvMsw_NtCscNmhOS6QYVL_12kameo_remote15connection_poolNtB7_14ConnectionPool22get_connection_to_peer0Cs8Yv4B2eQpLz_20gossip_partition_e2e
FNDA:10,_RNvMsf_NtCscNmhOS6QYVL_12kameo_remote15connection_poolNtB5_20LockFreeStreamHandle19write_bytes_controlCs8Yv4B2eQpLz_20gossip_partition_e2e
FNDA:0,_RNvMsf_NtCscNmhOS6QYVL_12kameo_remote15connection_poolNtB5_20LockFreeStreamHandle19write_bytes_controlCsjFVaWVs31kC_18gossip_removal_e2e
FNDA:0,_RINvMsv_NtCscNmhOS6QYVL_12kameo_remote15connection_poolNtB6_16ConnectionHandle4tellRShECsjFVaWVs31kC_18gossip_removal_e2e
FNDA:0,_RNCINvMsv_NtCscNmhOS6QYVL_12kameo_remote15connection_poolNtB8_16ConnectionHandle4tellRShE0CsjFVaWVs31kC_18gossip_removal_e2e
FNDA:0,_RNCNCNvMsv_NtCscNmhOS6QYVL_12kameo_remote15connection_poolNtB9_16ConnectionHandle10tell_batch00CsjFVaWVs31kC_18gossip_removal_e2e
FNDA:0,_RNCNCNvMsw_NtCscNmhOS6QYVL_12kameo_remote15connection_poolNtB9_14ConnectionPool22get_connection_to_peer00CsjFVaWVs31kC_18gossip_removal_e2e
FNDA:0,_RNCNvMsi_NtCscNmhOS6QYVL_12kameo_remote15connection_poolNtB7_11TellMessage8send_via0CsjFVaWVs31kC_18gossip_removal_e2e
FNDA:0,_RNCNvMsv_NtCscNmhOS6QYVL_12kameo_remote15connection_poolNtB7_16ConnectionHandle10tell_batch0CsjFVaWVs31kC_18gossip_removal_e2e
FNDA:0,_RNCNvMsv_NtCscNmhOS6QYVL_12kameo_remote15connection_poolNtB7_16ConnectionHandle8tell_raw0CsjFVaWVs31kC_18gossip_removal_e2e
FNDA:2,_RNCNvMsw_NtCscNmhOS6QYVL_12kameo_remote15connection_poolNtB7_14ConnectionPool22get_connection_to_peer0CsjFVaWVs31kC_18gossip_removal_e2e
FNDA:0,_RINvMsf_NtCs4ULJ6nbTBOi_12kameo_remote15connection_poolNtB6_20LockFreeStreamHandle13write_buf_askpEB8_
FNDA:0,_RINvMsf_NtCs4ULJ6nbTBOi_12kameo_remote15connection_poolNtB6_20LockFreeStreamHandle17write_buf_controlpEB8_
FNDA:0,_RINvMsf_NtCs4ULJ6nbTBOi_12kameo_remote15connection_poolNtB6_20LockFreeStreamHandle43write_header_and_payload_control_inline_bufpEB8_
FNDA:0,_RINvMsv_NtCs4ULJ6nbTBOi_12kameo_remote15connection_poolNtB6_16ConnectionHandle10tell_smartpEB8_
FNDA:0,_RINvMsv_NtCs4ULJ6nbTBOi_12kameo_remote15connection_poolNtB6_16ConnectionHandle10tell_typedpEB8_
FNDA:0,_RINvMsv_NtCs4ULJ6nbTBOi_12kameo_remote15connection_poolNtB6_16ConnectionHandle11stream_sendpEB8_
FNDA:0,_RINvMsv_NtCs4ULJ6nbTBOi_12kameo_remote15connection_poolNtB6_16ConnectionHandle17send_response_bufpEB8_
FNDA:0,_RINvMsv_NtCs4ULJ6nbTBOi_12kameo_remote15connection_poolNtB6_16ConnectionHandle17stream_send_batchpEB8_
FNDA:0,_RINvMsv_NtCs4ULJ6nbTBOi_12kameo_remote15connection_poolNtB6_16ConnectionHandle18ask_typed_archivedppEB8_
FNDA:0,_RINvMsv_NtCs4ULJ6nbTBOi_12kameo_remote15connection_poolNtB6_16ConnectionHandle31ask_typed_archived_with_timeoutppEB8_
FNDA:0,_RINvMsv_NtCs4ULJ6nbTBOi_12kameo_remote15connection_poolNtB6_16ConnectionHandle9tell_manypEB8_
FNDA:0,_RNCINvMsf_NtCs4ULJ6nbTBOi_12kameo_remote15connection_poolNtB8_20LockFreeStreamHandle13write_buf_askpE0Ba_
FNDA:0,_RNCINvMsf_NtCs4ULJ6nbTBOi_12kameo_remote15connection_poolNtB8_20LockFreeStreamHandle17write_buf_controlpE0Ba_
FNDA:0,_RNCINvMsf_NtCs4ULJ6nbTBOi_12kameo_remote15connection_poolNtB8_20LockFreeStreamHandle43write_header_and_payload_control_inline_bufpE0Ba_
FNDA:0,_RNCINvMsv_NtCs4ULJ6nbTBOi_12kameo_remote15connection_poolNtB8_16ConnectionHandle10tell_smartpE0Ba_
FNDA:0,_RNCINvMsv_NtCs4ULJ6nbTBOi_12kameo_remote15connection_poolNtB8_16ConnectionHandle10tell_typedpE0Ba_
FNDA:0,_RNCINvMsv_NtCs4ULJ6nbTBOi_12kameo_remote15connection_poolNtB8_16ConnectionHandle11stream_sendpE0Ba_
FNDA:0,_RNCINvMsv_NtCs4ULJ6nbTBOi_12kameo_remote15connection_poolNtB8_16ConnectionHandle17send_response_bufpE0Ba_
FNDA:0,_RNCINvMsv_NtCs4ULJ6nbTBOi_12kameo_remote15connection_poolNtB8_16ConnectionHandle17stream_send_batchpE0Ba_
FNDA:0,_RNCINvMsv_NtCs4ULJ6nbTBOi_12kameo_remote15connection_poolNtB8_16ConnectionHandle18ask_typed_archivedppE0Ba_
FNDA:0,_RNCINvMsv_NtCs4ULJ6nbTBOi_12kameo_remote15connection_poolNtB8_16ConnectionHandle31ask_typed_archived_with_timeoutppE0Ba_
FNDA:0,_RNCINvMsv_NtCs4ULJ6nbTBOi_12kameo_remote15connection_poolNtB8_16ConnectionHandle9tell_manypE0Ba_
FNDA:0,_RNCNCINvMsv_NtCs4ULJ6nbTBOi_12kameo_remote15connection_poolNtBa_16ConnectionHandle10tell_smartpE00Bc_
FNDA:0,_RNCNCINvMsv_NtCs4ULJ6nbTBOi_12kameo_remote15connection_poolNtBa_16ConnectionHandle9tell_manypE00Bc_
FNDA:0,_RNCNCNCNvMsw_NtCs4ULJ6nbTBOi_12kameo_remote15connection_poolNtBb_14ConnectionPool35handle_persistent_connection_reader000Bd_
FNDA:0,_RNCNCNCNvMsw_NtCs4ULJ6nbTBOi_12kameo_remote15connection_poolNtBb_14ConnectionPool35handle_persistent_connection_reader00s_0Bd_
FNDA:0,_RNCNCNvMsv_NtCs4ULJ6nbTBOi_12kameo_remote15connection_poolNtB9_16ConnectionHandle19ask_batch_optimized00Bb_
FNDA:0,_RNCNCNvMsv_NtCs4ULJ6nbTBOi_12kameo_remote15connection_poolNtB9_16ConnectionHandle19ask_batch_optimized0s_0Bb_
FNDA:0,_RNCNCNvMsv_NtCs4ULJ6nbTBOi_12kameo_remote15connection_poolNtB9_16ConnectionHandle20send_response_pooled00Bb_
FNDA:0,_RNCNCNvMsv_NtCs4ULJ6nbTBOi_12kameo_remote15connection_poolNtB9_16ConnectionHandle22ask_batch_with_timeout00Bb_
FNDA:0,_RNCNCNvMsv_NtCs4ULJ6nbTBOi_12kameo_remote15connection_poolNtB9_16ConnectionHandle9ask_batch00Bb_
FNDA:0,_RNCNCNvMsw_NtCs4ULJ6nbTBOi_12kameo_remote15connection_poolNtB9_14ConnectionPool35handle_persistent_connection_reader00Bb_
FNDA:0,_RNCNCNvMsw_NtCs4ULJ6nbTBOi_12kameo_remote15connection_poolNtB9_14ConnectionPool35handle_persistent_connection_reader0s0_0Bb_
FNDA:0,_RNCNCNvMsw_NtCs4ULJ6nbTBOi_12kameo_remote15connection_poolNtB9_14ConnectionPool35handle_persistent_connection_reader0s1_0Bb_
FNDA:0,_RNCNCNvMsw_NtCs4ULJ6nbTBOi_12kameo_remote15connection_poolNtB9_14ConnectionPool35handle_persistent_connection_reader0s2_0Bb_
FNDA:0,_RNCNCNvMsw_NtCs4ULJ6nbTBOi_12kameo_remote15connection_poolNtB9_14ConnectionPool35handle_persistent_connection_reader0s_0Bb_
FNDA:0,_RNCNvMsf_NtCs4ULJ6nbTBOi_12kameo_remote15connection_poolNtB7_20LockFreeStreamHandle15write_bytes_ask0B9_
FNDA:0,_RNCNvMsf_NtCs4ULJ6nbTBOi_12kameo_remote15connection_poolNtB7_20LockFreeStreamHandle16write_pooled_ask0B9_
FNDA:0,_RNCNvMsf_NtCs4ULJ6nbTBOi_12kameo_remote15connection_poolNtB7_20LockFreeStreamHandle17flush_immediately0B9_
FNDA:0,_RNCNvMsf_NtCs4ULJ6nbTBOi_12kameo_remote15connection_poolNtB7_20LockFreeStreamHandle20stream_large_message0B9_
FNDA:0,_RNCNvMsf_NtCs4ULJ6nbTBOi_12kameo_remote15connection_poolNtB7_20LockFreeStreamHandle20write_pooled_control0B9_
FNDA:0,_RNCNvMsf_NtCs4ULJ6nbTBOi_12kameo_remote15connection_poolNtB7_20LockFreeStreamHandle23write_pooled_ask_inline0B9_
FNDA:0,_RNCNvMsf_NtCs4ULJ6nbTBOi_12kameo_remote15connection_poolNtB7_20LockFreeStreamHandle26stream_large_message_bytes0B9_
FNDA:0,_RNCNvMsf_NtCs4ULJ6nbTBOi_12kameo_remote15connection_poolNtB7_20LockFreeStreamHandle26stream_large_message_zoned0B9_
FNDA:0,_RNCNvMsf_NtCs4ULJ6nbTBOi_12kameo_remote15connection_poolNtB7_20LockFreeStreamHandle26write_vectored_nonblocking0B9_
FNDA:0,_RNCNvMsf_NtCs4ULJ6nbTBOi_12kameo_remote15connection_poolNtB7_20LockFreeStreamHandle27write_pooled_control_inline0B9_
FNDA:0,_RNCNvMsf_NtCs4ULJ6nbTBOi_12kameo_remote15connection_poolNtB7_20LockFreeStreamHandle28write_header_and_payload_ask0B9_
FNDA:0,_RNCNvMsf_NtCs4ULJ6nbTBOi_12kameo_remote15connection_poolNtB7_20LockFreeStreamHandle29stream_large_message_internal0B9_
FNDA:0,_RNCNvMsf_NtCs4ULJ6nbTBOi_12kameo_remote15connection_poolNtB7_20LockFreeStreamHandle32write_header_and_payload_control0B9_
FNDA:0,_RNCNvMsf_NtCs4ULJ6nbTBOi_12kameo_remote15connection_poolNtB7_20LockFreeStreamHandle35stream_large_message_internal_bytes0B9_
FNDA:0,_RNCNvMsf_NtCs4ULJ6nbTBOi_12kameo_remote15connection_poolNtB7_20LockFreeStreamHandle35write_header_and_payload_ask_inline0B9_
FNDA:0,_RNCNvMsf_NtCs4ULJ6nbTBOi_12kameo_remote15connection_poolNtB7_20LockFreeStreamHandle37stream_large_message_with_correlation0B9_
FNDA:0,_RNCNvMsf_NtCs4ULJ6nbTBOi_12kameo_remote15connection_poolNtB7_20LockFreeStreamHandle43stream_large_message_with_correlation_bytes0B9_
FNDA:0,_RNCNvMsr_NtCs4ULJ6nbTBOi_12kameo_remote15connection_poolNtB7_18CorrelationTracker17wait_for_response0B9_
FNDA:0,_RNCNvMst_NtCs4ULJ6nbTBOi_12kameo_remote15connection_poolNtB7_20DelegatedReplySender14wait_for_reply0B9_
FNDA:0,_RNCNvMst_NtCs4ULJ6nbTBOi_12kameo_remote15connection_poolNtB7_20DelegatedReplySender27wait_for_reply_with_timeout0B9_
FNDA:0,_RNCNvMsv_NtCs4ULJ6nbTBOi_12kameo_remote15connection_poolNtB7_16ConnectionHandle10tell_bytes0B9_
FNDA:0,_RNCNvMsv_NtCs4ULJ6nbTBOi_12kameo_remote15connection_poolNtB7_16ConnectionHandle13ask_streaming0B9_
FNDA:0,_RNCNvMsv_NtCs4ULJ6nbTBOi_12kameo_remote15connection_poolNtB7_16ConnectionHandle13send_messages0B9_
FNDA:0,_RNCNvMsv_NtCs4ULJ6nbTBOi_12kameo_remote15connection_poolNtB7_16ConnectionHandle14send_raw_bytes0B9_
FNDA:0,_RNCNvMsv_NtCs4ULJ6nbTBOi_12kameo_remote15connection_poolNtB7_16ConnectionHandle16ask_with_timeout0B9_
FNDA:0,_RNCNvMsv_NtCs4ULJ6nbTBOi_12kameo_remote15connection_poolNtB7_16ConnectionHandle17ask_with_reply_to0B9_
FNDA:0,_RNCNvMsv_NtCs4ULJ6nbTBOi_12kameo_remote15connection_poolNtB7_16ConnectionHandle17send_tell_message0B9_
FNDA:0,_RNCNvMsv_NtCs4ULJ6nbTBOi_12kameo_remote15connection_poolNtB7_16ConnectionHandle19ask_batch_optimized0B9_
FNDA:0,_RNCNvMsv_NtCs4ULJ6nbTBOi_12kameo_remote15connection_poolNtB7_16ConnectionHandle19ask_streaming_bytes0B9_
FNDA:0,_RNCNvMsv_NtCs4ULJ6nbTBOi_12kameo_remote15connection_poolNtB7_16ConnectionHandle19send_binary_message0B9_
FNDA:0,_RNCNvMsv_NtCs4ULJ6nbTBOi_12kameo_remote15connection_poolNtB7_16ConnectionHandle19send_response_bytes0B9_
FNDA:0,_RNCNvMsv_NtCs4ULJ6nbTBOi_12kameo_remote15connection_poolNtB7_16ConnectionHandle20send_bytes_zero_copy0B9_
FNDA:0,_RNCNvMsv_NtCs4ULJ6nbTBOi_12kameo_remote15connection_poolNtB7_16ConnectionHandle20send_response_pooled0B9_
FNDA:0,_RNCNvMsv_NtCs4ULJ6nbTBOi_12kameo_remote15connection_poolNtB7_16ConnectionHandle20stream_large_message0B9_
FNDA:0,_RNCNvMsv_NtCs4ULJ6nbTBOi_12kameo_remote15connection_poolNtB7_16ConnectionHandle21ask_with_reply_sender0B9_
FNDA:0,_RNCNvMsv_NtCs4ULJ6nbTBOi_12kameo_remote15connection_poolNtB7_16ConnectionHandle22ask_batch_with_timeout0B9_
FNDA:0,_RNCNvMsv_NtCs4ULJ6nbTBOi_12kameo_remote15connection_poolNtB7_16ConnectionHandle23ask_with_timeout_pooled0B9_
FNDA:0,_RNCNvMsv_NtCs4ULJ6nbTBOi_12kameo_remote15connection_poolNtB7_16ConnectionHandle26ask_with_timeout_and_reply0B9_
FNDA:0,_RNCNvMsv_NtCs4ULJ6nbTBOi_12kameo_remote15connection_poolNtB7_16ConnectionHandle26peer_supports_streaming_v20B9_
FNDA:0,_RNCNvMsv_NtCs4ULJ6nbTBOi_12kameo_remote15connection_poolNtB7_16ConnectionHandle26peer_supports_streaming_v2s_0B9_
FNDA:0,_RNCNvMsv_NtCs4ULJ6nbTBOi_12kameo_remote15connection_poolNtB7_16ConnectionHandle3ask0B9_
FNDA:0,_RNCNvMsv_NtCs4ULJ6nbTBOi_12kameo_remote15connection_poolNtB7_16ConnectionHandle8send_raw0B9_
FNDA:0,_RNCNvMsv_NtCs4ULJ6nbTBOi_12kameo_remote15connection_poolNtB7_16ConnectionHandle9ask_batch0B9_
FNDA:0,_RNCNvMsv_NtCs4ULJ6nbTBOi_12kameo_remote15connection_poolNtB7_16ConnectionHandle9tell_auto0B9_
FNDA:0,_RNCNvMsw_NtCs4ULJ6nbTBOi_12kameo_remote15connection_poolNtB7_14ConnectionPool18get_message_buffer0B9_
FNDA:0,_RNCNvMsw_NtCs4ULJ6nbTBOi_12kameo_remote15connection_poolNtB7_14ConnectionPool19get_all_connections0B9_
FNDA:0,_RNCNvMsw_NtCs4ULJ6nbTBOi_12kameo_remote15connection_poolNtB7_14ConnectionPool19get_connected_peers0B9_
FNDA:0,_RNCNvMsw_NtCs4ULJ6nbTBOi_12kameo_remote15connection_poolNtB7_14ConnectionPool23check_connection_health0B9_
FNDA:0,_RNCNvMsw_NtCs4ULJ6nbTBOi_12kameo_remote15connection_poolNtB7_14ConnectionPool24add_lock_free_connection0B9_
FNDA:0,_RNCNvMsw_NtCs4ULJ6nbTBOi_12kameo_remote15connection_poolNtB7_14ConnectionPool24add_lock_free_connections0_0B9_
FNDA:0,_RNCNvMsw_NtCs4ULJ6nbTBOi_12kameo_remote15connection_poolNtB7_14ConnectionPool24add_lock_free_connections_0B9_
FNDA:0,_RNCNvMsw_NtCs4ULJ6nbTBOi_12kameo_remote15connection_poolNtB7_14ConnectionPool35handle_persistent_connection_reader0B9_
FNDA:0,_RNCNvXs5_NtCs4ULJ6nbTBOi_12kameo_remote15connection_poolNtB7_12WritePayloadNtNtCs85QQFkKrybG_4core3fmt5Debug3fmt0B9_
FNDA:0,_RNvMNtCs4ULJ6nbTBOi_12kameo_remote15connection_poolNtB2_11TaskTracker12abort_writer
FNDA:0,_RNvMNtCs4ULJ6nbTBOi_12kameo_remote15connection_poolNtB2_11TaskTracker13detach_reader
FNDA:0,_RNvMs0_NtCs4ULJ6nbTBOi_12kameo_remote15connection_poolNtB5_12BufferConfig11from_master
FNDA:0,_RNvMs4_NtCs4ULJ6nbTBOi_12kameo_remote15connection_poolNtB5_18LockFreeConnection11abort_tasks
FNDA:0,_RNvMs4_NtCs4ULJ6nbTBOi_12kameo_remote15connection_poolNtB5_18LockFreeConnection13try_set_state
FNDA:0,_RNvMs4_NtCs4ULJ6nbTBOi_12kameo_remote15connection_poolNtB5_18LockFreeConnection19reset_failure_count
FNDA:0,_RNvMs4_NtCs4ULJ6nbTBOi_12kameo_remote15connection_poolNtB5_18LockFreeConnection23increment_failure_count
FNDA:0,_RNvMs4_NtCs4ULJ6nbTBOi_12kameo_remote15connection_poolNtB5_18LockFreeConnection9is_failed
FNDA:0,_RNvMsd_NtCs4ULJ6nbTBOi_12kameo_remote15connection_poolNtB5_17MessageBufferPool15available_count
FNDA:0,_RNvMsd_NtCs4ULJ6nbTBOi_12kameo_remote15connection_poolNtB5_17MessageBufferPool8is_empty
FNDA:0,_RNvMse_NtCs4ULJ6nbTBOi_12kameo_remote15connection_poolNtB5_18LockFreeRingBuffer11utilization
FNDA:0,_RNvMse_NtCs4ULJ6nbTBOi_12kameo_remote15connection_poolNtB5_18LockFreeRingBuffer14is_nearly_full
FNDA:0,_RNvMsf_NtCs4ULJ6nbTBOi_12kameo_remote15connection_poolNtB5_20LockFreeStreamHandle10channel_id
FNDA:0,_RNvMsf_NtCs4ULJ6nbTBOi_12kameo_remote15connection_poolNtB5_20LockFreeStreamHandle13buffer_status
FNDA:0,_RNvMsf_NtCs4ULJ6nbTBOi_12kameo_remote15connection_poolNtB5_20LockFreeStreamHandle13bytes_written
FNDA:0,_RNvMsf_NtCs4ULJ6nbTBOi_12kameo_remote15connection_poolNtB5_20LockFreeStreamHandle14is_buffer_full
FNDA:0,_RNvMsf_NtCs4ULJ6nbTBOi_12kameo_remote15connection_poolNtB5_20LockFreeStreamHandle15sequence_number
FNDA:0,_RNvMsf_NtCs4ULJ6nbTBOi_12kameo_remote15connection_poolNtB5_20LockFreeStreamHandle15write_bytes_askB7_
FNDA:0,_RNvMsf_NtCs4ULJ6nbTBOi_12kameo_remote15connection_poolNtB5_20LockFreeStreamHandle16write_pooled_ask
FNDA:0,_RNvMsf_NtCs4ULJ6nbTBOi_12kameo_remote15connection_poolNtB5_20LockFreeStreamHandle17flush_immediately
FNDA:0,_RNvMsf_NtCs4ULJ6nbTBOi_12kameo_remote15connection_poolNtB5_20LockFreeStreamHandle18write_owned_chunks
FNDA:0,_RNvMsf_NtCs4ULJ6nbTBOi_12kameo_remote15connection_poolNtB5_20LockFreeStreamHandle19streaming_threshold
FNDA:0,_RNvMsf_NtCs4ULJ6nbTBOi_12kameo_remote15connection_poolNtB5_20LockFreeStreamHandle20stream_large_message
FNDA:0,_RNvMsf_NtCs4ULJ6nbTBOi_12kameo_remote15connection_poolNtB5_20LockFreeStreamHandle20write_bytes_vectored
FNDA:0,_RNvMsf_NtCs4ULJ6nbTBOi_12kameo_remote15connection_poolNtB5_20LockFreeStreamHandle20write_pooled_control
FNDA:0,_RNvMsf_NtCs4ULJ6nbTBOi_12kameo_remote15connection_poolNtB5_20LockFreeStreamHandle22next_frame_sequence_id
FNDA:0,_RNvMsf_NtCs4ULJ6nbTBOi_12kameo_remote15connection_poolNtB5_20LockFreeStreamHandle23write_pooled_ask_inline
FNDA:0,_RNvMsf_NtCs4ULJ6nbTBOi_12kameo_remote15connection_poolNtB5_20LockFreeStreamHandle25write_chunked_nonblocking
FNDA:0,_RNvMsf_NtCs4ULJ6nbTBOi_12kameo_remote15connection_poolNtB5_20LockFreeStreamHandle26stream_large_message_bytes
FNDA:0,_RNvMsf_NtCs4ULJ6nbTBOi_12kameo_remote15connection_poolNtB5_20LockFreeStreamHandle26stream_large_message_zoned
FNDA:0,_RNvMsf_NtCs4ULJ6nbTBOi_12kameo_remote15connection_poolNtB5_20LockFreeStreamHandle26write_vectored_nonblocking
FNDA:0,_RNvMsf_NtCs4ULJ6nbTBOi_12kameo_remote15connection_poolNtB5_20LockFreeStreamHandle27write_pooled_control_inline
FNDA:0,_RNvMsf_NtCs4ULJ6nbTBOi_12kameo_remote15connection_poolNtB5_20LockFreeStreamHandle28write_header_and_payload_ask
FNDA:0,_RNvMsf_NtCs4ULJ6nbTBOi_12kameo_remote15connection_poolNtB5_20LockFreeStreamHandle29stream_large_message_internal
FNDA:0,_RNvMsf_NtCs4ULJ6nbTBOi_12kameo_remote15connection_poolNtB5_20LockFreeStreamHandle31write_bytes_nonblocking_checked
FNDA:0,_RNvMsf_NtCs4ULJ6nbTBOi_12kameo_remote15connection_poolNtB5_20LockFreeStreamHandle32write_header_and_payload_control
FNDA:0,_RNvMsf_NtCs4ULJ6nbTBOi_12kameo_remote15connection_poolNtB5_20LockFreeStreamHandle35stream_large_message_internal_bytes
FNDA:0,_RNvMsf_NtCs4ULJ6nbTBOi_12kameo_remote15connection_poolNtB5_20LockFreeStreamHandle35write_header_and_payload_ask_inline
FNDA:0,_RNvMsf_NtCs4ULJ6nbTBOi_12kameo_remote15connection_poolNtB5_20LockFreeStreamHandle36write_header_and_payload_nonblocking
FNDA:0,_RNvMsf_NtCs4ULJ6nbTBOi_12kameo_remote15connection_poolNtB5_20LockFreeStreamHandle37stream_large_message_with_correlation
FNDA:0,_RNvMsf_NtCs4ULJ6nbTBOi_12kameo_remote15connection_poolNtB5_20LockFreeStreamHandle43stream_large_message_with_correlation_bytes
FNDA:0,_RNvMsf_NtCs4ULJ6nbTBOi_12kameo_remote15connection_poolNtB5_20LockFreeStreamHandle44write_header_and_payload_nonblocking_checked
FNDA:0,_RNvMsf_NtCs4ULJ6nbTBOi_12kameo_remote15connection_poolNtB5_20LockFreeStreamHandle4addr
FNDA:0,_RNvMsi_NtCs4ULJ6nbTBOi_12kameo_remote15connection_poolNtB5_11TellMessage10from_slice
FNDA:0,_RNvMsi_NtCs4ULJ6nbTBOi_12kameo_remote15connection_poolNtB5_11TellMessage5batch
FNDA:0,_RNvMsi_NtCs4ULJ6nbTBOi_12kameo_remote15connection_poolNtB5_11TellMessage6single
FNDA:0,_RNvMsr_NtCs4ULJ6nbTBOi_12kameo_remote15connection_poolNtB5_18CorrelationTracker13take_response
FNDA:0,_RNvMsr_NtCs4ULJ6nbTBOi_12kameo_remote15connection_poolNtB5_18CorrelationTracker17wait_for_response
FNDA:0,_RNvMsr_NtCs4ULJ6nbTBOi_12kameo_remote15connection_poolNtB5_18CorrelationTracker6cancel
FNDA:0,_RNvMsr_NtCs4ULJ6nbTBOi_12kameo_remote15connection_poolNtB5_18CorrelationTracker8allocate
FNDA:0,_RNvMst_NtCs4ULJ6nbTBOi_12kameo_remote15connection_poolNtB5_20DelegatedReplySender11reply_error
FNDA:0,_RNvMst_NtCs4ULJ6nbTBOi_12kameo_remote15connection_poolNtB5_20DelegatedReplySender11request_len
FNDA:0,_RNvMst_NtCs4ULJ6nbTBOi_12kameo_remote15connection_poolNtB5_20DelegatedReplySender12is_timed_out
FNDA:0,_RNvMst_NtCs4ULJ6nbTBOi_12kameo_remote15connection_poolNtB5_20DelegatedReplySender14wait_for_reply
FNDA:0,_RNvMst_NtCs4ULJ6nbTBOi_12kameo_remote15connection_poolNtB5_20DelegatedReplySender16new_with_timeout
FNDA:0,_RNvMst_NtCs4ULJ6nbTBOi_12kameo_remote15connection_poolNtB5_20DelegatedReplySender17create_mock_reply
FNDA:0,_RNvMst_NtCs4ULJ6nbTBOi_12kameo_remote15connection_poolNtB5_20DelegatedReplySender27wait_for_reply_with_timeout
FNDA:0,_RNvMst_NtCs4ULJ6nbTBOi_12kameo_remote15connection_poolNtB5_20DelegatedReplySender3new
FNDA:0,_RNvMst_NtCs4ULJ6nbTBOi_12kameo_remote15connection_poolNtB5_20DelegatedReplySender5reply
FNDA:0,_RNvMst_NtCs4ULJ6nbTBOi_12kameo_remote15connection_poolNtB5_20DelegatedReplySender7elapsed
FNDA:0,_RNvMsv_NtCs4ULJ6nbTBOi_12kameo_remote15connection_poolNtB5_16ConnectionHandle10tell_bytes
FNDA:0,_RNvMsv_NtCs4ULJ6nbTBOi_12kameo_remote15connection_poolNtB5_16ConnectionHandle13ask_streaming
FNDA:0,_RNvMsv_NtCs4ULJ6nbTBOi_12kameo_remote15connection_poolNtB5_16ConnectionHandle13send_messages
FNDA:0,_RNvMsv_NtCs4ULJ6nbTBOi_12kameo_remote15connection_poolNtB5_16ConnectionHandle14send_raw_bytes
FNDA:0,_RNvMsv_NtCs4ULJ6nbTBOi_12kameo_remote15connection_poolNtB5_16ConnectionHandle15try_send_direct
FNDA:0,_RNvMsv_NtCs4ULJ6nbTBOi_12kameo_remote15connection_poolNtB5_16ConnectionHandle16ask_with_timeout
FNDA:0,_RNvMsv_NtCs4ULJ6nbTBOi_12kameo_remote15connection_poolNtB5_16ConnectionHandle17ask_with_reply_to
FNDA:0,_RNvMsv_NtCs4ULJ6nbTBOi_12kameo_remote15connection_poolNtB5_16ConnectionHandle17send_tell_message
FNDA:0,_RNvMsv_NtCs4ULJ6nbTBOi_12kameo_remote15connection_poolNtB5_16ConnectionHandle18write_owned_chunks
FNDA:0,_RNvMsv_NtCs4ULJ6nbTBOi_12kameo_remote15connection_poolNtB5_16ConnectionHandle19ask_batch_optimized
FNDA:0,_RNvMsv_NtCs4ULJ6nbTBOi_12kameo_remote15connection_poolNtB5_16ConnectionHandle19ask_streaming_bytes
FNDA:0,_RNvMsv_NtCs4ULJ6nbTBOi_12kameo_remote15connection_poolNtB5_16ConnectionHandle19ensure_streaming_v2
FNDA:0,_RNvMsv_NtCs4ULJ6nbTBOi_12kameo_remote15connection_poolNtB5_16ConnectionHandle19send_binary_message
FNDA:0,_RNvMsv_NtCs4ULJ6nbTBOi_12kameo_remote15connection_poolNtB5_16ConnectionHandle19send_response_bytes
FNDA:0,_RNvMsv_NtCs4ULJ6nbTBOi_12kameo_remote15connection_poolNtB5_16ConnectionHandle19streaming_threshold
FNDA:0,_RNvMsv_NtCs4ULJ6nbTBOi_12kameo_remote15connection_poolNtB5_16ConnectionHandle20get_lock_free_stream
FNDA:0,_RNvMsv_NtCs4ULJ6nbTBOi_12kameo_remote15connection_poolNtB5_16ConnectionHandle20send_bytes_zero_copy
FNDA:0,_RNvMsv_NtCs4ULJ6nbTBOi_12kameo_remote15connection_poolNtB5_16ConnectionHandle20send_response_pooled
FNDA:0,_RNvMsv_NtCs4ULJ6nbTBOi_12kameo_remote15connection_poolNtB5_16ConnectionHandle20stream_large_message
FNDA:0,_RNvMsv_NtCs4ULJ6nbTBOi_12kameo_remote15connection_poolNtB5_16ConnectionHandle20write_bytes_vectored
FNDA:0,_RNvMsv_NtCs4ULJ6nbTBOi_12kameo_remote15connection_poolNtB5_16ConnectionHandle21ask_with_reply_sender
FNDA:0,_RNvMsv_NtCs4ULJ6nbTBOi_12kameo_remote15connection_poolNtB5_16ConnectionHandle22ask_batch_with_timeout
FNDA:0,_RNvMsv_NtCs4ULJ6nbTBOi_12kameo_remote15connection_poolNtB5_16ConnectionHandle23ask_with_timeout_pooled
FNDA:0,_RNvMsv_NtCs4ULJ6nbTBOi_12kameo_remote15connection_poolNtB5_16ConnectionHandle26ask_with_timeout_and_reply
FNDA:0,_RNvMsv_NtCs4ULJ6nbTBOi_12kameo_remote15connection_poolNtB5_16ConnectionHandle26peer_supports_streaming_v2
FNDA:0,_RNvMsv_NtCs4ULJ6nbTBOi_12kameo_remote15connection_poolNtB5_16ConnectionHandle3ask
FNDA:0,_RNvMsv_NtCs4ULJ6nbTBOi_12kameo_remote15connection_poolNtB5_16ConnectionHandle8send_raw
FNDA:0,_RNvMsv_NtCs4ULJ6nbTBOi_12kameo_remote15connection_poolNtB5_16ConnectionHandle9ask_batch
FNDA:0,_RNvMsv_NtCs4ULJ6nbTBOi_12kameo_remote15connection_poolNtB5_16ConnectionHandle9tell_auto
FNDA:0,_RNvMsw_NtCs4ULJ6nbTBOi_12kameo_remote15connection_poolNtB5_14ConnectionPool12send_to_node
FNDA:0,_RNvMsw_NtCs4ULJ6nbTBOi_12kameo_remote15connection_poolNtB5_14ConnectionPool13return_buffer
FNDA:0,_RNvMsw_NtCs4ULJ6nbTBOi_12kameo_remote15connection_poolNtB5_14ConnectionPool15send_to_peer_id
FNDA:0,_RNvMsw_NtCs4ULJ6nbTBOi_12kameo_remote15connection_poolNtB5_14ConnectionPool17mark_disconnected
FNDA:0,_RNvMsw_NtCs4ULJ6nbTBOi_12kameo_remote15connection_poolNtB5_14ConnectionPool18get_message_buffer
FNDA:0,_RNvMsw_NtCs4ULJ6nbTBOi_12kameo_remote15connection_poolNtB5_14ConnectionPool19get_all_connections
FNDA:0,_RNvMsw_NtCs4ULJ6nbTBOi_12kameo_remote15connection_poolNtB5_14ConnectionPool19get_connected_peers
FNDA:0,_RNvMsw_NtCs4ULJ6nbTBOi_12kameo_remote15connection_poolNtB5_14ConnectionPool19update_node_address
FNDA:0,_RNvMsw_NtCs4ULJ6nbTBOi_12kameo_remote15connection_poolNtB5_14ConnectionPool20send_lock_free_parts
FNDA:0,_RNvMsw_NtCs4ULJ6nbTBOi_12kameo_remote15connection_poolNtB5_14ConnectionPool21remove_connection_mut
FNDA:0,_RNvMsw_NtCs4ULJ6nbTBOi_12kameo_remote15connection_poolNtB5_14ConnectionPool21return_message_buffer
FNDA:0,_RNvMsw_NtCs4ULJ6nbTBOi_12kameo_remote15connection_poolNtB5_14ConnectionPool23check_connection_health
FNDA:0,_RNvMsw_NtCs4ULJ6nbTBOi_12kameo_remote15connection_poolNtB5_14ConnectionPool23get_existing_connection
FNDA:0,_RNvMsw_NtCs4ULJ6nbTBOi_12kameo_remote15connection_poolNtB5_14ConnectionPool24add_lock_free_connection
FNDA:0,_RNvMsw_NtCs4ULJ6nbTBOi_12kameo_remote15connection_poolNtB5_14ConnectionPool35handle_persistent_connection_reader
FNDA:0,_RNvXININtCs4ULJ6nbTBOi_12kameo_remote15connection_poolsm_0KpENtB5_11TellMessageINtNtCs85QQFkKrybG_4core7convert4FromRAhpE4fromB7_
FNDA:0,_RNvXs3_NtCs4ULJ6nbTBOi_12kameo_remote15connection_poolNtB5_18LockFreeConnectionNtNtCs85QQFkKrybG_4core5clone5Clone5clone
FNDA:0,_RNvXs5_NtCs4ULJ6nbTBOi_12kameo_remote15connection_poolNtB5_12WritePayloadNtNtCs85QQFkKrybG_4core3fmt5Debug3fmt
FNDA:0,_RNvXs8_NtCs4ULJ6nbTBOi_12kameo_remote15connection_poolNtB5_12WriteCommandNtNtCs85QQFkKrybG_4core3fmt5Debug3fmt
FNDA:0,_RNvXsg_NtCs4ULJ6nbTBOi_12kameo_remote15connection_poolNtB5_14StreamingGuardNtNtNtCs85QQFkKrybG_4core3ops4drop4Drop4drop
FNDA:0,_RNvXsh_NtCs4ULJ6nbTBOi_12kameo_remote15connection_poolNtB5_20LockFreeStreamHandleNtNtCs85QQFkKrybG_4core3fmt5Debug3fmt
FNDA:0,_RNvXsk_NtCs4ULJ6nbTBOi_12kameo_remote15connection_poolNtB5_11TellMessageINtNtCs85QQFkKrybG_4core7convert4FromINtNtCsdFlNUEO95cG_5alloc3vec3VecRShEE4from
FNDA:0,_RNvXsl_NtCs4ULJ6nbTBOi_12kameo_remote15connection_poolNtB5_11TellMessageINtNtCs85QQFkKrybG_4core7convert4FromRSRShE4from
FNDA:0,_RNvXsn_NtCs4ULJ6nbTBOi_12kameo_remote15connection_poolNtB5_11TellMessageINtNtCs85QQFkKrybG_4core7convert4FromRINtNtCsdFlNUEO95cG_5alloc3vec3VechEE4from
FNDA:0,_RNvXsq_NtCs4ULJ6nbTBOi_12kameo_remote15connection_poolNtB5_18CorrelationTrackerNtNtCs85QQFkKrybG_4core3fmt5Debug3fmt
FNDA:0,_RNvXss_NtCs4ULJ6nbTBOi_12kameo_remote15connection_poolNtB5_16ConnectionHandleNtNtCs85QQFkKrybG_4core3fmt5Debug3fmt
FNDA:0,_RNvXsu_NtCs4ULJ6nbTBOi_12kameo_remote15connection_poolNtB5_20DelegatedReplySenderNtNtCs85QQFkKrybG_4core3fmt5Debug3fmt
FNDA:2,_RNvNtNtCs4ULJ6nbTBOi_12kameo_remote15connection_pool5tests18create_test_server
FNDA:1,_RNvNtNtCs4ULJ6nbTBOi_12kameo_remote15connection_pool5testss_17test_set_registry
FNDA:1,_RNvNtNtCs4ULJ6nbTBOi_12kameo_remote15connection_pool5testss_23test_should_flush_rules
FNDA:1,_RNvNtNtCs4ULJ6nbTBOi_12kameo_remote15connection_pool5testss_24test_connection_pool_new
FNDA:1,_RNvNtNtCs4ULJ6nbTBOi_12kameo_remote15connection_pool5testss_26test_buffer_config_default
FNDA:1,_RNvNtNtCs4ULJ6nbTBOi_12kameo_remote15connection_pool5testss_28test_connection_handle_debug
FNDA:1,_RNvNtNtCs4ULJ6nbTBOi_12kameo_remote15connection_pool5testss_29test_buffer_config_validation
FNDA:1,_RNvNtNtCs4ULJ6nbTBOi_12kameo_remote15connection_pool5testss_31test_buffer_config_minimum_size
FNDA:1,_RNvNtNtCs4ULJ6nbTBOi_12kameo_remote15connection_pool5testss_32test_connection_handle_send_data
FNDA:1,_RNvNtNtCs4ULJ6nbTBOi_12kameo_remote15connection_pool5testss_32test_task_tracker_aborts_on_drop
FNDA:1,_RNvNtNtCs4ULJ6nbTBOi_12kameo_remote15connection_pool5testss_34test_control_reserved_slots_bounds
FNDA:1,_RNvNtNtCs4ULJ6nbTBOi_12kameo_remote15connection_pool5testss_35test_streaming_threshold_saturation
FNDA:1,_RNvNtNtCs4ULJ6nbTBOi_12kameo_remote15connection_pool5testss_36test_streaming_threshold_calculation
FNDA:1,_RNvNtNtCs4ULJ6nbTBOi_12kameo_remote15connection_pool5testss_37test_task_tracker_replaces_old_handle
FNDA:1,_RNvNtNtCs4ULJ6nbTBOi_12kameo_remote15connection_pool5testss_39test_connection_handle_send_data_closed
FNDA:1,_RNvNtNtCs4ULJ6nbTBOi_12kameo_remote15connection_pool5testss_50test_permit_lanes_allow_control_when_ask_exhausted
FNDA:0,_RINvMsf_NtCs4ULJ6nbTBOi_12kameo_remote15connection_poolNtB6_20LockFreeStreamHandle22background_writer_taskINtNtCs85QQFkKrybG_4core3pin3PinINtNtCsdFlNUEO95cG_5alloc5boxed3BoxDNtNtNtCsh4ISjvibZbV_5tokio2io11async_write10AsyncWriteNtNtB1L_6marker4SendEL_EEEB8_
FNDA:1,_RINvMsf_NtCs4ULJ6nbTBOi_12kameo_remote15connection_poolNtB6_20LockFreeStreamHandle22background_writer_taskNtNtNtNtCsh4ISjvibZbV_5tokio2io4util3mem12DuplexStreamEB8_
FNDA:0,_RINvMsf_NtCs4ULJ6nbTBOi_12kameo_remote15connection_poolNtB6_20LockFreeStreamHandle22background_writer_taskNtNtNtNtCsh4ISjvibZbV_5tokio3net3tcp11split_owned14OwnedWriteHalfEB8_
FNDA:0,_RINvMsf_NtCs4ULJ6nbTBOi_12kameo_remote15connection_poolNtB6_20LockFreeStreamHandle3newINtNtCs85QQFkKrybG_4core3pin3PinINtNtCsdFlNUEO95cG_5alloc5boxed3BoxDNtNtNtCsh4ISjvibZbV_5tokio2io11async_write10AsyncWriteNtNtB1r_6marker4SendEL_EEEB8_
FNDA:1,_RINvMsf_NtCs4ULJ6nbTBOi_12kameo_remote15connection_poolNtB6_20LockFreeStreamHandle3newNtNtNtNtCsh4ISjvibZbV_5tokio2io4util3mem12DuplexStreamEB8_
FNDA:2,_RINvMsf_NtCs4ULJ6nbTBOi_12kameo_remote15connection_poolNtB6_20LockFreeStreamHandle3newNtNtNtNtCsh4ISjvibZbV_5tokio3net3tcp11split_owned14OwnedWriteHalfEB8_
FNDA:0,_RINvMsv_NtCs4ULJ6nbTBOi_12kameo_remote15connection_poolNtB6_16ConnectionHandle4tellRShEB8_
FNDA:0,_RINvMsw_NtCs4ULJ6nbTBOi_12kameo_remote15connection_poolNtB6_14ConnectionPool33process_reader_streaming_v2_frameINtNtCs85QQFkKrybG_4core3pin3PinINtNtCsdFlNUEO95cG_5alloc5boxed3BoxDNtNtNtCsh4ISjvibZbV_5tokio2io10async_read9AsyncReadNtNtB1Q_6marker4SendEL_EEEB8_
FNDA:0,_RINvNtCs4ULJ6nbTBOi_12kameo_remote15connection_pool24write_bytes_vectored_allINtNtNtNtCsh4ISjvibZbV_5tokio2io4util10buf_writer9BufWriterINtNtCs85QQFkKrybG_4core3pin3PinINtNtCsdFlNUEO95cG_5alloc5boxed3BoxDNtNtB1k_11async_write10AsyncWriteNtNtB2f_6marker4SendEL_EEEEB4_
FNDA:0,_RINvNtCs4ULJ6nbTBOi_12kameo_remote15connection_pool24write_bytes_vectored_allINtNtNtNtCsh4ISjvibZbV_5tokio2io4util10buf_writer9BufWriterNtNtB1i_3mem12DuplexStreamEEB4_
FNDA:0,_RINvNtCs4ULJ6nbTBOi_12kameo_remote15connection_pool24write_bytes_vectored_allINtNtNtNtCsh4ISjvibZbV_5tokio2io4util10buf_writer9BufWriterNtNtNtNtB1m_3net3tcp11split_owned14OwnedWriteHalfEEB4_
FNDA:0,_RINvNtCs4ULJ6nbTBOi_12kameo_remote15connection_pool26hash_archived_vector_clockNtNtNtCswz7ZwgBZOU_3std4hash6random13DefaultHasherEB4_
FNDA:0,_RNCINvMsf_NtCs4ULJ6nbTBOi_12kameo_remote15connection_poolNtB8_20LockFreeStreamHandle22background_writer_taskINtNtCs85QQFkKrybG_4core3pin3PinINtNtCsdFlNUEO95cG_5alloc5boxed3BoxDNtNtNtCsh4ISjvibZbV_5tokio2io11async_write10AsyncWriteNtNtB1N_6marker4SendEL_EEE0Ba_
FNDA:1,_RNCINvMsf_NtCs4ULJ6nbTBOi_12kameo_remote15connection_poolNtB8_20LockFreeStreamHandle22background_writer_taskNtNtNtNtCsh4ISjvibZbV_5tokio2io4util3mem12DuplexStreamE0Ba_
FNDA:0,_RNCINvMsf_NtCs4ULJ6nbTBOi_12kameo_remote15connection_poolNtB8_20LockFreeStreamHandle22background_writer_taskNtNtNtNtCsh4ISjvibZbV_5tokio3net3tcp11split_owned14OwnedWriteHalfE0Ba_
FNDA:0,_RNCINvMsf_NtCs4ULJ6nbTBOi_12kameo_remote15connection_poolNtB8_20LockFreeStreamHandle3newINtNtCs85QQFkKrybG_4core3pin3PinINtNtCsdFlNUEO95cG_5alloc5boxed3BoxDNtNtNtCsh4ISjvibZbV_5tokio2io11async_write10AsyncWriteNtNtB1t_6marker4SendEL_EEE0Ba_
FNDA:1,_RNCINvMsf_NtCs4ULJ6nbTBOi_12kameo_remote15connection_poolNtB8_20LockFreeStreamHandle3newNtNtNtNtCsh4ISjvibZbV_5tokio2io4util3mem12DuplexStreamE0Ba_
FNDA:0,_RNCINvMsf_NtCs4ULJ6nbTBOi_12kameo_remote15connection_poolNtB8_20LockFreeStreamHandle3newNtNtNtNtCsh4ISjvibZbV_5tokio3net3tcp11split_owned14OwnedWriteHalfE0Ba_
FNDA:0,_RNCINvMsv_NtCs4ULJ6nbTBOi_12kameo_remote15connection_poolNtB8_16ConnectionHandle4tellRShE0Ba_
FNDA:0,_RNCINvMsw_NtCs4ULJ6nbTBOi_12kameo_remote15connection_poolNtB8_14ConnectionPool33process_reader_streaming_v2_frameINtNtCs85QQFkKrybG_4core3pin3PinINtNtCsdFlNUEO95cG_5alloc5boxed3BoxDNtNtNtCsh4ISjvibZbV_5tokio2io10async_read9AsyncReadNtNtB1S_6marker4SendEL_EEE0Ba_
FNDA:0,_RNCINvNtCs4ULJ6nbTBOi_12kameo_remote15connection_pool24write_bytes_vectored_allINtNtNtNtCsh4ISjvibZbV_5tokio2io4util10buf_writer9BufWriterINtNtCs85QQFkKrybG_4core3pin3PinINtNtCsdFlNUEO95cG_5alloc5boxed3BoxDNtNtB1m_11async_write10AsyncWriteNtNtB2h_6marker4SendEL_EEEE0B6_
FNDA:0,_RNCINvNtCs4ULJ6nbTBOi_12kameo_remote15connection_pool24write_bytes_vectored_allINtNtNtNtCsh4ISjvibZbV_5tokio2io4util10buf_writer9BufWriterNtNtB1k_3mem12DuplexStreamEE0B6_
FNDA:0,_RNCINvNtCs4ULJ6nbTBOi_12kameo_remote15connection_pool24write_bytes_vectored_allINtNtNtNtCsh4ISjvibZbV_5tokio2io4util10buf_writer9BufWriterNtNtNtNtB1o_3net3tcp11split_owned14OwnedWriteHalfEE0B6_
FNDA:0,_RNCNCNCNvMsw_NtCs4ULJ6nbTBOi_12kameo_remote15connection_poolNtBb_14ConnectionPool27get_connection_with_node_id0s6_00Bd_
FNDA:0,_RNCNCNCNvMsw_NtCs4ULJ6nbTBOi_12kameo_remote15connection_poolNtBb_14ConnectionPool27get_connection_with_node_id0s_00Bd_
FNDA:0,_RNCNCNCNvMsw_NtCs4ULJ6nbTBOi_12kameo_remote15connection_poolNtBb_14ConnectionPool27get_connection_with_node_id0sg_00Bd_
FNDA:0,_RNCNCNCNvMsw_NtCs4ULJ6nbTBOi_12kameo_remote15connection_poolNtBb_14ConnectionPool27get_connection_with_node_id0sg_0s_0Bd_
FNDA:0,_RNCNCNCNvMsw_NtCs4ULJ6nbTBOi_12kameo_remote15connection_poolNtBb_14ConnectionPool27get_connection_with_node_id0si_00Bd_
FNDA:0,_RNCNCNCNvMsw_NtCs4ULJ6nbTBOi_12kameo_remote15connection_poolNtBb_14ConnectionPool27get_connection_with_node_id0si_0s0_0Bd_
FNDA:0,_RNCNCNCNvMsw_NtCs4ULJ6nbTBOi_12kameo_remote15connection_poolNtBb_14ConnectionPool27get_connection_with_node_id0si_0s1_0Bd_
FNDA:0,_RNCNCNCNvMsw_NtCs4ULJ6nbTBOi_12kameo_remote15connection_poolNtBb_14ConnectionPool27get_connection_with_node_id0si_0s2_0Bd_
FNDA:0,_RNCNCNCNvMsw_NtCs4ULJ6nbTBOi_12kameo_remote15connection_poolNtBb_14ConnectionPool27get_connection_with_node_id0si_0s3_0Bd_
FNDA:0,_RNCNCNCNvMsw_NtCs4ULJ6nbTBOi_12kameo_remote15connection_poolNtBb_14ConnectionPool27get_connection_with_node_id0si_0s4_0Bd_
FNDA:0,_RNCNCNCNvMsw_NtCs4ULJ6nbTBOi_12kameo_remote15connection_poolNtBb_14ConnectionPool27get_connection_with_node_id0si_0s_0Bd_
FNDA:0,_RNCNCNvMsv_NtCs4ULJ6nbTBOi_12kameo_remote15connection_poolNtB9_16ConnectionHandle10tell_batch00Bb_
FNDA:0,_RNCNCNvMsw_NtCs4ULJ6nbTBOi_12kameo_remote15connection_poolNtB9_14ConnectionPool22get_connection_to_peer00Bb_
FNDA:0,_RNCNCNvMsw_NtCs4ULJ6nbTBOi_12kameo_remote15connection_poolNtB9_14ConnectionPool27get_connection_with_node_id00Bb_
FNDA:0,_RNCNCNvMsw_NtCs4ULJ6nbTBOi_12kameo_remote15connection_poolNtB9_14ConnectionPool27get_connection_with_node_id0s0_0Bb_
FNDA:0,_RNCNCNvMsw_NtCs4ULJ6nbTBOi_12kameo_remote15connection_poolNtB9_14ConnectionPool27get_connection_with_node_id0s1_0Bb_
FNDA:0,_RNCNCNvMsw_NtCs4ULJ6nbTBOi_12kameo_remote15connection_poolNtB9_14ConnectionPool27get_connection_with_node_id0s2_0Bb_
FNDA:0,_RNCNCNvMsw_NtCs4ULJ6nbTBOi_12kameo_remote15connection_poolNtB9_14ConnectionPool27get_connection_with_node_id0s3_0Bb_
FNDA:0,_RNCNCNvMsw_NtCs4ULJ6nbTBOi_12kameo_remote15connection_poolNtB9_14ConnectionPool27get_connection_with_node_id0s4_0Bb_
FNDA:0,_RNCNCNvMsw_NtCs4ULJ6nbTBOi_12kameo_remote15connection_poolNtB9_14ConnectionPool27get_connection_with_node_id0s5_0Bb_
FNDA:0,_RNCNCNvMsw_NtCs4ULJ6nbTBOi_12kameo_remote15connection_poolNtB9_14ConnectionPool27get_connection_with_node_id0s6_0Bb_
FNDA:0,_RNCNCNvMsw_NtCs4ULJ6nbTBOi_12kameo_remote15connection_poolNtB9_14ConnectionPool27get_connection_with_node_id0s7_0Bb_
FNDA:0,_RNCNCNvMsw_NtCs4ULJ6nbTBOi_12kameo_remote15connection_poolNtB9_14ConnectionPool27get_connection_with_node_id0s8_0Bb_
FNDA:0,_RNCNCNvMsw_NtCs4ULJ6nbTBOi_12kameo_remote15connection_poolNtB9_14ConnectionPool27get_connection_with_node_id0s9_0Bb_
FNDA:0,_RNCNCNvMsw_NtCs4ULJ6nbTBOi_12kameo_remote15connection_poolNtB9_14ConnectionPool27get_connection_with_node_id0sB_0Bb_
FNDA:0,_RNCNCNvMsw_NtCs4ULJ6nbTBOi_12kameo_remote15connection_poolNtB9_14ConnectionPool27get_connection_with_node_id0s_0Bb_
FNDA:0,_RNCNCNvMsw_NtCs4ULJ6nbTBOi_12kameo_remote15connection_poolNtB9_14ConnectionPool27get_connection_with_node_id0sa_0Bb_
FNDA:0,_RNCNCNvMsw_NtCs4ULJ6nbTBOi_12kameo_remote15connection_poolNtB9_14ConnectionPool27get_connection_with_node_id0sb_0Bb_
FNDA:0,_RNCNCNvMsw_NtCs4ULJ6nbTBOi_12kameo_remote15connection_poolNtB9_14ConnectionPool27get_connection_with_node_id0sc_0Bb_
FNDA:0,_RNCNCNvMsw_NtCs4ULJ6nbTBOi_12kameo_remote15connection_poolNtB9_14ConnectionPool27get_connection_with_node_id0sd_0Bb_
FNDA:0,_RNCNCNvMsw_NtCs4ULJ6nbTBOi_12kameo_remote15connection_poolNtB9_14ConnectionPool27get_connection_with_node_id0se_0Bb_
FNDA:0,_RNCNCNvMsw_NtCs4ULJ6nbTBOi_12kameo_remote15connection_poolNtB9_14ConnectionPool27get_connection_with_node_id0sf_0Bb_
FNDA:0,_RNCNCNvMsw_NtCs4ULJ6nbTBOi_12kameo_remote15connection_poolNtB9_14ConnectionPool27get_connection_with_node_id0sg_0Bb_
FNDA:0,_RNCNCNvMsw_NtCs4ULJ6nbTBOi_12kameo_remote15connection_poolNtB9_14ConnectionPool27get_connection_with_node_id0sh_0Bb_
FNDA:0,_RNCNCNvMsw_NtCs4ULJ6nbTBOi_12kameo_remote15connection_poolNtB9_14ConnectionPool27get_connection_with_node_id0si_0Bb_
FNDA:0,_RNCNCNvMsw_NtCs4ULJ6nbTBOi_12kameo_remote15connection_poolNtB9_14ConnectionPool27get_connection_with_node_id0sj_0Bb_
FNDA:0,_RNCNCNvMsw_NtCs4ULJ6nbTBOi_12kameo_remote15connection_poolNtB9_14ConnectionPool28deliver_streaming_completion00Bb_
FNDA:0,_RNCNCNvNtCs4ULJ6nbTBOi_12kameo_remote15connection_pool23handle_incoming_message00B7_
FNDA:0,_RNCNCNvNtCs4ULJ6nbTBOi_12kameo_remote15connection_pool23handle_incoming_message0s0_0B7_
FNDA:0,_RNCNCNvNtCs4ULJ6nbTBOi_12kameo_remote15connection_pool23handle_incoming_message0s1_0B7_
FNDA:0,_RNCNCNvNtCs4ULJ6nbTBOi_12kameo_remote15connection_pool23handle_incoming_message0s2_0B7_
FNDA:0,_RNCNCNvNtCs4ULJ6nbTBOi_12kameo_remote15connection_pool23handle_incoming_message0s4_0B7_
FNDA:0,_RNCNCNvNtCs4ULJ6nbTBOi_12kameo_remote15connection_pool23handle_incoming_message0s5_0B7_
FNDA:0,_RNCNCNvNtCs4ULJ6nbTBOi_12kameo_remote15connection_pool23handle_incoming_message0s6_0B7_
FNDA:0,_RNCNCNvNtCs4ULJ6nbTBOi_12kameo_remote15connection_pool23handle_incoming_message0s_0B7_
FNDA:0,_RNCNCNvNtCs4ULJ6nbTBOi_12kameo_remote15connection_pool23handle_incoming_message0sw_0B7_
FNDA:0,_RNCNCNvNtCs4ULJ6nbTBOi_12kameo_remote15connection_pool23handle_incoming_message0sy_0B7_
FNDA:0,_RNCNCNvNtCs4ULJ6nbTBOi_12kameo_remote15connection_pool23resolve_peer_state_addr00B7_
FNDA:0,_RNCNCNvNtCs4ULJ6nbTBOi_12kameo_remote15connection_pool23resolve_peer_state_addr0s0_0B7_
FNDA:0,_RNCNCNvNtCs4ULJ6nbTBOi_12kameo_remote15connection_pool23resolve_peer_state_addr0s_0B7_
FNDA:130,_RNCNvMsf_NtCs4ULJ6nbTBOi_12kameo_remote15connection_poolNtB7_20LockFreeStreamHandle18acquire_ask_permit0B9_
FNDA:2,_RNCNvMsf_NtCs4ULJ6nbTBOi_12kameo_remote15connection_poolNtB7_20LockFreeStreamHandle19write_bytes_control0B9_
FNDA:3,_RNCNvMsf_NtCs4ULJ6nbTBOi_12kameo_remote15connection_poolNtB7_20LockFreeStreamHandle22acquire_control_permit0B9_
FNDA:130,_RNCNvMsf_NtCs4ULJ6nbTBOi_12kameo_remote15connection_poolNtB7_20LockFreeStreamHandle27acquire_ask_permit_for_test0B9_
FNDA:1,_RNCNvMsf_NtCs4ULJ6nbTBOi_12kameo_remote15connection_poolNtB7_20LockFreeStreamHandle31acquire_control_permit_for_test0B9_
FNDA:0,_RNCNvMsf_NtCs4ULJ6nbTBOi_12kameo_remote15connection_poolNtB7_20LockFreeStreamHandle39write_header_and_payload_control_inline0B9_
FNDA:0,_RNCNvMsi_NtCs4ULJ6nbTBOi_12kameo_remote15connection_poolNtB7_11TellMessage8send_via0B9_
FNDA:2048,_RNCNvMsr_NtCs4ULJ6nbTBOi_12kameo_remote15connection_poolNtB7_18CorrelationTracker3new0B9_
FNDA:0,_RNCNvMsv_NtCs4ULJ6nbTBOi_12kameo_remote15connection_poolNtB7_16ConnectionHandle10tell_batch0B9_
FNDA:0,_RNCNvMsv_NtCs4ULJ6nbTBOi_12kameo_remote15connection_poolNtB7_16ConnectionHandle8tell_raw0B9_
FNDA:2,_RNCNvMsv_NtCs4ULJ6nbTBOi_12kameo_remote15connection_poolNtB7_16ConnectionHandle9send_data0B9_
FNDA:0,_RNCNvMsw_NtCs4ULJ6nbTBOi_12kameo_remote15connection_poolNtB7_14ConnectionPool14get_connection0B9_
FNDA:0,_RNCNvMsw_NtCs4ULJ6nbTBOi_12kameo_remote15connection_poolNtB7_14ConnectionPool14has_connection0B9_
FNDA:0,_RNCNvMsw_NtCs4ULJ6nbTBOi_12kameo_remote15connection_poolNtB7_14ConnectionPool14send_lock_frees1_0B9_
FNDA:0,_RNCNvMsw_NtCs4ULJ6nbTBOi_12kameo_remote15connection_poolNtB7_14ConnectionPool16connection_count0B9_
FNDA:0,_RNCNvMsw_NtCs4ULJ6nbTBOi_12kameo_remote15connection_poolNtB7_14ConnectionPool19get_peer_id_by_addr0B9_
FNDA:0,_RNCNvMsw_NtCs4ULJ6nbTBOi_12kameo_remote15connection_poolNtB7_14ConnectionPool21close_all_connections0B9_
FNDA:0,_RNCNvMsw_NtCs4ULJ6nbTBOi_12kameo_remote15connection_poolNtB7_14ConnectionPool22get_connection_by_addr0B9_
FNDA:0,_RNCNvMsw_NtCs4ULJ6nbTBOi_12kameo_remote15connection_poolNtB7_14ConnectionPool22get_connection_to_peer0B9_
FNDA:0,_RNCNvMsw_NtCs4ULJ6nbTBOi_12kameo_remote15connection_poolNtB7_14ConnectionPool24get_lock_free_connection0B9_
FNDA:0,_RNCNvMsw_NtCs4ULJ6nbTBOi_12kameo_remote15connection_poolNtB7_14ConnectionPool25cleanup_stale_connections0B9_
FNDA:0,_RNCNvMsw_NtCs4ULJ6nbTBOi_12kameo_remote15connection_poolNtB7_14ConnectionPool25cleanup_stale_connectionss_0B9_
FNDA:0,_RNCNvMsw_NtCs4ULJ6nbTBOi_12kameo_remote15connection_poolNtB7_14ConnectionPool25get_connection_by_peer_id0B9_
FNDA:0,_RNCNvMsw_NtCs4ULJ6nbTBOi_12kameo_remote15connection_poolNtB7_14ConnectionPool25get_connection_by_peer_ids_0B9_
FNDA:0,_RNCNvMsw_NtCs4ULJ6nbTBOi_12kameo_remote15connection_poolNtB7_14ConnectionPool25has_connection_by_peer_id0B9_
FNDA:0,_RNCNvMsw_NtCs4ULJ6nbTBOi_12kameo_remote15connection_poolNtB7_14ConnectionPool27clear_capabilities_for_addr0B9_
FNDA:0,_RNCNvMsw_NtCs4ULJ6nbTBOi_12kameo_remote15connection_poolNtB7_14ConnectionPool27get_connection_with_node_id0B9_
FNDA:0,_RNCNvMsw_NtCs4ULJ6nbTBOi_12kameo_remote15connection_poolNtB7_14ConnectionPool28deliver_streaming_completion0B9_
FNDA:0,_RNCNvMsw_NtCs4ULJ6nbTBOi_12kameo_remote15connection_poolNtB7_14ConnectionPool30get_shared_correlation_tracker0B9_
FNDA:0,_RNCNvMsw_NtCs4ULJ6nbTBOi_12kameo_remote15connection_poolNtB7_14ConnectionPool32disconnect_connection_by_peer_id0B9_
FNDA:0,_RNCNvMsw_NtCs4ULJ6nbTBOi_12kameo_remote15connection_poolNtB7_14ConnectionPool32disconnect_connection_by_peer_ids_0B9_
FNDA:0,_RNCNvMsw_NtCs4ULJ6nbTBOi_12kameo_remote15connection_poolNtB7_14ConnectionPool33get_or_create_correlation_tracker0B9_
FNDA:0,_RNCNvNtCs4ULJ6nbTBOi_12kameo_remote15connection_pool23handle_incoming_message0B5_
FNDA:0,_RNCNvNtCs4ULJ6nbTBOi_12kameo_remote15connection_pool23resolve_peer_state_addr0B5_
FNDA:0,_RNCNvNtCs4ULJ6nbTBOi_12kameo_remote15connection_pool29compare_archived_vector_clock0B5_
FNDA:0,_RNCNvNtCs4ULJ6nbTBOi_12kameo_remote15connection_pool30archived_priority_is_immediate0B5_
FNDA:1,_RINvNvNtNtCs4ULJ6nbTBOi_12kameo_remote15connection_pool5testss_28test_connection_handle_debug12assert_debugNtB6_16ConnectionHandleEB8_
FNDA:0,_RNCNCNCNvNtNtCs4ULJ6nbTBOi_12kameo_remote15connection_pool5tests18create_test_server000Bb_
FNDA:2,_RNCNCNvNtNtCs4ULJ6nbTBOi_12kameo_remote15connection_pool5tests18create_test_server00B9_
FNDA:1,_RNCNCNvNtNtCs4ULJ6nbTBOi_12kameo_remote15connection_pool5testss_32test_task_tracker_aborts_on_drop00B9_
FNDA:0,_RNCNCNvNtNtCs4ULJ6nbTBOi_12kameo_remote15connection_pool5testss_37test_task_tracker_replaces_old_handle00B9_
FNDA:1,_RNCNCNvNtNtCs4ULJ6nbTBOi_12kameo_remote15connection_pool5testss_37test_task_tracker_replaces_old_handle0s_0B9_
FNDA:2,_RNCNvNtNtCs4ULJ6nbTBOi_12kameo_remote15connection_pool5tests18create_test_server0B7_
FNDA:1,_RNCNvNtNtCs4ULJ6nbTBOi_12kameo_remote15connection_pool5testss_17test_set_registry0B7_
FNDA:1,_RNCNvNtNtCs4ULJ6nbTBOi_12kameo_remote15connection_pool5testss_24test_connection_pool_new0B7_
FNDA:1,_RNCNvNtNtCs4ULJ6nbTBOi_12kameo_remote15connection_pool5testss_32test_connection_handle_send_data0B7_
FNDA:1,_RNCNvNtNtCs4ULJ6nbTBOi_12kameo_remote15connection_pool5testss_32test_task_tracker_aborts_on_drop0B7_
FNDA:1,_RNCNvNtNtCs4ULJ6nbTBOi_12kameo_remote15connection_pool5testss_37test_task_tracker_replaces_old_handle0B7_
FNDA:1,_RNCNvNtNtCs4ULJ6nbTBOi_12kameo_remote15connection_pool5testss_39test_connection_handle_send_data_closed0B7_
FNDA:1,_RNCNvNtNtCs4ULJ6nbTBOi_12kameo_remote15connection_pool5testss_50test_permit_lanes_allow_control_when_ask_exhausted0B7_
FNDA:0,_RNvMNtCs4ULJ6nbTBOi_12kameo_remote15connection_poolNtB2_11TaskTracker10set_reader
FNDA:3,_RNvMNtCs4ULJ6nbTBOi_12kameo_remote15connection_poolNtB2_11TaskTracker10set_writer
FNDA:0,_RNvMNtCs4ULJ6nbTBOi_12kameo_remote15connection_poolNtB2_11TaskTracker12abort_reader
FNDA:0,_RNvMNtCs4ULJ6nbTBOi_12kameo_remote15connection_poolNtB2_11TaskTracker13detach_writer
FNDA:2,_RNvMNtCs4ULJ6nbTBOi_12kameo_remote15connection_poolNtB2_11TaskTracker3new
FNDA:2,_RNvMNtCs4ULJ6nbTBOi_12kameo_remote15connection_poolNtB2_11TaskTracker9abort_all
FNDA:4,_RNvMs0_NtCs4ULJ6nbTBOi_12kameo_remote15connection_poolNtB5_12BufferConfig15tcp_buffer_size
FNDA:10,_RNvMs0_NtCs4ULJ6nbTBOi_12kameo_remote15connection_poolNtB5_12BufferConfig17ring_buffer_slots
FNDA:4,_RNvMs0_NtCs4ULJ6nbTBOi_12kameo_remote15connection_poolNtB5_12BufferConfig18ask_inflight_limit
FNDA:6,_RNvMs0_NtCs4ULJ6nbTBOi_12kameo_remote15connection_poolNtB5_12BufferConfig19streaming_threshold
FNDA:0,_RNvMs0_NtCs4ULJ6nbTBOi_12kameo_remote15connection_poolNtB5_12BufferConfig23with_ask_inflight_limit
FNDA:7,_RNvMs0_NtCs4ULJ6nbTBOi_12kameo_remote15connection_poolNtB5_12BufferConfig3new
FNDA:0,_RNvMs4_NtCs4ULJ6nbTBOi_12kameo_remote15connection_poolNtB5_18LockFreeConnection12is_connected
FNDA:0,_RNvMs4_NtCs4ULJ6nbTBOi_12kameo_remote15connection_poolNtB5_18LockFreeConnection16update_last_used
FNDA:0,_RNvMs4_NtCs4ULJ6nbTBOi_12kameo_remote15connection_poolNtB5_18LockFreeConnection25shutdown_tasks_gracefully
FNDA:0,_RNvMs4_NtCs4ULJ6nbTBOi_12kameo_remote15connection_poolNtB5_18LockFreeConnection3new
FNDA:0,_RNvMs4_NtCs4ULJ6nbTBOi_12kameo_remote15connection_poolNtB5_18LockFreeConnection9get_state
FNDA:0,_RNvMs4_NtCs4ULJ6nbTBOi_12kameo_remote15connection_poolNtB5_18LockFreeConnection9set_state
FNDA:0,_RNvMsd_NtCs4ULJ6nbTBOi_12kameo_remote15connection_poolNtB5_17MessageBufferPool10get_buffer
FNDA:0,_RNvMsd_NtCs4ULJ6nbTBOi_12kameo_remote15connection_poolNtB5_17MessageBufferPool13return_buffer
FNDA:28,_RNvMsd_NtCs4ULJ6nbTBOi_12kameo_remote15connection_poolNtB5_17MessageBufferPool3new
FNDA:1,_RNvMse_NtCs4ULJ6nbTBOi_12kameo_remote15connection_poolNtB5_18LockFreeRingBuffer13pending_count
FNDA:3,_RNvMse_NtCs4ULJ6nbTBOi_12kameo_remote15connection_poolNtB5_18LockFreeRingBuffer3new
FNDA:1,_RNvMse_NtCs4ULJ6nbTBOi_12kameo_remote15connection_poolNtB5_18LockFreeRingBuffer7try_pop
FNDA:2,_RNvMse_NtCs4ULJ6nbTBOi_12kameo_remote15connection_poolNtB5_18LockFreeRingBuffer8try_push
FNDA:1,_RNvMsf_NtCs4ULJ6nbTBOi_12kameo_remote15connection_poolNtB5_20LockFreeStreamHandle13permit_counts
FNDA:130,_RNvMsf_NtCs4ULJ6nbTBOi_12kameo_remote15connection_poolNtB5_20LockFreeStreamHandle18acquire_ask_permit
FNDA:2,_RNvMsf_NtCs4ULJ6nbTBOi_12kameo_remote15connection_poolNtB5_20LockFreeStreamHandle19enqueue_with_permit
FNDA:2,_RNvMsf_NtCs4ULJ6nbTBOi_12kameo_remote15connection_poolNtB5_20LockFreeStreamHandle19wake_writer_if_idle
FNDA:2,_RNvMsf_NtCs4ULJ6nbTBOi_12kameo_remote15connection_poolNtB5_20LockFreeStreamHandle19write_bytes_controlB7_
FNDA:3,_RNvMsf_NtCs4ULJ6nbTBOi_12kameo_remote15connection_poolNtB5_20LockFreeStreamHandle22acquire_control_permit
FNDA:0,_RNvMsf_NtCs4ULJ6nbTBOi_12kameo_remote15connection_poolNtB5_20LockFreeStreamHandle23write_bytes_nonblocking
FNDA:130,_RNvMsf_NtCs4ULJ6nbTBOi_12kameo_remote15connection_poolNtB5_20LockFreeStreamHandle27acquire_ask_permit_for_test
FNDA:1,_RNvMsf_NtCs4ULJ6nbTBOi_12kameo_remote15connection_poolNtB5_20LockFreeStreamHandle31acquire_control_permit_for_test
FNDA:0,_RNvMsf_NtCs4ULJ6nbTBOi_12kameo_remote15connection_poolNtB5_20LockFreeStreamHandle39write_header_and_payload_control_inline
FNDA:0,_RNvMsf_NtCs4ULJ6nbTBOi_12kameo_remote15connection_poolNtB5_20LockFreeStreamHandle43write_header_and_payload_nonblocking_inline
FNDA:0,_RNvMsf_NtCs4ULJ6nbTBOi_12kameo_remote15connection_poolNtB5_20LockFreeStreamHandle8shutdown
FNDA:0,_RNvMsi_NtCs4ULJ6nbTBOi_12kameo_remote15connection_poolNtB5_11TellMessage8send_via
FNDA:0,_RNvMsr_NtCs4ULJ6nbTBOi_12kameo_remote15connection_poolNtB5_18CorrelationTracker11has_pending
FNDA:2,_RNvMsr_NtCs4ULJ6nbTBOi_12kameo_remote15connection_poolNtB5_18CorrelationTracker3new
FNDA:0,_RNvMsr_NtCs4ULJ6nbTBOi_12kameo_remote15connection_poolNtB5_18CorrelationTracker8complete
FNDA:0,_RNvMsv_NtCs4ULJ6nbTBOi_12kameo_remote15connection_poolNtB5_16ConnectionHandle10tell_batch
FNDA:0,_RNvMsv_NtCs4ULJ6nbTBOi_12kameo_remote15connection_poolNtB5_16ConnectionHandle8tell_raw
FNDA:2,_RNvMsv_NtCs4ULJ6nbTBOi_12kameo_remote15connection_poolNtB5_16ConnectionHandle9send_data
FNDA:0,_RNvMsw_NtCs4ULJ6nbTBOi_12kameo_remote15connection_poolNtB5_14ConnectionPool10get_buffer
FNDA:1,_RNvMsw_NtCs4ULJ6nbTBOi_12kameo_remote15connection_poolNtB5_14ConnectionPool12set_registry
FNDA:0,_RNvMsw_NtCs4ULJ6nbTBOi_12kameo_remote15connection_poolNtB5_14ConnectionPool14get_connection
FNDA:1,_RNvMsw_NtCs4ULJ6nbTBOi_12kameo_remote15connection_poolNtB5_14ConnectionPool14has_connection
FNDA:0,_RNvMsw_NtCs4ULJ6nbTBOi_12kameo_remote15connection_poolNtB5_14ConnectionPool14send_lock_free
FNDA:1,_RNvMsw_NtCs4ULJ6nbTBOi_12kameo_remote15connection_poolNtB5_14ConnectionPool16connection_count
FNDA:0,_RNvMsw_NtCs4ULJ6nbTBOi_12kameo_remote15connection_poolNtB5_14ConnectionPool17remove_connection
FNDA:0,_RNvMsw_NtCs4ULJ6nbTBOi_12kameo_remote15connection_poolNtB5_14ConnectionPool19add_addr_to_peer_id
FNDA:1,_RNvMsw_NtCs4ULJ6nbTBOi_12kameo_remote15connection_poolNtB5_14ConnectionPool19get_peer_id_by_addr
FNDA:1,_RNvMsw_NtCs4ULJ6nbTBOi_12kameo_remote15connection_poolNtB5_14ConnectionPool21close_all_connections
FNDA:0,_RNvMsw_NtCs4ULJ6nbTBOi_12kameo_remote15connection_poolNtB5_14ConnectionPool21create_message_buffer
FNDA:0,_RNvMsw_NtCs4ULJ6nbTBOi_12kameo_remote15connection_poolNtB5_14ConnectionPool21send_bytes_to_peer_id
FNDA:0,_RNvMsw_NtCs4ULJ6nbTBOi_12kameo_remote15connection_poolNtB5_14ConnectionPool22get_connection_by_addr
FNDA:0,_RNvMsw_NtCs4ULJ6nbTBOi_12kameo_remote15connection_poolNtB5_14ConnectionPool22get_connection_to_peer
FNDA:0,_RNvMsw_NtCs4ULJ6nbTBOi_12kameo_remote15connection_poolNtB5_14ConnectionPool23reindex_connection_addr
FNDA:0,_RNvMsw_NtCs4ULJ6nbTBOi_12kameo_remote15connection_poolNtB5_14ConnectionPool24get_lock_free_connection
FNDA:0,_RNvMsw_NtCs4ULJ6nbTBOi_12kameo_remote15connection_poolNtB5_14ConnectionPool24index_connection_by_addr
FNDA:0,_RNvMsw_NtCs4ULJ6nbTBOi_12kameo_remote15connection_poolNtB5_14ConnectionPool25add_connection_by_peer_id
FNDA:1,_RNvMsw_NtCs4ULJ6nbTBOi_12kameo_remote15connection_poolNtB5_14ConnectionPool25cleanup_stale_connections
FNDA:0,_RNvMsw_NtCs4ULJ6nbTBOi_12kameo_remote15connection_poolNtB5_14ConnectionPool25get_connection_by_peer_id
FNDA:0,_RNvMsw_NtCs4ULJ6nbTBOi_12kameo_remote15connection_poolNtB5_14ConnectionPool25has_connection_by_peer_id
FNDA:0,_RNvMsw_NtCs4ULJ6nbTBOi_12kameo_remote15connection_poolNtB5_14ConnectionPool27clear_capabilities_for_addr
FNDA:0,_RNvMsw_NtCs4ULJ6nbTBOi_12kameo_remote15connection_poolNtB5_14ConnectionPool27get_connection_with_node_id
FNDA:0,_RNvMsw_NtCs4ULJ6nbTBOi_12kameo_remote15connection_poolNtB5_14ConnectionPool27send_lock_free_parts_inline
FNDA:0,_RNvMsw_NtCs4ULJ6nbTBOi_12kameo_remote15connection_poolNtB5_14ConnectionPool28deliver_streaming_completion
FNDA:0,_RNvMsw_NtCs4ULJ6nbTBOi_12kameo_remote15connection_poolNtB5_14ConnectionPool30get_shared_correlation_tracker
FNDA:0,_RNvMsw_NtCs4ULJ6nbTBOi_12kameo_remote15connection_poolNtB5_14ConnectionPool32disconnect_connection_by_peer_id
FNDA:0,_RNvMsw_NtCs4ULJ6nbTBOi_12kameo_remote15connection_poolNtB5_14ConnectionPool33get_or_create_correlation_tracker
FNDA:28,_RNvMsw_NtCs4ULJ6nbTBOi_12kameo_remote15connection_poolNtB5_14ConnectionPool3new
FNDA:5,_RNvNtCs4ULJ6nbTBOi_12kameo_remote15connection_pool12should_flush
FNDA:0,_RNvNtCs4ULJ6nbTBOi_12kameo_remote15connection_pool16archived_node_id
FNDA:0,_RNvNtCs4ULJ6nbTBOi_12kameo_remote15connection_pool16archived_peer_id
FNDA:0,_RNvNtCs4ULJ6nbTBOi_12kameo_remote15connection_pool19archived_option_str
FNDA:0,_RNvNtCs4ULJ6nbTBOi_12kameo_remote15connection_pool20process_mock_request
FNDA:0,_RNvNtCs4ULJ6nbTBOi_12kameo_remote15connection_pool21registry_message_kind
FNDA:7,_RNvNtCs4ULJ6nbTBOi_12kameo_remote15connection_pool22control_reserved_slots
FNDA:0,_RNvNtCs4ULJ6nbTBOi_12kameo_remote15connection_pool23handle_incoming_message
FNDA:0,_RNvNtCs4ULJ6nbTBOi_12kameo_remote15connection_pool23resolve_peer_state_addr
FNDA:0,_RNvNtCs4ULJ6nbTBOi_12kameo_remote15connection_pool28process_mock_request_payload
FNDA:0,_RNvNtCs4ULJ6nbTBOi_12kameo_remote15connection_pool29compare_archived_vector_clock
FNDA:0,_RNvNtCs4ULJ6nbTBOi_12kameo_remote15connection_pool30archived_priority_is_immediate
FNDA:0,_RNvNtCs4ULJ6nbTBOi_12kameo_remote15connection_pool31collect_actor_map_from_archived
FNDA:0,_RNvNtCs4ULJ6nbTBOi_12kameo_remote15connection_pool32peer_health_status_from_archived
FNDA:4,_RNvXs1_NtCs4ULJ6nbTBOi_12kameo_remote15connection_poolNtB5_12BufferConfigNtNtCs85QQFkKrybG_4core7default7Default7default
FNDA:0,_RNvXs2_NtCs4ULJ6nbTBOi_12kameo_remote15connection_poolNtB5_15ConnectionStateINtNtCs85QQFkKrybG_4core7convert4FrommE4from
FNDA:0,_RNvXsj_NtCs4ULJ6nbTBOi_12kameo_remote15connection_poolNtB5_11TellMessageINtNtCs85QQFkKrybG_4core7convert4FromRShE4from
FNDA:2,_RNvXs_NtCs4ULJ6nbTBOi_12kameo_remote15connection_poolNtB4_11TaskTrackerNtNtNtCs85QQFkKrybG_4core3ops4drop4Drop4drop
FNDA:0,_RNvMsf_NtCscNmhOS6QYVL_12kameo_remote15connection_poolNtB5_20LockFreeStreamHandle19write_bytes_controlCsgCKrPgQ6uob_14node_name_test
FNDA:0,_RINvMsv_NtCscNmhOS6QYVL_12kameo_remote15connection_poolNtB6_16ConnectionHandle4tellRShECsgCKrPgQ6uob_14node_name_test
FNDA:0,_RNCINvMsv_NtCscNmhOS6QYVL_12kameo_remote15connection_poolNtB8_16ConnectionHandle4tellRShE0CsgCKrPgQ6uob_14node_name_test
FNDA:0,_RNCNCNvMsv_NtCscNmhOS6QYVL_12kameo_remote15connection_poolNtB9_16ConnectionHandle10tell_batch00CsgCKrPgQ6uob_14node_name_test
FNDA:0,_RNCNCNvMsw_NtCscNmhOS6QYVL_12kameo_remote15connection_poolNtB9_14ConnectionPool22get_connection_to_peer00CsgCKrPgQ6uob_14node_name_test
FNDA:0,_RNCNvMsi_NtCscNmhOS6QYVL_12kameo_remote15connection_poolNtB7_11TellMessage8send_via0CsgCKrPgQ6uob_14node_name_test
FNDA:0,_RNCNvMsv_NtCscNmhOS6QYVL_12kameo_remote15connection_poolNtB7_16ConnectionHandle10tell_batch0CsgCKrPgQ6uob_14node_name_test
FNDA:0,_RNCNvMsv_NtCscNmhOS6QYVL_12kameo_remote15connection_poolNtB7_16ConnectionHandle8tell_raw0CsgCKrPgQ6uob_14node_name_test
FNDA:2,_RNCNvMsw_NtCscNmhOS6QYVL_12kameo_remote15connection_poolNtB7_14ConnectionPool22get_connection_to_peer0CsgCKrPgQ6uob_14node_name_test
FNDA:505,_RINvMsv_NtCscNmhOS6QYVL_12kameo_remote15connection_poolNtB6_16ConnectionHandle4tellRShECs3qutdMVIhKi_20peer_discovery_tests
FNDA:505,_RNCINvMsv_NtCscNmhOS6QYVL_12kameo_remote15connection_poolNtB8_16ConnectionHandle4tellRShE0Cs3qutdMVIhKi_20peer_discovery_tests
FNDA:0,_RNCNCNvMsv_NtCscNmhOS6QYVL_12kameo_remote15connection_poolNtB9_16ConnectionHandle10tell_batch00Cs3qutdMVIhKi_20peer_discovery_tests
FNDA:505,_RNCNvMsi_NtCscNmhOS6QYVL_12kameo_remote15connection_poolNtB7_11TellMessage8send_via0Cs3qutdMVIhKi_20peer_discovery_tests
FNDA:0,_RNCNvMsv_NtCscNmhOS6QYVL_12kameo_remote15connection_poolNtB7_16ConnectionHandle10tell_batch0Cs3qutdMVIhKi_20peer_discovery_tests
FNDA:505,_RNCNvMsv_NtCscNmhOS6QYVL_12kameo_remote15connection_poolNtB7_16ConnectionHandle8tell_raw0Cs3qutdMVIhKi_20peer_discovery_tests
FNDA:505,_RNvMsf_NtCscNmhOS6QYVL_12kameo_remote15connection_poolNtB5_20LockFreeStreamHandle19write_bytes_controlCs3qutdMVIhKi_20peer_discovery_tests
FNDA:251,_RINvMsv_NtCscNmhOS6QYVL_12kameo_remote15connection_poolNtB6_16ConnectionHandle4tellRShECs9MW0dUygFlO_26peer_discovery_toctou_test
FNDA:251,_RNCINvMsv_NtCscNmhOS6QYVL_12kameo_remote15connection_poolNtB8_16ConnectionHandle4tellRShE0Cs9MW0dUygFlO_26peer_discovery_toctou_test
FNDA:0,_RNCNCNvMsv_NtCscNmhOS6QYVL_12kameo_remote15connection_poolNtB9_16ConnectionHandle10tell_batch00Cs9MW0dUygFlO_26peer_discovery_toctou_test
FNDA:251,_RNCNvMsi_NtCscNmhOS6QYVL_12kameo_remote15connection_poolNtB7_11TellMessage8send_via0Cs9MW0dUygFlO_26peer_discovery_toctou_test
FNDA:0,_RNCNvMsv_NtCscNmhOS6QYVL_12kameo_remote15connection_poolNtB7_16ConnectionHandle10tell_batch0Cs9MW0dUygFlO_26peer_discovery_toctou_test
FNDA:251,_RNCNvMsv_NtCscNmhOS6QYVL_12kameo_remote15connection_poolNtB7_16ConnectionHandle8tell_raw0Cs9MW0dUygFlO_26peer_discovery_toctou_test
FNDA:251,_RNvMsf_NtCscNmhOS6QYVL_12kameo_remote15connection_poolNtB5_20LockFreeStreamHandle19write_bytes_controlCs9MW0dUygFlO_26peer_discovery_toctou_test
FNDA:1,_RINvMsf_NtCscNmhOS6QYVL_12kameo_remote15connection_poolNtB6_20LockFreeStreamHandle22background_writer_taskNtNtNtNtCsh4ISjvibZbV_5tokio2io4util3mem12DuplexStreamECs62ASYDEVRPE_17pooled_send_bench
FNDA:1,_RINvMsf_NtCscNmhOS6QYVL_12kameo_remote15connection_poolNtB6_20LockFreeStreamHandle3newNtNtNtNtCsh4ISjvibZbV_5tokio2io4util3mem12DuplexStreamECs62ASYDEVRPE_17pooled_send_bench
FNDA:0,_RINvNtCscNmhOS6QYVL_12kameo_remote15connection_pool24write_bytes_vectored_allINtNtNtNtCsh4ISjvibZbV_5tokio2io4util10buf_writer9BufWriterNtNtB1i_3mem12DuplexStreamEECs62ASYDEVRPE_17pooled_send_bench
FNDA:1,_RNCINvMsf_NtCscNmhOS6QYVL_12kameo_remote15connection_poolNtB8_20LockFreeStreamHandle22background_writer_taskNtNtNtNtCsh4ISjvibZbV_5tokio2io4util3mem12DuplexStreamE0Cs62ASYDEVRPE_17pooled_send_bench
FNDA:1,_RNCINvMsf_NtCscNmhOS6QYVL_12kameo_remote15connection_poolNtB8_20LockFreeStreamHandle3newNtNtNtNtCsh4ISjvibZbV_5tokio2io4util3mem12DuplexStreamE0Cs62ASYDEVRPE_17pooled_send_bench
FNDA:0,_RNCINvNtCscNmhOS6QYVL_12kameo_remote15connection_pool24write_bytes_vectored_allINtNtNtNtCsh4ISjvibZbV_5tokio2io4util10buf_writer9BufWriterNtNtB1k_3mem12DuplexStreamEE0Cs62ASYDEVRPE_17pooled_send_bench
FNDA:3048,_RNCNvMsf_NtCscNmhOS6QYVL_12kameo_remote15connection_poolNtB7_20LockFreeStreamHandle18acquire_ask_permit0Cs62ASYDEVRPE_17pooled_send_bench
FNDA:3048,_RNCNvMsf_NtCscNmhOS6QYVL_12kameo_remote15connection_poolNtB7_20LockFreeStreamHandle28write_header_and_payload_ask0Cs62ASYDEVRPE_17pooled_send_bench
FNDA:3048,_RNCNvMsf_NtCscNmhOS6QYVL_12kameo_remote15connection_poolNtB7_20LockFreeStreamHandle32write_header_and_payload_control0Cs62ASYDEVRPE_17pooled_send_bench
FNDA:2,_RINvMsf_NtCscNmhOS6QYVL_12kameo_remote15connection_poolNtB6_20LockFreeStreamHandle22background_writer_taskNtNtNtNtCsh4ISjvibZbV_5tokio2io4util3mem12DuplexStreamECs5K7vlHKW34j_17pooled_typed_send
FNDA:2,_RINvMsf_NtCscNmhOS6QYVL_12kameo_remote15connection_poolNtB6_20LockFreeStreamHandle3newNtNtNtNtCsh4ISjvibZbV_5tokio2io4util3mem12DuplexStreamECs5K7vlHKW34j_17pooled_typed_send
FNDA:0,_RINvNtCscNmhOS6QYVL_12kameo_remote15connection_pool24write_bytes_vectored_allINtNtNtNtCsh4ISjvibZbV_5tokio2io4util10buf_writer9BufWriterNtNtB1i_3mem12DuplexStreamEECs5K7vlHKW34j_17pooled_typed_send
FNDA:2,_RNCINvMsf_NtCscNmhOS6QYVL_12kameo_remote15connection_poolNtB8_20LockFreeStreamHandle22background_writer_taskNtNtNtNtCsh4ISjvibZbV_5tokio2io4util3mem12DuplexStreamE0Cs5K7vlHKW34j_17pooled_typed_send
FNDA:2,_RNCINvMsf_NtCscNmhOS6QYVL_12kameo_remote15connection_poolNtB8_20LockFreeStreamHandle3newNtNtNtNtCsh4ISjvibZbV_5tokio2io4util3mem12DuplexStreamE0Cs5K7vlHKW34j_17pooled_typed_send
FNDA:0,_RNCINvNtCscNmhOS6QYVL_12kameo_remote15connection_pool24write_bytes_vectored_allINtNtNtNtCsh4ISjvibZbV_5tokio2io4util10buf_writer9BufWriterNtNtB1k_3mem12DuplexStreamEE0Cs5K7vlHKW34j_17pooled_typed_send
FNDA:2000,_RNCNvMsf_NtCscNmhOS6QYVL_12kameo_remote15connection_poolNtB7_20LockFreeStreamHandle18acquire_ask_permit0Cs5K7vlHKW34j_17pooled_typed_send
FNDA:1,_RNCNvMsf_NtCscNmhOS6QYVL_12kameo_remote15connection_poolNtB7_20LockFreeStreamHandle27write_pooled_control_inline0Cs5K7vlHKW34j_17pooled_typed_send
FNDA:2000,_RNCNvMsf_NtCscNmhOS6QYVL_12kameo_remote15connection_poolNtB7_20LockFreeStreamHandle28write_header_and_payload_ask0Cs5K7vlHKW34j_17pooled_typed_send
FNDA:852,_RNvMsf_NtCscNmhOS6QYVL_12kameo_remote15connection_poolNtB5_20LockFreeStreamHandle19write_bytes_controlCse2axp3xcI2k_30register_actor_sync_real_peers
FNDA:852,_RINvMsv_NtCscNmhOS6QYVL_12kameo_remote15connection_poolNtB6_16ConnectionHandle4tellRShECse2axp3xcI2k_30register_actor_sync_real_peers
FNDA:852,_RNCINvMsv_NtCscNmhOS6QYVL_12kameo_remote15connection_poolNtB8_16ConnectionHandle4tellRShE0Cse2axp3xcI2k_30register_actor_sync_real_peers
FNDA:0,_RNCNCNvMsv_NtCscNmhOS6QYVL_12kameo_remote15connection_poolNtB9_16ConnectionHandle10tell_batch00Cse2axp3xcI2k_30register_actor_sync_real_peers
FNDA:0,_RNCNCNvMsw_NtCscNmhOS6QYVL_12kameo_remote15connection_poolNtB9_14ConnectionPool22get_connection_to_peer00Cse2axp3xcI2k_30register_actor_sync_real_peers
FNDA:852,_RNCNvMsi_NtCscNmhOS6QYVL_12kameo_remote15connection_poolNtB7_11TellMessage8send_via0Cse2axp3xcI2k_30register_actor_sync_real_peers
FNDA:0,_RNCNvMsv_NtCscNmhOS6QYVL_12kameo_remote15connection_poolNtB7_16ConnectionHandle10tell_batch0Cse2axp3xcI2k_30register_actor_sync_real_peers
FNDA:852,_RNCNvMsv_NtCscNmhOS6QYVL_12kameo_remote15connection_poolNtB7_16ConnectionHandle8tell_raw0Cse2axp3xcI2k_30register_actor_sync_real_peers
FNDA:18,_RNCNvMsw_NtCscNmhOS6QYVL_12kameo_remote15connection_poolNtB7_14ConnectionPool22get_connection_to_peer0Cse2axp3xcI2k_30register_actor_sync_real_peers
FNDA:1094,_RNvMsf_NtCscNmhOS6QYVL_12kameo_remote15connection_poolNtB5_20LockFreeStreamHandle19write_bytes_controlCscsKZLhnnxZe_21tell_message_api_demo
FNDA:22,_RINvMsv_NtCscNmhOS6QYVL_12kameo_remote15connection_poolNtB6_16ConnectionHandle4tellNtB6_11TellMessageECscsKZLhnnxZe_21tell_message_api_demo
FNDA:1010,_RINvMsv_NtCscNmhOS6QYVL_12kameo_remote15connection_poolNtB6_16ConnectionHandle4tellRINtNtCsdFlNUEO95cG_5alloc3vec3VechEECscsKZLhnnxZe_21tell_message_api_demo
FNDA:62,_RINvMsv_NtCscNmhOS6QYVL_12kameo_remote15connection_poolNtB6_16ConnectionHandle4tellRShECscsKZLhnnxZe_21tell_message_api_demo
FNDA:22,_RNCINvMsv_NtCscNmhOS6QYVL_12kameo_remote15connection_poolNtB8_16ConnectionHandle4tellNtB8_11TellMessageE0CscsKZLhnnxZe_21tell_message_api_demo
FNDA:1010,_RNCINvMsv_NtCscNmhOS6QYVL_12kameo_remote15connection_poolNtB8_16ConnectionHandle4tellRINtNtCsdFlNUEO95cG_5alloc3vec3VechEE0CscsKZLhnnxZe_21tell_message_api_demo
FNDA:62,_RNCINvMsv_NtCscNmhOS6QYVL_12kameo_remote15connection_poolNtB8_16ConnectionHandle4tellRShE0CscsKZLhnnxZe_21tell_message_api_demo
FNDA:1009,_RNCNCNvMsv_NtCscNmhOS6QYVL_12kameo_remote15connection_poolNtB9_16ConnectionHandle10tell_batch00CscsKZLhnnxZe_21tell_message_api_demo
FNDA:154,_RNCNvMsf_NtCscNmhOS6QYVL_12kameo_remote15connection_poolNtB7_20LockFreeStreamHandle18acquire_ask_permit0CscsKZLhnnxZe_21tell_message_api_demo
FNDA:154,_RNCNvMsf_NtCscNmhOS6QYVL_12kameo_remote15connection_poolNtB7_20LockFreeStreamHandle35write_header_and_payload_ask_inline0CscsKZLhnnxZe_21tell_message_api_demo
FNDA:1094,_RNCNvMsi_NtCscNmhOS6QYVL_12kameo_remote15connection_poolNtB7_11TellMessage8send_via0CscsKZLhnnxZe_21tell_message_api_demo
FNDA:154,_RNCNvMsr_NtCscNmhOS6QYVL_12kameo_remote15connection_poolNtB7_18CorrelationTracker17wait_for_response0CscsKZLhnnxZe_21tell_message_api_demo
FNDA:22,_RNCNvMsv_NtCscNmhOS6QYVL_12kameo_remote15connection_poolNtB7_16ConnectionHandle10tell_batch0CscsKZLhnnxZe_21tell_message_api_demo
FNDA:154,_RNCNvMsv_NtCscNmhOS6QYVL_12kameo_remote15connection_poolNtB7_16ConnectionHandle16ask_with_timeout0CscsKZLhnnxZe_21tell_message_api_demo
FNDA:154,_RNCNvMsv_NtCscNmhOS6QYVL_12kameo_remote15connection_poolNtB7_16ConnectionHandle3ask0CscsKZLhnnxZe_21tell_message_api_demo
FNDA:1072,_RNCNvMsv_NtCscNmhOS6QYVL_12kameo_remote15connection_poolNtB7_16ConnectionHandle8tell_raw0CscsKZLhnnxZe_21tell_message_api_demo
FNDA:918,_RNvMsf_NtCscNmhOS6QYVL_12kameo_remote15connection_poolNtB5_20LockFreeStreamHandle19write_bytes_controlCs6e0SCmjIPsc_21tell_with_lookup_demo
FNDA:6,_RINvMsv_NtCscNmhOS6QYVL_12kameo_remote15connection_poolNtB6_16ConnectionHandle4tellNtB6_11TellMessageECs6e0SCmjIPsc_21tell_with_lookup_demo
FNDA:912,_RINvMsv_NtCscNmhOS6QYVL_12kameo_remote15connection_poolNtB6_16ConnectionHandle4tellRShECs6e0SCmjIPsc_21tell_with_lookup_demo
FNDA:6,_RNCINvMsv_NtCscNmhOS6QYVL_12kameo_remote15connection_poolNtB8_16ConnectionHandle4tellNtB8_11TellMessageE0Cs6e0SCmjIPsc_21tell_with_lookup_demo
FNDA:912,_RNCINvMsv_NtCscNmhOS6QYVL_12kameo_remote15connection_poolNtB8_16ConnectionHandle4tellRShE0Cs6e0SCmjIPsc_21tell_with_lookup_demo
FNDA:906,_RNCNCNvMsv_NtCscNmhOS6QYVL_12kameo_remote15connection_poolNtB9_16ConnectionHandle10tell_batch00Cs6e0SCmjIPsc_21tell_with_lookup_demo
FNDA:0,_RNCNCNvMsw_NtCscNmhOS6QYVL_12kameo_remote15connection_poolNtB9_14ConnectionPool22get_connection_to_peer00Cs6e0SCmjIPsc_21tell_with_lookup_demo
FNDA:918,_RNCNvMsi_NtCscNmhOS6QYVL_12kameo_remote15connection_poolNtB7_11TellMessage8send_via0Cs6e0SCmjIPsc_21tell_with_lookup_demo
FNDA:6,_RNCNvMsv_NtCscNmhOS6QYVL_12kameo_remote15connection_poolNtB7_16ConnectionHandle10tell_batch0Cs6e0SCmjIPsc_21tell_with_lookup_demo
FNDA:912,_RNCNvMsv_NtCscNmhOS6QYVL_12kameo_remote15connection_poolNtB7_16ConnectionHandle8tell_raw0Cs6e0SCmjIPsc_21tell_with_lookup_demo
FNDA:6,_RNCNvMsw_NtCscNmhOS6QYVL_12kameo_remote15connection_poolNtB7_14ConnectionPool22get_connection_to_peer0Cs6e0SCmjIPsc_21tell_with_lookup_demo
FNDA:8,_RNvMsf_NtCscNmhOS6QYVL_12kameo_remote15connection_poolNtB5_20LockFreeStreamHandle19write_bytes_controlCsk9ZdOj1Nc7t_24test_peer_initialization
FNDA:8,_RINvMsv_NtCscNmhOS6QYVL_12kameo_remote15connection_poolNtB6_16ConnectionHandle4tellRShECsk9ZdOj1Nc7t_24test_peer_initialization
FNDA:8,_RNCINvMsv_NtCscNmhOS6QYVL_12kameo_remote15connection_poolNtB8_16ConnectionHandle4tellRShE0Csk9ZdOj1Nc7t_24test_peer_initialization
FNDA:0,_RNCNCNvMsv_NtCscNmhOS6QYVL_12kameo_remote15connection_poolNtB9_16ConnectionHandle10tell_batch00Csk9ZdOj1Nc7t_24test_peer_initialization
FNDA:0,_RNCNCNvMsw_NtCscNmhOS6QYVL_12kameo_remote15connection_poolNtB9_14ConnectionPool22get_connection_to_peer00Csk9ZdOj1Nc7t_24test_peer_initialization
FNDA:8,_RNCNvMsi_NtCscNmhOS6QYVL_12kameo_remote15connection_poolNtB7_11TellMessage8send_via0Csk9ZdOj1Nc7t_24test_peer_initialization
FNDA:0,_RNCNvMsv_NtCscNmhOS6QYVL_12kameo_remote15connection_poolNtB7_16ConnectionHandle10tell_batch0Csk9ZdOj1Nc7t_24test_peer_initialization
FNDA:8,_RNCNvMsv_NtCscNmhOS6QYVL_12kameo_remote15connection_poolNtB7_16ConnectionHandle8tell_raw0Csk9ZdOj1Nc7t_24test_peer_initialization
FNDA:6,_RNCNvMsw_NtCscNmhOS6QYVL_12kameo_remote15connection_poolNtB7_14ConnectionPool22get_connection_to_peer0Csk9ZdOj1Nc7t_24test_peer_initialization
FNDA:0,_RINvMsv_NtCscNmhOS6QYVL_12kameo_remote15connection_poolNtB6_16ConnectionHandle4tellRShECsi8FU15tTkCn_12timing_debug
FNDA:0,_RNCINvMsv_NtCscNmhOS6QYVL_12kameo_remote15connection_poolNtB8_16ConnectionHandle4tellRShE0Csi8FU15tTkCn_12timing_debug
FNDA:0,_RNCNCNvMsv_NtCscNmhOS6QYVL_12kameo_remote15connection_poolNtB9_16ConnectionHandle10tell_batch00Csi8FU15tTkCn_12timing_debug
FNDA:0,_RNCNCNvMsw_NtCscNmhOS6QYVL_12kameo_remote15connection_poolNtB9_14ConnectionPool22get_connection_to_peer00Csi8FU15tTkCn_12timing_debug
FNDA:0,_RNCNvMsi_NtCscNmhOS6QYVL_12kameo_remote15connection_poolNtB7_11TellMessage8send_via0Csi8FU15tTkCn_12timing_debug
FNDA:0,_RNCNvMsv_NtCscNmhOS6QYVL_12kameo_remote15connection_poolNtB7_16ConnectionHandle10tell_batch0Csi8FU15tTkCn_12timing_debug
FNDA:0,_RNCNvMsv_NtCscNmhOS6QYVL_12kameo_remote15connection_poolNtB7_16ConnectionHandle8tell_raw0Csi8FU15tTkCn_12timing_debug
FNDA:2,_RNCNvMsw_NtCscNmhOS6QYVL_12kameo_remote15connection_poolNtB7_14ConnectionPool22get_connection_to_peer0Csi8FU15tTkCn_12timing_debug
FNDA:0,_RNvMsf_NtCscNmhOS6QYVL_12kameo_remote15connection_poolNtB5_20LockFreeStreamHandle19write_bytes_controlCsi8FU15tTkCn_12timing_debug
FNDA:7,_RINvMsv_NtCscNmhOS6QYVL_12kameo_remote15connection_poolNtB6_16ConnectionHandle4tellRShECseXnjFWXUgcY_15tls_integration
FNDA:7,_RNCINvMsv_NtCscNmhOS6QYVL_12kameo_remote15connection_poolNtB8_16ConnectionHandle4tellRShE0CseXnjFWXUgcY_15tls_integration
FNDA:0,_RNCNCNvMsv_NtCscNmhOS6QYVL_12kameo_remote15connection_poolNtB9_16ConnectionHandle10tell_batch00CseXnjFWXUgcY_15tls_integration
FNDA:0,_RNCNCNvMsw_NtCscNmhOS6QYVL_12kameo_remote15connection_poolNtB9_14ConnectionPool22get_connection_to_peer00CseXnjFWXUgcY_15tls_integration
FNDA:7,_RNCNvMsi_NtCscNmhOS6QYVL_12kameo_remote15connection_poolNtB7_11TellMessage8send_via0CseXnjFWXUgcY_15tls_integration
FNDA:0,_RNCNvMsv_NtCscNmhOS6QYVL_12kameo_remote15connection_poolNtB7_16ConnectionHandle10tell_batch0CseXnjFWXUgcY_15tls_integration
FNDA:7,_RNCNvMsv_NtCscNmhOS6QYVL_12kameo_remote15connection_poolNtB7_16ConnectionHandle8tell_raw0CseXnjFWXUgcY_15tls_integration
FNDA:0,_RNCNvMsw_NtCscNmhOS6QYVL_12kameo_remote15connection_poolNtB7_14ConnectionPool22get_connection_to_peer0CseXnjFWXUgcY_15tls_integration
FNDA:7,_RNvMsf_NtCscNmhOS6QYVL_12kameo_remote15connection_poolNtB5_20LockFreeStreamHandle19write_bytes_controlCseXnjFWXUgcY_15tls_integration
FNDA:1,_RINvMsv_NtCscNmhOS6QYVL_12kameo_remote15connection_poolNtB6_16ConnectionHandle10tell_typedNtCs4r4m1QEivDF_20typed_tls_end_to_end4PingEB1s_
FNDA:1,_RINvMsv_NtCscNmhOS6QYVL_12kameo_remote15connection_poolNtB6_16ConnectionHandle18ask_typed_archivedNtCs4r4m1QEivDF_20typed_tls_end_to_end4PingB1y_EB1A_
FNDA:0,_RINvMsv_NtCscNmhOS6QYVL_12kameo_remote15connection_poolNtB6_16ConnectionHandle4tellRShECs4r4m1QEivDF_20typed_tls_end_to_end
FNDA:1,_RNCINvMsv_NtCscNmhOS6QYVL_12kameo_remote15connection_poolNtB8_16ConnectionHandle10tell_typedNtCs4r4m1QEivDF_20typed_tls_end_to_end4PingE0B1u_
FNDA:1,_RNCINvMsv_NtCscNmhOS6QYVL_12kameo_remote15connection_poolNtB8_16ConnectionHandle18ask_typed_archivedNtCs4r4m1QEivDF_20typed_tls_end_to_end4PingB1A_E0B1C_
FNDA:0,_RNCINvMsv_NtCscNmhOS6QYVL_12kameo_remote15connection_poolNtB8_16ConnectionHandle4tellRShE0Cs4r4m1QEivDF_20typed_tls_end_to_end
FNDA:0,_RNCNCNvMsv_NtCscNmhOS6QYVL_12kameo_remote15connection_poolNtB9_16ConnectionHandle10tell_batch00Cs4r4m1QEivDF_20typed_tls_end_to_end
FNDA:0,_RNCNCNvMsw_NtCscNmhOS6QYVL_12kameo_remote15connection_poolNtB9_14ConnectionPool22get_connection_to_peer00Cs4r4m1QEivDF_20typed_tls_end_to_end
FNDA:1,_RNCNvMsf_NtCscNmhOS6QYVL_12kameo_remote15connection_poolNtB7_20LockFreeStreamHandle18acquire_ask_permit0Cs4r4m1QEivDF_20typed_tls_end_to_end
FNDA:1,_RNCNvMsf_NtCscNmhOS6QYVL_12kameo_remote15connection_poolNtB7_20LockFreeStreamHandle23write_pooled_ask_inline0Cs4r4m1QEivDF_20typed_tls_end_to_end
FNDA:1,_RNCNvMsf_NtCscNmhOS6QYVL_12kameo_remote15connection_poolNtB7_20LockFreeStreamHandle27write_pooled_control_inline0Cs4r4m1QEivDF_20typed_tls_end_to_end
FNDA:0,_RNCNvMsi_NtCscNmhOS6QYVL_12kameo_remote15connection_poolNtB7_11TellMessage8send_via0Cs4r4m1QEivDF_20typed_tls_end_to_end
FNDA:1,_RNCNvMsr_NtCscNmhOS6QYVL_12kameo_remote15connection_poolNtB7_18CorrelationTracker17wait_for_response0Cs4r4m1QEivDF_20typed_tls_end_to_end
FNDA:0,_RNCNvMsv_NtCscNmhOS6QYVL_12kameo_remote15connection_poolNtB7_16ConnectionHandle10tell_batch0Cs4r4m1QEivDF_20typed_tls_end_to_end
FNDA:1,_RNCNvMsv_NtCscNmhOS6QYVL_12kameo_remote15connection_poolNtB7_16ConnectionHandle23ask_with_timeout_pooled0Cs4r4m1QEivDF_20typed_tls_end_to_end
FNDA:0,_RNCNvMsv_NtCscNmhOS6QYVL_12kameo_remote15connection_poolNtB7_16ConnectionHandle8tell_raw0Cs4r4m1QEivDF_20typed_tls_end_to_end
FNDA:2,_RNCNvMsw_NtCscNmhOS6QYVL_12kameo_remote15connection_poolNtB7_14ConnectionPool22get_connection_to_peer0Cs4r4m1QEivDF_20typed_tls_end_to_end
FNDA:0,_RNvMsf_NtCscNmhOS6QYVL_12kameo_remote15connection_poolNtB5_20LockFreeStreamHandle19write_bytes_controlCs4r4m1QEivDF_20typed_tls_end_to_end
FNF:423
FNH:238
DA:55,349
DA:56,349
DA:57,349
DA:60,350
DA:61,350
DA:62,1
DA:63,349
DA:64,350
DA:65,350
DA:68,174
DA:69,174
DA:70,0
DA:71,174
DA:72,174
DA:73,174
DA:76,349
DA:77,349
DA:78,135
DA:79,214
DA:80,349
DA:81,93
DA:82,256
DA:83,349
DA:86,214
DA:87,214
DA:88,81
DA:89,133
DA:90,214
DA:93,0
DA:94,0
DA:95,0
DA:96,0
DA:97,0
DA:100,214
DA:101,214
DA:102,214
DA:105,0
DA:106,0
DA:107,0
DA:111,349
DA:112,349
DA:113,349
DA:116,358
DA:117,358
DA:118,0
DA:119,358
DA:121,358
DA:122,356
DA:123,2
DA:125,2
DA:126,358
DA:128,9431
DA:129,9431
DA:130,9431
DA:131,9431
DA:132,9431
DA:133,9431
DA:134,9431
DA:135,9431
DA:136,4853
DA:137,4578
DA:139,4578
DA:140,174
DA:141,4404
DA:143,4404
DA:144,4372
DA:145,32
DA:147,32
DA:148,9431
DA:162,2307
DA:163,2307
DA:164,1023
DA:165,1284
DA:166,1284
DA:167,2
DA:168,2
DA:169,1282
DA:170,1282
DA:171,2
DA:172,1280
DA:173,1280
DA:174,2
DA:175,2
DA:176,2
DA:177,2
DA:178,1278
DA:180,1278
DA:181,2307
DA:184,2533
DA:185,2533
DA:186,226
DA:187,226
DA:188,2307
DA:190,2307
DA:191,2307
DA:192,2533
DA:202,7
DA:204,7
DA:205,2
DA:206,2
DA:207,2
DA:208,2
DA:209,5
DA:210,5
DA:211,5
DA:212,5
DA:213,5
DA:214,5
DA:215,7
DA:218,915
DA:219,915
DA:220,915
DA:223,355
DA:224,355
DA:225,355
DA:228,347
DA:229,347
DA:230,347
DA:231,347
DA:237,6
DA:240,6
DA:241,6
DA:246,4
DA:247,4
DA:248,4
DA:251,0
DA:252,0
DA:253,0
DA:254,0
DA:255,0
DA:256,0
DA:257,0
DA:261,355
DA:263,355
DA:264,355
DA:265,355
DA:266,355
DA:267,355
DA:268,355
DA:328,9090
DA:329,9090
DA:330,18
DA:331,0
DA:332,9072
DA:333,0
DA:334,0
DA:336,9090
DA:365,0
DA:366,0
DA:367,0
DA:368,0
DA:369,0
DA:370,0
DA:371,0
DA:372,0
DA:373,0
DA:374,0
DA:375,0
DA:376,0
DA:377,0
DA:378,0
DA:379,0
DA:380,0
DA:381,0
DA:385,347
DA:386,347
DA:387,347
DA:388,347
DA:389,347
DA:390,347
DA:391,347
DA:392,347
DA:393,347
DA:394,347
DA:395,347
DA:396,347
DA:397,347
DA:398,347
DA:402,0
DA:403,0
DA:404,0
DA:407,214
DA:408,214
DA:409,214
DA:410,214
DA:411,214
DA:412,214
DA:413,214
DA:414,214
DA:416,9090
DA:417,9090
DA:418,9090
DA:420,387
DA:421,387
DA:422,387
DA:424,0
DA:425,0
DA:426,0
DA:427,0
DA:428,0
DA:429,0
DA:430,0
DA:431,0
DA:432,0
DA:433,0
DA:435,1848
DA:436,1848
DA:437,1848
DA:438,1848
DA:440,0
DA:441,0
DA:442,0
DA:444,0
DA:445,0
DA:446,0
DA:448,9088
DA:449,9088
DA:450,9088
DA:452,0
DA:453,0
DA:454,0
DA:490,0
DA:491,0
DA:492,0
DA:493,0
DA:494,0
DA:495,0
DA:496,0
DA:497,0
DA:499,0
DA:500,0
DA:502,0
DA:503,0
DA:504,0
DA:505,0
DA:506,0
DA:508,0
DA:509,0
DA:510,0
DA:511,0
DA:512,0
DA:513,0
DA:514,0
DA:515,0
DA:516,0
DA:518,0
DA:519,0
DA:520,0
DA:521,0
DA:523,0
DA:524,0
DA:525,0
DA:526,0
DA:527,0
DA:528,0
DA:530,0
DA:531,0
DA:533,0
DA:534,0
DA:536,0
DA:537,0
DA:538,0
DA:539,0
DA:540,0
DA:541,0
DA:543,0
DA:559,0
DA:560,0
DA:561,0
DA:562,0
DA:563,0
DA:564,0
DA:565,0
DA:566,0
DA:597,174
DA:598,174
DA:599,44544
DA:600,44544
DA:601,44544
DA:603,174
DA:604,174
DA:605,174
DA:606,174
DA:607,174
DA:608,174
DA:609,174
DA:612,1540
DA:613,1540
DA:614,1540
DA:615,0
DA:616,1540
DA:618,1540
DA:621,1540
DA:624,1540
DA:625,1540
DA:626,1540
DA:627,1540
DA:631,0
DA:632,0
DA:634,1540
DA:637,0
DA:638,0
DA:640,0
DA:642,0
DA:643,0
DA:644,0
DA:645,0
DA:647,0
DA:648,0
DA:650,0
DA:651,0
DA:652,0
DA:654,0
DA:655,0
DA:656,0
DA:671,354
DA:673,354
DA:674,354
DA:675,354
DA:676,354
DA:677,354
DA:679,354
DA:683,19683
DA:684,19683
DA:685,19683
DA:686,0
DA:687,19683
DA:689,19683
DA:693,19683
DA:694,19683
DA:695,19683
DA:696,19683
DA:699,19683
DA:700,19683
DA:701,19683
DA:705,28834
DA:706,28834
DA:707,28834
DA:708,9320
DA:709,19514
DA:711,19514
DA:716,19514
DA:717,19514
DA:718,19514
DA:719,19514
DA:720,19514
DA:721,19514
DA:722,19514
DA:724,28834
DA:726,9427
DA:727,9427
DA:728,9427
DA:731,0
DA:732,0
DA:733,0
DA:736,0
DA:737,0
DA:738,0
DA:761,0
DA:762,0
DA:763,0
DA:764,0
DA:765,0
DA:766,0
DA:767,0
DA:769,0
DA:770,0
DA:771,0
DA:772,0
DA:773,0
DA:774,0
DA:775,0
DA:777,0
DA:778,0
DA:779,0
DA:781,0
DA:782,0
DA:783,0
DA:784,0
DA:785,0
DA:786,0
DA:787,0
DA:789,0
DA:791,0
DA:792,0
DA:793,0
DA:794,0
DA:795,0
DA:796,0
DA:797,0
DA:798,0
DA:799,0
DA:800,0
DA:801,0
DA:805,0
DA:806,0
DA:836,354
DA:837,354
DA:838,354
DA:839,354
DA:840,354
DA:841,354
DA:842,354
DA:843,354
DA:845,354
DA:846,354
DA:847,354
DA:848,354
DA:849,354
DA:850,354
DA:852,354
DA:853,354
DA:854,354
DA:855,354
DA:856,0
DA:858,354
DA:860,354
DA:861,354
DA:864,354
DA:867,354
DA:870,354
DA:871,354
DA:872,354
DA:873,354
DA:874,354
DA:875,354
DA:876,354
DA:877,354
DA:878,354
DA:879,354
DA:881,354
DA:882,339
DA:885,33
DA:887,339
DA:888,339
DA:889,339
DA:890,339
DA:891,339
DA:892,339
DA:893,339
DA:894,339
DA:895,339
DA:896,339
DA:897,339
DA:898,339
DA:900,89
DA:903,7
DA:905,89
DA:908,354
DA:909,354
DA:910,354
DA:911,354
DA:912,354
DA:913,354
DA:914,354
DA:915,354
DA:916,354
DA:917,354
DA:918,354
DA:919,354
DA:920,354
DA:921,354
DA:922,354
DA:923,354
DA:924,354
DA:925,354
DA:926,354
DA:927,354
DA:928,354
DA:933,339
DA:934,339
DA:935,339
DA:936,339
DA:937,339
DA:938,339
DA:939,339
DA:940,339
DA:941,339
DA:942,339
DA:943,339
DA:944,339
DA:945,339
DA:956,339
DA:962,339
DA:963,339
DA:965,9517
DA:966,9428
DA:967,9428
DA:969,9428
DA:970,0
DA:971,0
DA:972,0
DA:973,0
DA:974,0
DA:975,0
DA:976,0
DA:977,0
DA:978,0
DA:979,0
DA:983,0
DA:984,0
DA:985,0
DA:986,0
DA:988,0
DA:989,0
DA:990,0
DA:991,0
DA:992,0
DA:993,0
DA:994,0
DA:995,0
DA:996,0
DA:997,0
DA:998,0
DA:1002,0
DA:1003,0
DA:1004,0
DA:1005,0
DA:1006,0
DA:1007,0
DA:1008,0
DA:1009,0
DA:1010,0
DA:1017,9428
DA:1018,9428
DA:1019,9428
DA:1021,28942
DA:1022,28834
DA:1023,19514
DA:1024,19514
DA:1025,17909
DA:1026,17909
DA:1027,19514
DA:1028,6445
DA:1029,8000
DA:1030,8000
DA:1031,8000
DA:1032,8000
DA:1034,5067
DA:1035,5067
DA:1036,5067
DA:1038,5067
DA:1040,7
DA:1041,7
DA:1042,7
DA:1043,7
DA:1045,36
DA:1046,29
DA:1047,29
DA:1048,29
DA:1049,0
DA:1050,0
DA:1051,0
DA:1052,0
DA:1055,0
DA:1056,0
DA:1057,0
DA:1058,0
DA:1059,0
DA:1060,0
DA:1061,0
DA:1062,0
DA:1063,0
DA:1065,0
DA:1066,29
DA:1069,7
DA:1070,7
DA:1071,7
DA:1072,7
DA:1073,7
DA:1076,7
DA:1077,7
DA:1078,7
DA:1079,7
DA:1080,7
DA:1081,7
DA:1082,0
DA:1084,0
DA:1085,5060
DA:1087,5067
DA:1088,5067
DA:1089,5067
DA:1090,5067
DA:1092,10134
DA:1093,5067
DA:1094,5067
DA:1095,5067
DA:1096,5067
DA:1097,0
DA:1098,0
DA:1099,5067
DA:1100,0
DA:1101,0
DA:1103,5067
DA:1106,5067
DA:1107,0
DA:1108,5067
DA:1109,5067
DA:1110,5067
DA:1111,5067
DA:1112,5067
DA:1113,5067
DA:1114,0
DA:1115,0
DA:1116,5067
DA:1117,5067
DA:1118,5067
DA:1119,5067
DA:1120,0
DA:1121,0
DA:1122,0
DA:1124,0
DA:1129,0
DA:1130,0
DA:1131,0
DA:1133,0
DA:1135,0
DA:1136,0
DA:1137,0
DA:1138,0
DA:1140,0
DA:1141,0
DA:1142,0
DA:1143,0
DA:1144,0
DA:1145,0
DA:1146,0
DA:1147,0
DA:1150,0
DA:1151,0
DA:1152,0
DA:1153,0
DA:1154,0
DA:1155,0
DA:1156,0
DA:1157,0
DA:1158,0
DA:1160,0
DA:1161,0
DA:1164,0
DA:1165,0
DA:1166,0
DA:1167,0
DA:1168,0
DA:1171,0
DA:1172,0
DA:1173,0
DA:1174,0
DA:1175,0
DA:1176,0
DA:1177,0
DA:1179,0
DA:1180,0
DA:1182,0
DA:1183,0
DA:1185,0
DA:1186,0
DA:1187,0
DA:1188,0
DA:1189,0
DA:1190,0
DA:1191,0
DA:1192,0
DA:1193,0
DA:1194,0
DA:1198,0
DA:1199,0
DA:1200,0
DA:1201,0
DA:1202,0
DA:1203,0
DA:1204,0
DA:1205,0
DA:1210,0
DA:1211,0
DA:1212,0
DA:1214,0
DA:1216,0
DA:1217,0
DA:1218,0
DA:1219,0
DA:1221,0
DA:1222,0
DA:1223,0
DA:1224,0
DA:1225,0
DA:1226,0
DA:1227,0
DA:1228,0
DA:1231,0
DA:1232,0
DA:1233,0
DA:1234,0
DA:1235,0
DA:1236,0
DA:1237,0
DA:1238,0
DA:1239,0
DA:1241,0
DA:1242,0
DA:1245,0
DA:1246,0
DA:1247,0
DA:1248,0
DA:1249,0
DA:1252,0
DA:1253,0
DA:1254,0
DA:1255,0
DA:1256,0
DA:1257,0
DA:1258,0
DA:1260,0
DA:1261,0
DA:1263,0
DA:1264,0
DA:1265,0
DA:1266,0
DA:1267,0
DA:1269,0
DA:1270,0
DA:1271,0
DA:1272,0
DA:1273,0
DA:1274,0
DA:1275,0
DA:1276,0
DA:1278,0
DA:1279,0
DA:1280,0
DA:1281,0
DA:1282,0
DA:1283,0
DA:1284,0
DA:1285,0
DA:1290,2
DA:1291,2
DA:1292,2
DA:1293,2
DA:1294,2
DA:1296,2
DA:1297,0
DA:1298,0
DA:1299,0
DA:1300,0
DA:1301,0
DA:1302,0
DA:1303,0
DA:1304,0
DA:1305,0
DA:1306,0
DA:1307,0
DA:1308,0
DA:1310,2
DA:1312,2
DA:1313,2
DA:1314,2
DA:1315,2
DA:1317,2
DA:1318,4
DA:1319,2
DA:1320,2
DA:1321,2
DA:1322,2
DA:1323,0
DA:1324,0
DA:1325,2
DA:1326,0
DA:1327,0
DA:1329,2
DA:1332,2
DA:1333,0
DA:1334,2
DA:1335,2
DA:1336,2
DA:1337,2
DA:1338,2
DA:1339,2
DA:1340,2
DA:1341,0
DA:1342,0
DA:1343,2
DA:1344,2
DA:1345,2
DA:1346,2
DA:1347,0
DA:1348,0
DA:1349,0
DA:1351,0
DA:1355,0
DA:1356,0
DA:1357,0
DA:1358,0
DA:1359,0
DA:1360,0
DA:1361,0
DA:1362,0
DA:1363,0
DA:1364,0
DA:1365,0
DA:1370,4
DA:1371,2
DA:1372,0
DA:1373,2
DA:1374,2
DA:1375,2
DA:1376,2
DA:1377,0
DA:1381,0
DA:1382,0
DA:1383,0
DA:1384,0
DA:1385,0
DA:1386,0
DA:1387,0
DA:1388,0
DA:1389,0
DA:1390,0
DA:1391,0
DA:1392,0
DA:1393,0
DA:1394,0
DA:1396,0
DA:1398,0
DA:1399,0
DA:1400,0
DA:1401,0
DA:1402,0
DA:1403,0
DA:1404,0
DA:1405,0
DA:1411,9320
DA:1415,9428
DA:1417,3507
DA:1418,3507
DA:1419,3507
DA:1420,3507
DA:1422,25858
DA:1423,22352
DA:1424,22352
DA:1425,22352
DA:1426,263
DA:1427,263
DA:1429,263
DA:1430,262
DA:1431,262
DA:1432,262
DA:1433,262
DA:1434,262
DA:1435,0
DA:1437,262
DA:1438,22089
DA:1441,3506
DA:1442,3323
DA:1443,3323
DA:1445,3323
DA:1446,3323
DA:1447,3323
DA:1448,3323
DA:1449,3323
DA:1450,0
DA:1452,183
DA:1453,5921
DA:1455,9427
DA:1456,0
DA:1458,9427
DA:1459,9427
DA:1460,9427
DA:1462,9427
DA:1463,9427
DA:1464,9427
DA:1465,9427
DA:1469,4574
DA:1470,4574
DA:1471,4574
DA:1472,4574
DA:1473,4853
DA:1475,9427
DA:1476,4852
DA:1478,4852
DA:1479,0
DA:1480,0
DA:1481,0
DA:1482,0
DA:1483,0
DA:1484,0
DA:1485,0
DA:1486,0
DA:1487,0
DA:1488,0
DA:1489,0
DA:1492,0
DA:1493,0
DA:1494,0
DA:1495,0
DA:1497,0
DA:1498,0
DA:1499,0
DA:1500,0
DA:1501,0
DA:1502,0
DA:1503,0
DA:1504,0
DA:1505,0
DA:1506,0
DA:1509,0
DA:1510,0
DA:1511,0
DA:1512,0
DA:1513,0
DA:1514,0
DA:1515,0
DA:1516,0
DA:1521,0
DA:1522,0
DA:1523,0
DA:1524,0
DA:1525,0
DA:1526,0
DA:1529,4852
DA:1530,4852
DA:1531,0
DA:1532,0
DA:1533,0
DA:1534,0
DA:1535,0
DA:1536,0
DA:1537,0
DA:1538,0
DA:1539,0
DA:1542,0
DA:1543,0
DA:1544,0
DA:1545,0
DA:1547,0
DA:1548,0
DA:1549,0
DA:1550,0
DA:1551,0
DA:1552,0
DA:1553,0
DA:1554,0
DA:1555,0
DA:1556,0
DA:1559,0
DA:1560,0
DA:1561,0
DA:1562,0
DA:1563,0
DA:1564,0
DA:1565,0
DA:1566,0
DA:1571,4852
DA:1572,4603
DA:1573,4603
DA:1576,4575
DA:1579,89
DA:1580,89
DA:1581,89
DA:1583,8609
DA:1584,8609
DA:1585,8609
DA:1586,8609
DA:1587,8609
DA:1588,8608
DA:1589,8608
DA:1591,9600
DA:1594,9600
DA:1596,9600
DA:1597,9600
DA:1598,204
DA:1599,204
DA:1600,204
DA:1601,204
DA:1602,204
DA:1603,204
DA:1604,9396
DA:1607,9600
DA:1608,9600
DA:1609,9600
DA:1610,9600
DA:1611,9600
DA:1612,9600
DA:1614,9600
DA:1615,9600
DA:1616,9600
DA:1617,9600
DA:1618,0
DA:1619,0
DA:1620,0
DA:1621,0
DA:1623,9600
DA:1624,9600
DA:1627,0
DA:1628,0
DA:1629,0
DA:1630,0
DA:1634,0
DA:1636,0
DA:1637,0
DA:1639,0
DA:1640,0
DA:1641,0
DA:1642,0
DA:1645,9600
DA:1648,1
DA:1649,1
DA:1650,1
DA:1651,1
DA:1652,1
DA:1653,1
DA:1656,130
DA:1657,130
DA:1658,129
DA:1661,1
DA:1662,1
DA:1663,1
DA:1664,1
DA:1665,1
DA:1667,18078
DA:1668,18078
DA:1669,18078
DA:1670,18078
DA:1671,18078
DA:1672,18078
DA:1673,18078
DA:1674,18078
DA:1676,18078
DA:1677,18078
DA:1678,18078
DA:1680,0
DA:1681,0
DA:1682,0
DA:1683,0
DA:1685,18078
DA:1687,19683
DA:1688,19683
DA:1689,19683
DA:1690,19683
DA:1691,19683
DA:1692,4527
DA:1693,4527
DA:1694,15156
DA:1695,19683
DA:1698,1010
DA:1699,1010
DA:1700,1010
DA:1701,1010
DA:1704,4014
DA:1705,4014
DA:1706,4014
DA:1707,4014
DA:1709,3048
DA:1710,3048
DA:1711,3048
DA:1712,3048
DA:1713,3048
DA:1714,3048
DA:1715,3048
DA:1716,3048
DA:1718,2535
DA:1719,2535
DA:1720,2535
DA:1721,2535
DA:1722,2535
DA:1723,2535
DA:1724,2535
DA:1725,2535
DA:1726,2535
DA:1727,2535
DA:1728,2535
DA:1729,2535
DA:1730,2535
DA:1731,2535
DA:1733,2535
DA:1735,5048
DA:1736,5048
DA:1737,5048
DA:1738,5048
DA:1739,5048
DA:1740,5048
DA:1741,5048
DA:1742,5048
DA:1744,2420
DA:1745,2420
DA:1746,2420
DA:1747,2420
DA:1748,2420
DA:1749,2420
DA:1750,2420
DA:1751,2420
DA:1752,2420
DA:1753,2420
DA:1754,2420
DA:1755,2420
DA:1756,2420
DA:1757,2420
DA:1759,2420
DA:1761,0
DA:1762,0
DA:1763,0
DA:1764,0
DA:1765,0
DA:1766,0
DA:1767,0
DA:1768,0
DA:1769,0
DA:1770,0
DA:1771,0
DA:1772,0
DA:1773,0
DA:1774,0
DA:1776,0
DA:1778,2
DA:1779,2
DA:1780,2
DA:1781,2
DA:1782,2
DA:1783,2
DA:1784,2
DA:1785,2
DA:1786,2
DA:1787,2
DA:1788,2
DA:1789,2
DA:1790,2
DA:1791,2
DA:1792,2
DA:1793,2
DA:1794,2
DA:1795,2
DA:1797,2
DA:1799,0
DA:1800,0
DA:1801,0
DA:1802,0
DA:1803,0
DA:1804,0
DA:1805,0
DA:1806,0
DA:1807,0
DA:1808,0
DA:1809,0
DA:1810,0
DA:1811,0
DA:1812,0
DA:1814,0
DA:1816,1
DA:1817,1
DA:1818,1
DA:1819,1
DA:1820,1
DA:1821,1
DA:1822,1
DA:1823,1
DA:1824,1
DA:1825,1
DA:1826,1
DA:1827,1
DA:1828,1
DA:1829,1
DA:1830,1
DA:1831,1
DA:1832,1
DA:1833,1
DA:1835,1
DA:1837,0
DA:1838,0
DA:1839,0
DA:1840,0
DA:1841,0
DA:1842,0
DA:1843,0
DA:1845,0
DA:1846,0
DA:1847,0
DA:1848,0
DA:1849,0
DA:1850,0
DA:1851,0
DA:1852,0
DA:1853,0
DA:1854,0
DA:1855,0
DA:1856,0
DA:1857,0
DA:1858,0
DA:1859,0
DA:1860,0
DA:1861,0
DA:1863,0
DA:1865,0
DA:1866,0
DA:1867,0
DA:1868,0
DA:1869,0
DA:1870,0
DA:1871,0
DA:1874,1493
DA:1875,1493
DA:1877,1493
DA:1878,1493
DA:1879,1493
DA:1880,1493
DA:1881,1493
DA:1882,1493
DA:1886,1493
DA:1887,1493
DA:1889,1493
DA:1891,0
DA:1894,0
DA:1896,0
DA:1897,0
DA:1898,0
DA:1899,0
DA:1901,1493
DA:1904,0
DA:1905,0
DA:1906,0
DA:1907,0
DA:1908,0
DA:1909,0
DA:1911,0
DA:1912,0
DA:1913,0
DA:1914,0
DA:1915,0
DA:1916,0
DA:1919,0
DA:1920,0
DA:1921,0
DA:1923,0
DA:1926,0
DA:1928,0
DA:1929,0
DA:1930,0
DA:1931,0
DA:1933,0
DA:1936,112
DA:1937,112
DA:1938,112
DA:1939,112
DA:1940,112
DA:1941,112
DA:1942,112
DA:1944,112
DA:1945,112
DA:1946,112
DA:1947,112
DA:1948,112
DA:1949,112
DA:1950,112
DA:1951,112
DA:1952,112
DA:1953,112
DA:1955,112
DA:1956,112
DA:1957,112
DA:1959,0
DA:1962,0
DA:1964,0
DA:1965,0
DA:1966,0
DA:1967,0
DA:1969,112
DA:1972,0
DA:1973,0
DA:1975,0
DA:1976,0
DA:1977,0
DA:1978,0
DA:1979,0
DA:1980,0
DA:1982,0
DA:1983,0
DA:1984,0
DA:1986,0
DA:1987,0
DA:1988,0
DA:1989,0
DA:1991,0
DA:1994,0
DA:1995,0
DA:1996,0
DA:1997,0
DA:1998,0
DA:1999,0
DA:2001,0
DA:2002,0
DA:2003,0
DA:2004,0
DA:2005,0
DA:2006,0
DA:2008,0
DA:2009,0
DA:2010,0
DA:2012,0
DA:2013,0
DA:2014,0
DA:2015,0
DA:2017,0
DA:2020,0
DA:2022,0
DA:2023,0
DA:2024,0
DA:2025,0
DA:2027,0
DA:2028,0
DA:2029,0
DA:2030,0
DA:2031,0
DA:2032,0
DA:2034,0
DA:2036,0
DA:2039,0
DA:2040,0
DA:2041,0
DA:2042,0
DA:2045,0
DA:2046,0
DA:2048,0
DA:2049,0
DA:2050,0
DA:2052,0
DA:2053,0
DA:2056,0
DA:2057,0
DA:2058,0
DA:2059,0
DA:2061,0
DA:2062,0
DA:2063,0
DA:2065,0
DA:2066,0
DA:2069,0
DA:2070,0
DA:2071,0
DA:2072,0
DA:2075,0
DA:2076,0
DA:2078,0
DA:2081,0
DA:2082,0
DA:2083,0
DA:2086,0
DA:2087,0
DA:2088,0
DA:2091,0
DA:2092,0
DA:2093,0
DA:2096,0
DA:2097,0
DA:2098,0
DA:2101,0
DA:2102,0
DA:2103,0
DA:2106,304
DA:2107,304
DA:2108,304
DA:2109,304
DA:2115,0
DA:2116,0
DA:2117,0
DA:2119,0
DA:2120,0
DA:2121,0
DA:2122,0
DA:2123,0
DA:2124,0
DA:2125,0
DA:2131,0
DA:2132,0
DA:2133,0
DA:2134,0
DA:2136,0
DA:2140,0
DA:2141,0
DA:2142,0
DA:2145,0
DA:2148,0
DA:2149,0
DA:2150,0
DA:2151,0
DA:2152,0
DA:2153,0
DA:2154,0
DA:2155,0
DA:2156,0
DA:2157,0
DA:2158,0
DA:2159,0
DA:2160,0
DA:2161,0
DA:2162,0
DA:2165,0
DA:2166,0
DA:2167,0
DA:2168,0
DA:2169,0
DA:2170,0
DA:2171,0
DA:2172,0
DA:2173,0
DA:2174,0
DA:2175,0
DA:2176,0
DA:2177,0
DA:2178,0
DA:2181,0
DA:2182,0
DA:2183,0
DA:2184,0
DA:2185,0
DA:2186,0
DA:2187,0
DA:2188,0
DA:2191,0
DA:2192,0
DA:2193,0
DA:2194,0
DA:2195,0
DA:2196,0
DA:2197,0
DA:2198,0
DA:2199,0
DA:2200,0
DA:2201,0
DA:2202,0
DA:2204,0
DA:2205,0
DA:2206,0
DA:2207,0
DA:2210,0
DA:2211,0
DA:2213,0
DA:2214,0
DA:2215,0
DA:2216,0
DA:2217,0
DA:2218,0
DA:2219,0
DA:2220,0
DA:2221,0
DA:2222,0
DA:2224,0
DA:2225,0
DA:2226,0
DA:2227,0
DA:2228,0
DA:2229,0
DA:2230,0
DA:2231,0
DA:2232,0
DA:2233,0
DA:2234,0
DA:2235,0
DA:2236,0
DA:2237,0
DA:2238,0
DA:2242,0
DA:2243,0
DA:2244,0
DA:2245,0
DA:2246,0
DA:2247,0
DA:2248,0
DA:2249,0
DA:2250,0
DA:2252,0
DA:2253,0
DA:2254,0
DA:2255,0
DA:2256,0
DA:2257,0
DA:2258,0
DA:2259,0
DA:2260,0
DA:2263,0
DA:2264,0
DA:2265,0
DA:2266,0
DA:2267,0
DA:2268,0
DA:2269,0
DA:2270,0
DA:2271,0
DA:2272,0
DA:2274,0
DA:2275,0
DA:2276,0
DA:2277,0
DA:2278,0
DA:2279,0
DA:2280,0
DA:2281,0
DA:2282,0
DA:2283,0
DA:2287,0
DA:2289,0
DA:2293,0
DA:2294,0
DA:2295,0
DA:2296,0
DA:2299,0
DA:2300,0
DA:2301,0
DA:2302,0
DA:2305,0
DA:2306,0
DA:2307,0
DA:2308,0
DA:2310,0
DA:2311,0
DA:2320,0
DA:2321,0
DA:2322,0
DA:2326,0
DA:2327,0
DA:2328,0
DA:2329,0
DA:2330,0
DA:2331,0
DA:2332,0
DA:2333,0
DA:2344,0
DA:2345,0
DA:2346,0
DA:2349,28
DA:2350,28
DA:2351,28
DA:2354,0
DA:2355,0
DA:2356,0
DA:2358,0
DA:2360,0
DA:2363,3802
DA:2364,3802
DA:2365,3774
DA:2366,28
DA:2368,3802
DA:2373,2664
DA:2374,2664
DA:2375,2664
DA:2379,0
DA:2380,0
DA:2381,0
DA:2383,0
DA:2385,0
DA:2389,0
DA:2390,0
DA:2391,0
DA:2393,0
DA:2395,0
DA:2399,100
DA:2400,100
DA:2401,100
DA:2405,1010
DA:2406,1010
DA:2407,1010
DA:2471,0
DA:2472,0
DA:2473,0
DA:2474,0
DA:2475,0
DA:2479,523
DA:2480,523
DA:2481,535552
DA:2482,535552
DA:2483,535552
DA:2484,535552
DA:2485,523
DA:2486,523
DA:2487,523
DA:2488,523
DA:2489,523
DA:2491,5292
DA:2492,5292
DA:2493,5292
DA:2494,2646
DA:2495,2646
DA:2497,2646
DA:2498,5292
DA:2501,2647
DA:2503,2647
DA:2504,2647
DA:2505,0
DA:2506,2647
DA:2508,2647
DA:2509,2647
DA:2510,2647
DA:2511,2647
DA:2512,2647
DA:2513,0
DA:2514,0
DA:2515,0
DA:2516,2647
DA:2517,2647
DA:2518,0
DA:2521,2647
DA:2522,0
DA:2525,0
DA:2527,2647
DA:2530,2646
DA:2531,2646
DA:2532,2646
DA:2533,2646
DA:2536,2646
DA:2537,2646
DA:2538,2646
DA:2539,2646
DA:2540,0
DA:2541,2646
DA:2542,2646
DA:2543,2646
DA:2544,2646
DA:2545,2646
DA:2546,0
DA:2547,0
DA:2548,0
DA:2549,2646
DA:2550,2646
DA:2551,2646
DA:2554,0
DA:2555,0
DA:2556,0
DA:2557,0
DA:2558,0
DA:2559,0
DA:2560,0
DA:2561,0
DA:2562,0
DA:2563,0
DA:2564,0
DA:2565,0
DA:2567,2646
DA:2568,2646
DA:2569,2646
DA:2570,2646
DA:2571,2646
DA:2572,2646
DA:2573,2646
DA:2576,5292
DA:2577,2646
DA:2578,2646
DA:2579,2646
DA:2581,2646
DA:2582,2646
DA:2583,2646
DA:2585,0
DA:2586,0
DA:2587,0
DA:2588,0
DA:2589,0
DA:2590,0
DA:2591,0
DA:2592,0
DA:2596,2646
DA:2612,0
DA:2613,0
DA:2614,0
DA:2615,0
DA:2616,0
DA:2617,0
DA:2618,0
DA:2619,0
DA:2620,0
DA:2621,0
DA:2622,0
DA:2624,0
DA:2625,0
DA:2640,1
DA:2641,1
DA:2642,1
DA:2643,1
DA:2644,1
DA:2645,1
DA:2646,1
DA:2647,1
DA:2648,1
DA:2649,1
DA:2650,1
DA:2651,1
DA:2652,1
DA:2655,1
DA:2656,1
DA:2657,1
DA:2658,1
DA:2659,1
DA:2660,1
DA:2661,1
DA:2662,1
DA:2663,1
DA:2664,1
DA:2665,1
DA:2666,1
DA:2667,1
DA:2668,1
DA:2672,0
DA:2673,0
DA:2674,0
DA:2675,0
DA:2676,0
DA:2677,0
DA:2678,0
DA:2680,0
DA:2683,0
DA:2684,0
DA:2685,0
DA:2686,0
DA:2689,0
DA:2690,0
DA:2691,0
DA:2692,0
DA:2693,0
DA:2694,0
DA:2695,0
DA:2696,0
DA:2697,0
DA:2700,0
DA:2701,0
DA:2702,0
DA:2703,0
DA:2704,0
DA:2705,0
DA:2708,0
DA:2711,0
DA:2712,0
DA:2713,0
DA:2714,0
DA:2715,0
DA:2716,0
DA:2717,0
DA:2718,0
DA:2720,0
DA:2723,0
DA:2724,0
DA:2725,0
DA:2728,2
DA:2729,2
DA:2730,2
DA:2733,2
DA:2734,2
DA:2735,1
DA:2737,1
DA:2739,2
DA:2742,1
DA:2743,1
DA:2744,1
DA:2748,2
DA:2749,2
DA:2750,2
DA:2751,2
DA:2752,2
DA:2753,2
DA:2754,2
DA:2755,2
DA:2759,0
DA:2760,0
DA:2761,0
DA:2762,0
DA:2763,0
DA:2764,0
DA:2765,0
DA:2767,0
DA:2768,0
DA:2769,0
DA:2771,0
DA:2772,0
DA:2773,0
DA:2775,0
DA:2778,212
DA:2779,212
DA:2780,212
DA:2781,212
DA:2782,212
DA:2785,0
DA:2787,0
DA:2788,0
DA:2789,0
DA:2790,0
DA:2793,1
DA:2794,1
DA:2795,1
DA:2796,1
DA:2797,1
DA:2798,1
DA:2799,1
DA:2800,1
DA:2801,1
DA:2804,1
DA:2805,1
DA:2806,1
DA:2807,1
DA:2810,0
DA:2811,0
DA:2812,0
DA:2813,0
DA:2814,0
DA:2815,0
DA:2816,0
DA:2817,0
DA:2818,0
DA:2819,0
DA:2820,0
DA:2821,0
DA:2822,0
DA:2824,0
DA:2825,0
DA:2826,0
DA:2827,0
DA:2830,0
DA:2831,0
DA:2832,0
DA:2833,0
DA:2834,0
DA:2835,0
DA:2836,0
DA:2837,0
DA:2838,0
DA:2839,0
DA:2840,0
DA:2842,0
DA:2843,0
DA:2844,0
DA:2845,0
DA:2846,0
DA:2849,0
DA:2850,0
DA:2851,0
DA:2854,0
DA:2855,0
DA:2856,0
DA:2857,0
DA:2858,0
DA:2859,0
DA:2860,0
DA:2861,0
DA:2862,0
DA:2863,0
DA:2864,0
DA:2867,0
DA:2868,0
DA:2869,0
DA:2870,0
DA:2871,0
DA:2872,0
DA:2873,0
DA:2874,0
DA:2875,0
DA:2876,0
DA:2877,0
DA:2878,0
DA:2879,0
DA:2881,0
DA:2882,0
DA:2883,0
DA:2885,0
DA:2886,0
DA:2887,0
DA:2888,0
DA:2891,0
DA:2892,0
DA:2893,0
DA:2894,0
DA:2895,0
DA:2896,0
DA:2897,0
DA:2898,0
DA:2899,0
DA:2900,0
DA:2901,0
DA:2902,0
DA:2903,0
DA:2905,0
DA:2906,0
DA:2907,0
DA:2909,0
DA:2910,0
DA:2911,0
DA:2912,0
DA:2918,0
DA:2919,0
DA:2920,0
DA:2923,3774
DA:2925,3774
DA:2926,3774
DA:2927,3774
DA:2929,3774
DA:2930,3774
DA:2931,3774
DA:2932,3774
DA:2935,0
DA:2936,0
DA:2937,0
DA:2939,0
DA:2940,0
DA:2941,0
DA:2942,0
DA:2945,1
DA:2946,1
DA:2947,1
DA:2948,1
DA:2949,1
DA:2950,1
DA:2951,1
DA:2952,1
DA:2953,1
DA:2957,1
DA:2958,1
DA:2959,1
DA:2960,1
DA:2961,1
DA:2962,1
DA:2963,1
DA:2964,0
DA:2967,1
DA:2968,1
DA:2969,1
DA:2970,1
DA:2973,0
DA:2975,0
DA:2976,0
DA:2977,0
DA:2978,0
DA:2981,3802
DA:2982,3802
DA:2983,3802
DA:2984,3802
DA:2987,0
DA:2988,0
DA:2990,0
DA:2993,0
DA:2994,0
DA:2996,0
DA:2999,0
DA:3001,0
DA:3002,0
DA:3005,0
DA:3006,0
DA:3007,0
DA:3008,0
DA:3010,0
DA:3012,0
DA:3015,0
DA:3016,0
DA:3018,0
DA:3021,0
DA:3022,0
DA:3023,0
DA:3026,0
DA:3027,0
DA:3028,0
DA:3029,0
DA:3031,0
DA:3032,0
DA:3034,0
DA:3036,0
DA:3039,28
DA:3041,1915
DA:3042,28
DA:3044,1943
DA:3045,1915
DA:3046,1915
DA:3047,1915
DA:3049,28
DA:3050,28
DA:3051,28
DA:3052,28
DA:3055,0
DA:3057,0
DA:3058,0
DA:3059,0
DA:3060,0
DA:3061,0
DA:3064,0
DA:3066,0
DA:3067,0
DA:3070,2420
DA:3071,2420
DA:3072,2420
DA:3073,2420
DA:3076,1
DA:3077,1
DA:3078,1
DA:3079,1
DA:3080,1
DA:3081,1
DA:3082,1
DA:3083,1
DA:3084,1
DA:3085,1
DA:3086,1
DA:3087,1
DA:3088,1
DA:3089,1
DA:3090,1
DA:3091,1
DA:3092,1
DA:3093,1
DA:3094,1
DA:3095,1
DA:3096,1
DA:3097,1
DA:3098,1
DA:3099,1
DA:3100,1
DA:3101,1
DA:3102,1
DA:3103,1
DA:3104,1
DA:3105,1
DA:3106,1
DA:3107,1
DA:3110,0
DA:3111,0
DA:3112,0
DA:3113,0
DA:3114,0
DA:3115,0
DA:3116,0
DA:3117,0
DA:3118,0
DA:3119,0
DA:3120,0
DA:3121,0
DA:3122,0
DA:3123,0
DA:3124,0
DA:3125,0
DA:3126,0
DA:3127,0
DA:3128,0
DA:3129,0
DA:3130,0
DA:3131,0
DA:3132,0
DA:3133,0
DA:3134,0
DA:3135,0
DA:3136,0
DA:3138,1
DA:3139,1
DA:3140,1
DA:3141,1
DA:3142,1
DA:3143,1
DA:3144,1
DA:3145,1
DA:3146,1
DA:3147,1
DA:3148,1
DA:3149,1
DA:3150,1
DA:3152,1
DA:3153,1
DA:3154,1
DA:3155,1
DA:3157,0
DA:3158,0
DA:3159,1
DA:3161,1
DA:3162,1
DA:3163,1
DA:3164,1
DA:3167,2420
DA:3168,2420
DA:3169,2420
DA:3170,2420
DA:3171,2420
DA:3172,2420
DA:3174,2420
DA:3175,2420
DA:3176,2420
DA:3177,2420
DA:3180,2420
DA:3181,2420
DA:3182,2420
DA:3183,2420
DA:3185,0
DA:3186,0
DA:3187,2420
DA:3189,2420
DA:3190,2420
DA:3191,2420
DA:3192,2420
DA:3195,1
DA:3197,1
DA:3200,1
DA:3201,1
DA:3202,1
DA:3203,1
DA:3204,1
DA:3205,1
DA:3207,1
DA:3208,1
DA:3210,1
DA:3211,0
DA:3212,0
DA:3213,1
DA:3216,1
DA:3217,1
DA:3218,1
DA:3219,1
DA:3220,1
DA:3224,1
DA:3226,1
DA:3229,1
DA:3232,1
DA:3233,1
DA:3234,1
DA:3235,1
DA:3236,1
DA:3237,1
DA:3240,1
DA:3241,1
DA:3242,1
DA:3243,1
DA:3244,1
DA:3246,1
DA:3249,1
DA:3252,1
DA:3253,1
DA:3254,1
DA:3255,1
DA:3256,1
DA:3257,1
DA:3258,1
DA:3262,9
DA:3263,9
DA:3264,9
DA:3265,9
DA:3266,9
DA:3267,0
DA:3268,9
DA:3270,9
DA:3271,9
DA:3272,9
DA:3273,9
DA:3276,234
DA:3277,225
DA:3278,225
DA:3279,225
DA:3280,225
DA:3281,225
DA:3282,225
DA:3283,225
DA:3284,225
DA:3285,225
DA:3286,225
DA:3287,225
DA:3288,225
DA:3289,225
DA:3290,225
DA:3291,225
DA:3292,225
DA:3293,225
DA:3294,225
DA:3296,9
DA:3297,9
DA:3298,9
DA:3299,9
DA:3301,0
DA:3302,0
DA:3303,0
DA:3304,0
DA:3305,9
DA:3307,9
DA:3308,234
DA:3309,225
DA:3310,225
DA:3311,225
DA:3312,225
DA:3313,225
DA:3315,225
DA:3316,225
DA:3317,225
DA:3318,0
DA:3319,0
DA:3320,0
DA:3322,225
DA:3325,9
DA:3326,9
DA:3329,2
DA:3330,2
DA:3331,2
DA:3332,2
DA:3333,2
DA:3334,2
DA:3337,2
DA:3339,17
DA:3340,15
DA:3341,15
DA:3342,15
DA:3343,0
DA:3344,0
DA:3345,0
DA:3346,0
DA:3348,15
DA:3349,15
DA:3353,2
DA:3354,2
DA:3355,2
DA:3359,0
DA:3360,0
DA:3361,0
DA:3362,0
DA:3363,0
DA:3364,0
DA:3365,0
DA:3368,0
DA:3369,0
DA:3370,0
DA:3371,0
DA:3373,0
DA:3374,0
DA:3375,0
DA:3378,0
DA:3379,0
DA:3380,0
DA:3381,0
DA:3382,0
DA:3383,0
DA:3384,0
DA:3385,0
DA:3386,0
DA:3387,0
DA:3388,0
DA:3389,0
DA:3390,0
DA:3391,0
DA:3392,0
DA:3393,0
DA:3394,0
DA:3395,0
DA:3396,0
DA:3398,0
DA:3399,0
DA:3400,0
DA:3401,0
DA:3403,0
DA:3404,0
DA:3405,0
DA:3406,0
DA:3407,0
DA:3409,0
DA:3410,0
DA:3411,0
DA:3412,0
DA:3413,0
DA:3414,0
DA:3415,0
DA:3417,0
DA:3418,0
DA:3419,0
DA:3420,0
DA:3421,0
DA:3422,0
DA:3424,0
DA:3427,0
DA:3428,0
DA:3431,0
DA:3432,0
DA:3433,0
DA:3434,0
DA:3435,0
DA:3436,0
DA:3437,0
DA:3438,0
DA:3439,0
DA:3440,0
DA:3441,0
DA:3442,0
DA:3443,0
DA:3445,0
DA:3446,0
DA:3449,0
DA:3450,0
DA:3451,0
DA:3452,0
DA:3453,0
DA:3454,0
DA:3455,0
DA:3457,0
DA:3458,0
DA:3461,0
DA:3462,0
DA:3463,0
DA:3466,0
DA:3467,0
DA:3468,0
DA:3471,0
DA:3472,0
DA:3473,0
DA:3474,0
DA:3475,0
DA:3476,0
DA:3477,0
DA:3478,0
DA:3479,0
DA:3480,0
DA:3481,0
DA:3482,0
DA:3483,0
DA:3484,0
DA:3485,0
DA:3486,0
DA:3489,0
DA:3491,0
DA:3492,0
DA:3493,0
DA:3495,0
DA:3496,0
DA:3497,0
DA:3498,0
DA:3499,0
DA:3501,0
DA:3503,0
DA:3504,0
DA:3507,0
DA:3508,0
DA:3509,0
DA:3510,0
DA:3514,0
DA:3515,0
DA:3516,0
DA:3519,0
DA:3520,0
DA:3521,0
DA:3525,0
DA:3526,0
DA:3527,0
DA:3530,0
DA:3531,0
DA:3532,0
DA:3536,174
DA:3540,174
DA:3541,174
DA:3542,174
DA:3543,174
DA:3544,174
DA:3545,174
DA:3546,174
DA:3547,174
DA:3548,174
DA:3549,174
DA:3550,174
DA:3551,174
DA:3552,174
DA:3555,174
DA:3556,4
DA:3557,4
DA:3559,174
DA:3560,174
DA:3563,132
DA:3564,132
DA:3565,132
DA:3566,132
DA:3568,347
DA:3569,347
DA:3570,347
DA:3571,347
DA:3572,347
DA:3576,0
DA:3578,0
DA:3579,0
DA:3580,0
DA:3582,0
DA:3583,0
DA:3586,0
DA:3587,0
DA:3588,0
DA:3589,0
DA:3592,0
DA:3599,1510
DA:3602,1510
DA:3603,1434
DA:3606,76
DA:3611,1434
DA:3612,1434
DA:3616,1434
DA:3617,1434
DA:3618,0
DA:3619,0
DA:3620,0
DA:3624,0
DA:3626,1434
DA:3627,1434
DA:3631,0
DA:3632,0
DA:3634,0
DA:3637,0
DA:3638,0
DA:3640,0
DA:3642,0
DA:3645,0
DA:3646,0
DA:3647,0
DA:3650,0
DA:3651,0
DA:3652,0
DA:3654,0
DA:3660,0
DA:3661,0
DA:3662,0
DA:3663,0
DA:3664,0
DA:3665,0
DA:3667,0
DA:3671,0
DA:3673,1510
DA:3676,2041
DA:3677,2041
DA:3678,2041
DA:3679,2041
DA:3681,2041
DA:3682,1781
DA:3683,1781
DA:3684,1780
DA:3685,1780
DA:3686,1
DA:3687,1
DA:3688,0
DA:3691,260
DA:3695,261
DA:3696,115
DA:3697,42
DA:3698,42
DA:3699,42
DA:3700,0
DA:3704,42
DA:3705,42
DA:3706,42
DA:3707,0
DA:3708,73
DA:3709,146
DA:3711,219
DA:3712,26
DA:3716,219
DA:3717,219
DA:3718,219
DA:3719,219
DA:3720,219
DA:3721,219
DA:3722,26
DA:3725,219
DA:3726,2041
DA:3729,5180
DA:3730,5180
DA:3731,5180
DA:3732,5180
DA:3733,5180
DA:3735,0
DA:3737,5180
DA:3738,5180
DA:3741,36
DA:3742,36
DA:3743,36
DA:3747,54
DA:3748,54
DA:3749,1
DA:3752,54
DA:3753,54
DA:3756,0
DA:3757,0
DA:3758,0
DA:3759,0
DA:3760,0
DA:3761,0
DA:3762,0
DA:3763,0
DA:3766,59
DA:3767,59
DA:3768,59
DA:3769,59
DA:3770,59
DA:3771,59
DA:3772,59
DA:3773,59
DA:3774,59
DA:3775,2
DA:3778,59
DA:3779,59
DA:3780,59
DA:3781,59
DA:3782,2
DA:3784,2
DA:3786,59
DA:3787,59
DA:3790,155
DA:3791,155
DA:3792,155
DA:3793,155
DA:3794,155
DA:3795,155
DA:3797,155
DA:3799,0
DA:3803,0
DA:3804,0
DA:3805,0
DA:3806,0
DA:3807,0
DA:3812,155
DA:3813,155
DA:3814,155
DA:3815,155
DA:3816,1
DA:3819,0
DA:3823,155
DA:3825,155
DA:3826,1
DA:3831,155
DA:3834,155
DA:3836,155
DA:3837,155
DA:3838,155
DA:3845,54
DA:3846,54
DA:3847,1
DA:3850,54
DA:3851,54
DA:3854,0
DA:3855,0
DA:3856,0
DA:3858,0
DA:3860,0
DA:3861,0
DA:3862,0
DA:3863,0
DA:3864,0
DA:3867,0
DA:3869,0
DA:3872,0
DA:3874,0
DA:3875,0
DA:3876,0
DA:3877,0
DA:3878,0
DA:3881,1469
DA:3882,1469
DA:3883,1
DA:3885,1
DA:3887,1469
DA:3888,1462
DA:3889,1462
DA:3890,1
DA:3891,1
DA:3894,1462
DA:3896,0
DA:3899,7
DA:3901,7
DA:3902,7
DA:3903,7
DA:3904,7
DA:3905,1469
DA:3908,154
DA:3909,154
DA:3910,154
DA:3911,154
DA:3912,154
DA:3915,0
DA:3916,0
DA:3917,0
DA:3918,0
DA:3919,0
DA:3920,0
DA:3922,0
DA:3923,0
DA:3924,0
DA:3925,0
DA:3926,0
DA:3927,0
DA:3928,0
DA:3931,0
DA:3934,0
DA:3935,0
DA:3936,0
DA:3937,0
DA:3938,0
DA:3939,0
DA:3940,0
DA:3941,0
DA:3943,0
DA:3944,0
DA:3945,0
DA:3946,0
DA:3947,0
DA:3948,0
DA:3949,0
DA:3951,0
DA:3952,0
DA:3953,0
DA:3954,0
DA:3957,0
DA:3958,0
DA:3959,0
DA:3960,0
DA:3962,0
DA:3966,0
DA:3967,0
DA:3968,0
DA:3969,0
DA:3970,0
DA:3971,0
DA:3972,0
DA:3973,0
DA:3976,0
DA:3977,0
DA:3978,0
DA:3979,0
DA:3982,0
DA:3983,0
DA:3984,0
DA:3985,0
DA:3987,0
DA:3990,0
DA:3991,0
DA:3994,42
DA:3995,42
DA:3996,31
DA:3997,31
DA:3999,0
DA:4002,11
DA:4003,11
DA:4004,0
DA:4005,0
DA:4006,0
DA:4007,0
DA:4008,0
DA:4011,11
DA:4012,11
DA:4013,11
DA:4014,11
DA:4015,42
DA:4018,0
DA:4019,0
DA:4020,0
DA:4021,0
DA:4022,0
DA:4023,0
DA:4024,0
DA:4025,0
DA:4026,0
DA:4027,0
DA:4029,0
DA:4032,0
DA:4034,0
DA:4035,0
DA:4036,0
DA:4037,0
DA:4038,0
DA:4041,112
DA:4042,112
DA:4043,112
DA:4044,112
DA:4045,112
DA:4046,112
DA:4047,112
DA:4048,112
DA:4049,112
DA:4050,112
DA:4051,112
DA:4052,112
DA:4054,0
DA:4057,0
DA:4059,0
DA:4060,0
DA:4061,0
DA:4062,0
DA:4063,112
DA:4067,0
DA:4068,0
DA:4069,0
DA:4070,0
DA:4071,0
DA:4072,0
DA:4074,0
DA:4075,0
DA:4076,0
DA:4080,0
DA:4083,0
DA:4084,0
DA:4085,0
DA:4086,0
DA:4087,0
DA:4090,5
DA:4092,5
DA:4093,5
DA:4094,0
DA:4096,0
DA:4100,5
DA:4101,1
DA:4102,1
DA:4103,1
DA:4104,0
DA:4107,0
DA:4108,4
DA:4110,5
DA:4111,5
DA:4114,5
DA:4116,5
DA:4118,0
DA:4120,5
DA:4123,209
DA:4124,209
DA:4125,209
DA:4126,209
DA:4127,209
DA:4129,209
DA:4132,209
DA:4133,182
DA:4135,3
DA:4137,27
DA:4141,209
DA:4142,209
DA:4143,209
DA:4144,533
DA:4145,342
DA:4146,209
DA:4148,551
DA:4149,342
DA:4150,342
DA:4151,342
DA:4152,342
DA:4154,209
DA:4157,209
DA:4159,209
DA:4161,0
DA:4163,209
DA:4166,8
DA:4167,8
DA:4168,8
DA:4169,8
DA:4170,8
DA:4171,8
DA:4174,0
DA:4175,0
DA:4176,0
DA:4177,0
DA:4178,0
DA:4179,0
DA:4181,0
DA:4183,0
DA:4184,0
DA:4185,0
DA:4188,0
DA:4189,0
DA:4190,0
DA:4191,0
DA:4192,0
DA:4193,0
DA:4196,1540
DA:4198,1540
DA:4199,1540
DA:4200,1540
DA:4201,0
DA:4203,0
DA:4204,0
DA:4205,0
DA:4206,1540
DA:4209,0
DA:4210,0
DA:4211,0
DA:4212,0
DA:4213,0
DA:4215,0
DA:4218,0
DA:4219,0
DA:4220,0
DA:4221,0
DA:4222,0
DA:4225,0
DA:4226,0
DA:4227,0
DA:4228,0
DA:4229,0
DA:4231,0
DA:4234,1540
DA:4235,1540
DA:4236,1540
DA:4237,1540
DA:4238,1540
DA:4239,1540
DA:4240,1540
DA:4244,0
DA:4245,0
DA:4247,0
DA:4249,0
DA:4250,0
DA:4251,0
DA:4252,0
DA:4253,0
DA:4254,0
DA:4255,0
DA:4256,0
DA:4257,0
DA:4258,0
DA:4259,0
DA:4260,0
DA:4261,0
DA:4262,0
DA:4263,0
DA:4265,0
DA:4266,0
DA:4269,0
DA:4270,0
DA:4272,0
DA:4273,0
DA:4274,0
DA:4277,77
DA:4278,77
DA:4279,77
DA:4280,77
DA:4281,77
DA:4282,2
DA:4287,77
DA:4288,19
DA:4289,19
DA:4290,19
DA:4291,19
DA:4292,0
DA:4296,19
DA:4298,19
DA:4299,19
DA:4300,19
DA:4301,19
DA:4302,19
DA:4303,19
DA:4304,19
DA:4305,19
DA:4306,19
DA:4307,19
DA:4309,0
DA:4310,0
DA:4311,0
DA:4315,0
DA:4316,0
DA:4319,0
DA:4320,0
DA:4322,58
DA:4325,58
DA:4326,58
DA:4328,0
DA:4329,0
DA:4330,0
DA:4331,0
DA:4335,58
DA:4336,2
DA:4337,2
DA:4341,1
DA:4343,2
DA:4344,0
DA:4345,56
DA:4347,58
DA:4348,2
DA:4353,58
DA:4357,58
DA:4358,58
DA:4359,58
DA:4362,56
DA:4363,56
DA:4364,56
DA:4365,56
DA:4366,56
DA:4367,2
DA:4370,0
DA:4372,56
DA:4373,77
DA:4375,2017
DA:4376,2017
DA:4377,2017
DA:4379,2075
DA:4380,2075
DA:4381,2075
DA:4382,2075
DA:4383,2075
DA:4384,2075
DA:4392,2075
DA:4393,1487
DA:4394,1487
DA:4395,1482
DA:4396,1482
DA:4399,1482
DA:4400,1482
DA:4401,1482
DA:4402,1482
DA:4403,1482
DA:4404,1482
DA:4405,1482
DA:4406,1482
DA:4407,1482
DA:4408,1482
DA:4411,0
DA:4412,0
DA:4413,0
DA:4417,5
DA:4418,5
DA:4419,5
DA:4421,588
DA:4424,593
DA:4425,593
DA:4426,593
DA:4427,593
DA:4428,58
DA:4430,535
DA:4431,523
DA:4432,64
DA:4433,64
DA:4434,64
DA:4435,64
DA:4436,64
DA:4438,12
DA:4444,593
DA:4445,0
DA:4446,0
DA:4447,0
DA:4448,0
DA:4449,0
DA:4451,0
DA:4452,0
DA:4453,0
DA:4454,0
DA:4455,593
DA:4458,517
DA:4459,593
DA:4460,593
DA:4462,517
DA:4463,517
DA:4464,313
DA:4465,276
DA:4467,0
DA:4469,276
DA:4470,276
DA:4471,276
DA:4472,276
DA:4473,276
DA:4474,276
DA:4475,276
DA:4476,276
DA:4477,276
DA:4478,276
DA:4480,0
DA:4481,0
DA:4482,0
DA:4485,37
DA:4487,0
DA:4489,37
DA:4490,37
DA:4491,37
DA:4492,37
DA:4493,0
DA:4495,204
DA:4496,76
DA:4499,317
DA:4500,317
DA:4501,317
DA:4502,317
DA:4503,0
DA:4504,0
DA:4505,0
DA:4506,317
DA:4507,136
DA:4509,136
DA:4510,136
DA:4511,181
DA:4514,181
DA:4517,181
DA:4518,181
DA:4520,181
DA:4522,181
DA:4525,181
DA:4526,56
DA:4527,56
DA:4528,56
DA:4529,56
DA:4530,56
DA:4532,181
DA:4533,181
DA:4534,125
DA:4535,2
DA:4538,125
DA:4539,125
DA:4540,125
DA:4541,125
DA:4544,56
DA:4545,56
DA:4546,56
DA:4547,0
DA:4548,0
DA:4549,56
DA:4550,56
DA:4551,56
DA:4552,56
DA:4555,181
DA:4556,24
DA:4559,181
DA:4561,181
DA:4562,181
DA:4563,181
DA:4565,181
DA:4567,174
DA:4568,174
DA:4569,174
DA:4570,174
DA:4571,174
DA:4572,174
DA:4573,174
DA:4575,174
DA:4576,118
DA:4577,0
DA:4578,0
DA:4579,0
DA:4580,0
DA:4581,0
DA:4582,118
DA:4583,56
DA:4585,174
DA:4586,56
DA:4587,56
DA:4589,0
DA:4590,0
DA:4592,56
DA:4593,56
DA:4594,56
DA:4595,56
DA:4596,0
DA:4597,56
DA:4599,0
DA:4601,0
DA:4604,118
DA:4606,174
DA:4607,174
DA:4608,18
DA:4610,18
DA:4613,0
DA:4616,174
DA:4617,174
DA:4618,174
DA:4619,174
DA:4620,174
DA:4622,174
DA:4623,174
DA:4624,174
DA:4625,174
DA:4626,174
DA:4628,174
DA:4630,174
DA:4631,0
DA:4632,0
DA:4635,0
DA:4637,0
DA:4640,174
DA:4642,174
DA:4643,174
DA:4645,174
DA:4646,174
DA:4647,174
DA:4648,0
DA:4650,174
DA:4651,174
DA:4652,174
DA:4653,174
DA:4654,174
DA:4656,7
DA:4657,7
DA:4658,7
DA:4659,7
DA:4660,7
DA:4661,7
DA:4664,0
DA:4666,0
DA:4667,0
DA:4669,0
DA:4674,0
DA:4678,0
DA:4682,174
DA:4683,174
DA:4684,174
DA:4685,174
DA:4686,174
DA:4687,174
DA:4688,174
DA:4689,174
DA:4690,174
DA:4691,174
DA:4692,174
DA:4694,174
DA:4695,174
DA:4696,174
DA:4697,174
DA:4700,174
DA:4703,174
DA:4704,174
DA:4705,174
DA:4706,174
DA:4707,174
DA:4709,171
DA:4710,171
DA:4711,171
DA:4712,171
DA:4713,171
DA:4715,174
DA:4717,59
DA:4718,59
DA:4719,2
DA:4725,115
DA:4726,115
DA:4727,0
DA:4732,174
DA:4735,174
DA:4736,174
DA:4737,174
DA:4738,2
DA:4740,174
DA:4741,174
DA:4742,0
DA:4744,174
DA:4747,174
DA:4748,174
DA:4749,174
DA:4750,174
DA:4752,174
DA:4753,174
DA:4754,174
DA:4755,174
DA:4756,174
DA:4757,174
DA:4758,174
DA:4759,174
DA:4763,174
DA:4764,174
DA:4765,174
DA:4766,174
DA:4767,174
DA:4768,174
DA:4771,174
DA:4772,174
DA:4773,174
DA:4774,174
DA:4775,174
DA:4776,174
DA:4777,174
DA:4778,174
DA:4779,174
DA:4780,174
DA:4781,0
DA:4783,174
DA:4786,0
DA:4787,0
DA:4790,0
DA:4797,174
DA:4798,174
DA:4799,174
DA:4800,174
DA:4802,174
DA:4803,174
DA:4804,174
DA:4805,174
DA:4806,174
DA:4807,174
DA:4810,5057
DA:4811,5057
DA:4813,1625
DA:4814,1625
DA:4815,1625
DA:4817,0
DA:4818,1625
DA:4820,0
DA:4821,1625
DA:4822,0
DA:4825,112
DA:4826,112
DA:4828,112
DA:4829,112
DA:4831,112
DA:4832,112
DA:4833,112
DA:4834,112
DA:4835,112
DA:4836,112
DA:4837,112
DA:4838,0
DA:4841,2534
DA:4842,2534
DA:4844,2534
DA:4845,2534
DA:4847,2534
DA:4848,2534
DA:4849,2534
DA:4850,2534
DA:4851,2534
DA:4852,2534
DA:4853,2534
DA:4854,0
DA:4857,0
DA:4858,0
DA:4859,0
DA:4860,0
DA:4861,0
DA:4863,0
DA:4864,0
DA:4866,0
DA:4867,0
DA:4868,0
DA:4870,0
DA:4872,0
DA:4874,0
DA:4875,0
DA:4876,0
DA:4877,0
DA:4878,0
DA:4879,0
DA:4880,0
DA:4881,0
DA:4882,0
DA:4883,0
DA:4886,0
DA:4887,0
DA:4889,0
DA:4890,0
DA:4892,0
DA:4893,0
DA:4894,0
DA:4895,0
DA:4896,0
DA:4897,0
DA:4898,0
DA:4899,0
DA:4900,0
DA:4901,0
DA:4903,612
DA:4906,612
DA:4907,0
DA:4908,612
DA:4912,40
DA:4913,40
DA:4914,40
DA:4915,40
DA:4920,40
DA:4921,40
DA:4924,174
DA:4925,174
DA:4926,174
DA:4927,174
DA:4930,174
DA:4931,174
DA:4932,174
DA:4933,174
DA:4934,174
DA:4935,174
DA:4938,174
DA:4939,174
DA:4941,173
DA:4942,173
DA:4943,1
DA:4945,1
DA:4946,1
DA:4947,1
DA:4948,172
DA:4949,173
DA:4950,173
DA:4952,1
DA:4956,174
DA:4957,1
DA:4958,173
DA:4959,174
DA:4960,0
DA:4961,0
DA:4963,174
DA:4966,174
DA:4967,3
DA:4968,3
DA:4970,174
DA:4971,2
DA:4973,2
DA:4977,174
DA:4978,174
DA:4979,174
DA:4980,174
DA:4981,174
DA:4982,174
DA:4983,174
DA:4984,174
DA:4985,174
DA:4986,2075
DA:4989,0
DA:4990,0
DA:4991,0
DA:4992,0
DA:4993,0
DA:4994,0
DA:4997,0
DA:4998,0
DA:5000,0
DA:5002,0
DA:5006,0
DA:5007,0
DA:5008,0
DA:5011,424
DA:5012,424
DA:5013,424
DA:5014,424
DA:5015,424
DA:5016,424
DA:5019,172
DA:5020,172
DA:5021,172
DA:5022,172
DA:5023,172
DA:5024,172
DA:5027,0
DA:5029,0
DA:5030,0
DA:5033,256
DA:5035,256
DA:5036,256
DA:5037,256
DA:5038,256
DA:5039,256
DA:5040,256
DA:5042,258
DA:5043,2
DA:5044,2
DA:5045,0
DA:5047,256
DA:5050,111
DA:5054,111
DA:5055,111
DA:5056,111
DA:5057,132
DA:5058,111
DA:5059,111
DA:5060,243
DA:5061,132
DA:5062,132
DA:5063,111
DA:5064,111
DA:5066,0
DA:5067,0
DA:5068,0
DA:5069,0
DA:5070,0
DA:5071,0
DA:5074,0
DA:5076,0
DA:5081,0
DA:5082,0
DA:5083,0
DA:5084,0
DA:5085,0
DA:5086,0
DA:5087,0
DA:5088,0
DA:5089,0
DA:5090,0
DA:5091,0
DA:5092,0
DA:5093,0
DA:5096,0
DA:5098,0
DA:5099,0
DA:5101,0
DA:5102,0
DA:5105,0
DA:5106,0
DA:5107,0
DA:5108,0
DA:5109,0
DA:5110,0
DA:5111,0
DA:5112,0
DA:5115,0
DA:5118,0
DA:5119,0
DA:5122,0
DA:5123,0
DA:5124,0
DA:5127,0
DA:5134,0
DA:5135,0
DA:5136,0
DA:5137,0
DA:5138,0
DA:5139,0
DA:5141,0
DA:5142,0
DA:5147,0
DA:5148,0
DA:5149,0
DA:5150,0
DA:5151,0
DA:5152,0
DA:5161,0
DA:5162,0
DA:5163,0
DA:5164,0
DA:5165,0
DA:5166,0
DA:5167,0
DA:5170,0
DA:5171,0
DA:5172,0
DA:5175,0
DA:5176,0
DA:5182,0
DA:5185,0
DA:5186,0
DA:5187,0
DA:5188,0
DA:5190,0
DA:5191,0
DA:5192,0
DA:5193,0
DA:5195,0
DA:5197,0
DA:5198,0
DA:5203,0
DA:5204,0
DA:5205,0
DA:5206,0
DA:5207,0
DA:5208,0
DA:5209,0
DA:5210,0
DA:5211,0
DA:5213,0
DA:5214,0
DA:5219,0
DA:5220,0
DA:5221,0
DA:5222,0
DA:5223,0
DA:5224,0
DA:5225,0
DA:5226,0
DA:5227,0
DA:5228,0
DA:5233,0
DA:5234,0
DA:5235,0
DA:5236,0
DA:5239,0
DA:5240,0
DA:5243,0
DA:5245,0
DA:5246,0
DA:5247,0
DA:5249,0
DA:5250,0
DA:5252,0
DA:5253,0
DA:5254,0
DA:5255,0
DA:5256,0
DA:5257,0
DA:5258,0
DA:5259,0
DA:5260,0
DA:5261,0
DA:5263,0
DA:5264,0
DA:5265,0
DA:5266,0
DA:5270,0
DA:5271,0
DA:5272,0
DA:5273,0
DA:5274,0
DA:5275,0
DA:5276,0
DA:5277,0
DA:5278,0
DA:5279,0
DA:5281,0
DA:5283,0
DA:5286,0
DA:5289,0
DA:5293,0
DA:5295,0
DA:5296,0
DA:5299,0
DA:5300,0
DA:5304,0
DA:5305,0
DA:5306,0
DA:5307,0
DA:5308,0
DA:5309,0
DA:5310,0
DA:5312,0
DA:5313,0
DA:5315,0
DA:5316,0
DA:5317,0
DA:5318,0
DA:5319,0
DA:5321,0
DA:5324,0
DA:5326,0
DA:5327,0
DA:5330,0
DA:5331,0
DA:5333,0
DA:5334,0
DA:5335,0
DA:5340,0
DA:5341,0
DA:5342,0
DA:5343,0
DA:5352,0
DA:5353,0
DA:5355,0
DA:5356,0
DA:5358,0
DA:5359,0
DA:5360,0
DA:5361,0
DA:5362,0
DA:5363,0
DA:5364,0
DA:5365,0
DA:5366,0
DA:5367,0
DA:5370,0
DA:5372,0
DA:5373,0
DA:5374,0
DA:5378,0
DA:5379,0
DA:5380,0
DA:5381,0
DA:5385,0
DA:5386,0
DA:5387,0
DA:5388,0
DA:5389,0
DA:5391,0
DA:5392,0
DA:5393,0
DA:5397,0
DA:5398,0
DA:5400,0
DA:5401,0
DA:5402,0
DA:5403,0
DA:5405,0
DA:5407,0
DA:5409,0
DA:5410,0
DA:5411,0
DA:5412,0
DA:5571,0
DA:5572,0
DA:5573,0
DA:5577,0
DA:5578,0
DA:5579,0
DA:5580,0
DA:5581,0
DA:5584,0
DA:5585,0
DA:5586,0
DA:5587,0
DA:5590,0
DA:5591,0
DA:5593,0
DA:5594,0
DA:5596,0
DA:5597,0
DA:5598,0
DA:5599,0
DA:5600,0
DA:5601,0
DA:5602,0
DA:5603,0
DA:5604,0
DA:5606,0
DA:5607,0
DA:5608,0
DA:5609,0
DA:5610,0
DA:5612,0
DA:5613,0
DA:5614,0
DA:5620,0
DA:5622,0
DA:5623,0
DA:5625,0
DA:5626,0
DA:5628,0
DA:5629,0
DA:5630,0
DA:5631,0
DA:5633,0
DA:5634,0
DA:5635,0
DA:5643,0
DA:5644,0
DA:5645,0
DA:5646,0
DA:5647,0
DA:5648,0
DA:5649,0
DA:5650,0
DA:5651,0
DA:5652,0
DA:5653,0
DA:5657,0
DA:5658,0
DA:5659,0
DA:5660,0
DA:5663,0
DA:5664,0
DA:5665,0
DA:5667,0
DA:5668,0
DA:5669,0
DA:5670,0
DA:5672,0
DA:5673,0
DA:5674,0
DA:5676,0
DA:5677,0
DA:5679,0
DA:5680,0
DA:5681,0
DA:5682,0
DA:5683,0
DA:5684,0
DA:5685,0
DA:5686,0
DA:5689,0
DA:5691,0
DA:5692,0
DA:5694,0
DA:5695,0
DA:5698,0
DA:5699,0
DA:5703,0
DA:5706,0
DA:5709,0
DA:5712,0
DA:5713,0
DA:5716,0
DA:5724,0
DA:5726,0
DA:5727,0
DA:5729,0
DA:5730,0
DA:5732,0
DA:5733,0
DA:5734,0
DA:5735,0
DA:5737,0
DA:5738,0
DA:5739,0
DA:5741,0
DA:5742,0
DA:5743,0
DA:5745,0
DA:5746,0
DA:5747,0
DA:5748,0
DA:5749,0
DA:5750,0
DA:5751,0
DA:5752,0
DA:5753,0
DA:5755,0
DA:5756,0
DA:5757,0
DA:5758,0
DA:5759,0
DA:5760,0
DA:5761,0
DA:5762,0
DA:5764,0
DA:5766,0
DA:5767,0
DA:5769,0
DA:5770,0
DA:5771,0
DA:5772,0
DA:5773,0
DA:5774,0
DA:5775,0
DA:5777,0
DA:5779,0
DA:5782,0
DA:5783,0
DA:5784,0
DA:5785,0
DA:5786,0
DA:5787,0
DA:5788,0
DA:5789,0
DA:5790,0
DA:5791,0
DA:5794,0
DA:5796,0
DA:5798,0
DA:5799,0
DA:5800,0
DA:5801,0
DA:5802,0
DA:5803,0
DA:5804,0
DA:5806,0
DA:5808,0
DA:5811,0
DA:5814,0
DA:5819,0
DA:5821,0
DA:5822,0
DA:5826,0
DA:5829,0
DA:5832,0
DA:5833,0
DA:5836,0
DA:5844,0
DA:5845,0
DA:5846,0
DA:5853,0
DA:5854,0
DA:5855,0
DA:5856,0
DA:5857,0
DA:5858,0
DA:5859,0
DA:5860,0
DA:5862,0
DA:5863,0
DA:5868,0
DA:5869,0
DA:5870,0
DA:5871,0
DA:5872,0
DA:5874,0
DA:5875,0
DA:5877,0
DA:5879,0
DA:5880,0
DA:5881,0
DA:5882,0
DA:5883,0
DA:5885,0
DA:5889,0
DA:5890,0
DA:5891,0
DA:5897,0
DA:5898,0
DA:5899,0
DA:5900,0
DA:5901,0
DA:5902,0
DA:5903,0
DA:5904,0
DA:5905,0
DA:5907,0
DA:5908,0
DA:5909,0
DA:5910,0
DA:5911,0
DA:5912,0
DA:5913,0
DA:5914,0
DA:5915,0
DA:5916,0
DA:5917,0
DA:5918,0
DA:5920,0
DA:5923,0
DA:5924,0
DA:5925,0
DA:5926,0
DA:5927,0
DA:5929,0
DA:5930,0
DA:5931,0
DA:5932,0
DA:5933,0
DA:5935,0
DA:5936,0
DA:5937,0
DA:5938,0
DA:5939,0
DA:5942,0
DA:5944,0
DA:5948,0
DA:5949,0
DA:5950,0
DA:5951,0
DA:5953,0
DA:5954,0
DA:5955,0
DA:5956,0
DA:5957,0
DA:5960,0
DA:5962,0
DA:5967,0
DA:5968,0
DA:5969,0
DA:5971,0
DA:5972,0
DA:5973,0
DA:5974,0
DA:5975,0
DA:5978,0
DA:5980,0
DA:5984,0
DA:5986,0
DA:5987,0
DA:5988,0
DA:5989,0
DA:5990,0
DA:5991,0
DA:5992,0
DA:5993,0
DA:5994,0
DA:5995,0
DA:5996,0
DA:5997,0
DA:5998,0
DA:5999,0
DA:6001,0
DA:6002,0
DA:6003,0
DA:6004,0
DA:6005,0
DA:6006,0
DA:6007,0
DA:6009,0
DA:6010,0
DA:6011,0
DA:6012,0
DA:6013,0
DA:6015,0
DA:6016,0
DA:6017,0
DA:6018,0
DA:6019,0
DA:6020,0
DA:6021,0
DA:6022,0
DA:6024,0
DA:6025,0
DA:6027,0
DA:6030,0
DA:6032,0
DA:6034,0
DA:6035,0
DA:6036,0
DA:6039,0
DA:6043,0
DA:6047,501
DA:6048,501
DA:6049,501
DA:6050,501
DA:6051,501
DA:6052,501
DA:6053,36
DA:6054,37
DA:6055,37
DA:6056,37
DA:6057,37
DA:6058,37
DA:6060,36
DA:6061,1
DA:6063,1
DA:6064,1
DA:6065,0
DA:6066,464
DA:6068,464
DA:6069,464
DA:6070,464
DA:6071,464
DA:6073,457
DA:6074,457
DA:6075,0
DA:6076,7
DA:6078,7
DA:6079,501
DA:6098,3448
DA:6099,3448
DA:6100,3448
DA:6101,35
DA:6102,0
DA:6103,0
DA:6105,1469
DA:6106,1448
DA:6107,0
DA:6108,1
DA:6109,1
DA:6110,112
DA:6111,30
DA:6112,352
DA:6114,3448
DA:6116,2954
DA:6117,2954
DA:6118,2954
DA:6119,0
DA:6120,2954
DA:6122,0
DA:6123,0
DA:6124,0
DA:6125,0
DA:6126,0
DA:6128,69
DA:6129,69
DA:6130,69
DA:6131,69
DA:6132,69
DA:6133,69
DA:6134,69
DA:6136,2917
DA:6137,2917
DA:6138,2917
DA:6139,2917
DA:6140,2917
DA:6141,0
DA:6143,2917
DA:6145,1
DA:6146,1
DA:6147,1
DA:6148,1
DA:6151,1
DA:6152,1
DA:6154,1
DA:6155,1
DA:6156,1
DA:6157,1
DA:6158,1
DA:6160,1
DA:6161,1
DA:6162,0
DA:6163,0
DA:6165,0
DA:6166,1
DA:6168,1
DA:6169,1
DA:6170,1
DA:6171,1
DA:6173,0
DA:6175,1
DA:6176,1
DA:6177,1
DA:6178,1
DA:6179,0
DA:6180,0
DA:6184,1
DA:6185,1
DA:6186,1
DA:6187,0
DA:6188,1
DA:6189,0
DA:6193,1
DA:6194,1
DA:6195,0
DA:6196,0
DA:6197,0
DA:6199,1
DA:6201,0
DA:6202,0
DA:6203,0
DA:6204,0
DA:6207,0
DA:6208,0
DA:6209,0
DA:6210,0
DA:6211,0
DA:6212,0
DA:6213,0
DA:6214,0
DA:6216,0
DA:6218,5834
DA:6219,5834
DA:6220,5834
DA:6221,5834
DA:6222,5834
DA:6223,1689
DA:6224,1689
DA:6225,1689
DA:6226,1689
DA:6227,1689
DA:6228,1689
DA:6230,5834
DA:6231,5834
DA:6233,1
DA:6234,1
DA:6235,1
DA:6236,1
DA:6237,1
DA:6238,1
DA:6239,1
DA:6240,1
DA:6241,1
DA:6244,3448
DA:6245,3448
DA:6246,3448
DA:6247,3448
DA:6248,3448
DA:6249,3448
DA:6250,3448
DA:6251,3448
DA:6252,3448
DA:6253,0
DA:6254,0
DA:6255,0
DA:6259,3448
DA:6261,35
DA:6262,35
DA:6263,35
DA:6264,35
DA:6265,0
DA:6267,35
DA:6270,35
DA:6271,35
DA:6275,35
DA:6276,35
DA:6277,35
DA:6278,0
DA:6280,35
DA:6281,35
DA:6282,35
DA:6284,35
DA:6288,0
DA:6292,35
DA:6293,0
DA:6294,35
DA:6295,0
DA:6296,0
DA:6297,0
DA:6298,0
DA:6299,0
DA:6300,0
DA:6301,0
DA:6302,0
DA:6303,0
DA:6304,0
DA:6305,0
DA:6306,0
DA:6307,0
DA:6308,0
DA:6309,35
DA:6310,0
DA:6313,35
DA:6314,35
DA:6315,35
DA:6316,35
DA:6317,35
DA:6319,35
DA:6320,0
DA:6322,0
DA:6326,0
DA:6327,0
DA:6328,0
DA:6329,35
DA:6332,35
DA:6333,35
DA:6336,35
DA:6337,35
DA:6338,0
DA:6340,0
DA:6341,0
DA:6342,0
DA:6343,35
DA:6344,35
DA:6346,35
DA:6347,35
DA:6348,35
DA:6350,35
DA:6352,0
DA:6356,35
DA:6357,0
DA:6358,0
DA:6359,0
DA:6360,35
DA:6361,35
DA:6366,35
DA:6367,35
DA:6368,35
DA:6369,0
DA:6371,35
DA:6372,35
DA:6373,34
DA:6374,34
DA:6376,1
DA:6377,1
DA:6379,35
DA:6380,35
DA:6383,35
DA:6384,35
DA:6385,0
DA:6388,0
DA:6391,35
DA:6392,35
DA:6393,35
DA:6394,35
DA:6395,35
DA:6398,35
DA:6399,35
DA:6400,35
DA:6401,0
DA:6403,35
DA:6404,35
DA:6405,35
DA:6406,34
DA:6407,34
DA:6408,34
DA:6409,1
DA:6411,35
DA:6415,35
DA:6416,35
DA:6417,35
DA:6418,0
DA:6420,35
DA:6421,35
DA:6423,35
DA:6424,35
DA:6425,34
DA:6426,34
DA:6427,34
DA:6428,34
DA:6429,34
DA:6430,34
DA:6432,34
DA:6433,0
DA:6434,34
DA:6437,34
DA:6438,4
DA:6439,4
DA:6440,4
DA:6441,4
DA:6442,4
DA:6443,4
DA:6445,30
DA:6448,34
DA:6449,30
DA:6450,30
DA:6451,30
DA:6452,30
DA:6453,30
DA:6454,30
DA:6455,30
DA:6456,30
DA:6457,30
DA:6460,30
DA:6461,30
DA:6462,30
DA:6463,30
DA:6464,30
DA:6465,30
DA:6466,30
DA:6468,30
DA:6470,30
DA:6476,0
DA:6478,0
DA:6479,4
DA:6481,1
DA:6482,1
DA:6483,1
DA:6484,1
DA:6485,1
DA:6486,1
DA:6487,1
DA:6489,1
DA:6490,1
DA:6491,1
DA:6492,1
DA:6493,1
DA:6494,1
DA:6498,0
DA:6499,0
DA:6500,0
DA:6502,0
DA:6504,0
DA:6507,1
DA:6508,1
DA:6509,1
DA:6510,1
DA:6511,1
DA:6516,35
DA:6519,0
DA:6520,0
DA:6521,0
DA:6522,0
DA:6524,0
DA:6525,0
DA:6527,0
DA:6528,0
DA:6529,0
DA:6530,0
DA:6531,0
DA:6532,0
DA:6533,0
DA:6534,0
DA:6536,0
DA:6537,0
DA:6539,0
DA:6541,0
DA:6542,0
DA:6545,0
DA:6546,0
DA:6548,0
DA:6549,0
DA:6550,0
DA:6551,0
DA:6552,0
DA:6555,0
DA:6556,0
DA:6557,0
DA:6559,0
DA:6563,0
DA:6565,0
DA:6567,0
DA:6571,0
DA:6572,0
DA:6573,0
DA:6574,0
DA:6575,0
DA:6576,0
DA:6577,0
DA:6578,0
DA:6579,0
DA:6580,0
DA:6583,0
DA:6585,0
DA:6586,0
DA:6587,0
DA:6588,0
DA:6589,0
DA:6590,0
DA:6593,0
DA:6597,0
DA:6603,0
DA:6605,0
DA:6606,0
DA:6608,0
DA:6609,0
DA:6610,0
DA:6611,0
DA:6612,0
DA:6613,0
DA:6614,0
DA:6616,0
DA:6617,0
DA:6618,0
DA:6619,0
DA:6620,0
DA:6621,0
DA:6622,0
DA:6626,0
DA:6627,0
DA:6628,0
DA:6630,0
DA:6633,0
DA:6636,0
DA:6637,0
DA:6638,0
DA:6639,0
DA:6640,0
DA:6645,0
DA:6648,35
DA:6649,31
DA:6652,0
DA:6654,4
DA:6657,35
DA:6660,68
DA:6662,34
DA:6663,34
DA:6664,34
DA:6665,34
DA:6668,34
DA:6669,34
DA:6670,34
DA:6672,34
DA:6673,4
DA:6675,30
DA:6677,0
DA:6679,1
DA:6682,35
DA:6686,1469
DA:6687,1469
DA:6688,1469
DA:6689,1469
DA:6690,1469
DA:6691,1469
DA:6693,1469
DA:6695,1469
DA:6696,1469
DA:6697,1469
DA:6698,1469
DA:6699,1469
DA:6700,1469
DA:6701,1469
DA:6702,1469
DA:6703,1469
DA:6704,1469
DA:6705,1469
DA:6706,1469
DA:6707,1469
DA:6708,1469
DA:6709,1469
DA:6710,1469
DA:6711,1469
DA:6712,1469
DA:6713,1469
DA:6714,1469
DA:6715,1469
DA:6716,1469
DA:6717,0
DA:6719,1469
DA:6720,1469
DA:6721,1469
DA:6722,1469
DA:6723,1469
DA:6724,1469
DA:6725,1469
DA:6726,1469
DA:6727,1469
DA:6728,1469
DA:6729,1469
DA:6730,1469
DA:6731,1469
DA:6732,1469
DA:6733,1469
DA:6738,1469
DA:6739,2
DA:6745,1469
DA:6750,1469
DA:6751,874
DA:6752,103
DA:6756,15
DA:6759,103
DA:6760,103
DA:6762,103
DA:6764,103
DA:6765,771
DA:6766,595
DA:6769,1469
DA:6770,1
DA:6771,1468
DA:6773,1
DA:6774,1
DA:6775,1
DA:6776,1
DA:6777,1
DA:6778,1
DA:6779,1
DA:6780,1
DA:6781,1
DA:6782,1
DA:6783,1
DA:6784,1
DA:6785,1
DA:6786,1
DA:6787,1467
DA:6788,1
DA:6791,1469
DA:6792,1469
DA:6793,1469
DA:6794,1469
DA:6795,1469
DA:6797,1469
DA:6798,0
DA:6799,0
DA:6800,0
DA:6801,0
DA:6802,1469
DA:6804,1469
DA:6805,1469
DA:6808,1469
DA:6809,0
DA:6811,0
DA:6812,0
DA:6813,0
DA:6814,1469
DA:6815,1469
DA:6816,1469
DA:6818,0
DA:6820,1469
DA:6823,1469
DA:6828,1
DA:6834,1469
DA:6840,1469
DA:6841,1469
DA:6842,1469
DA:6843,1469
DA:6851,1469
DA:6852,874
DA:6853,874
DA:6855,1469
DA:6856,1
DA:6862,1469
DA:6863,1469
DA:6864,1469
DA:6865,1469
DA:6866,1469
DA:6867,1469
DA:6868,1469
DA:6869,1469
DA:6870,0
DA:6873,1469
DA:6874,1469
DA:6878,1469
DA:6879,1469
DA:6880,1469
DA:6881,1469
DA:6882,1469
DA:6883,1469
DA:6884,1469
DA:6885,1469
DA:6886,1469
DA:6892,1469
DA:6893,1469
DA:6894,1469
DA:6895,1469
DA:6896,1469
DA:6897,1469
DA:6898,1469
DA:6899,1469
DA:6903,1469
DA:6904,1469
DA:6907,1469
DA:6908,1469
DA:6909,1469
DA:6910,1469
DA:6911,1469
DA:6912,1469
DA:6913,1469
DA:6914,1469
DA:6918,1469
DA:6919,1469
DA:6920,0
DA:6921,0
DA:6922,0
DA:6928,1469
DA:6929,1
DA:6930,1
DA:6932,1469
DA:6933,1469
DA:6934,1
DA:6935,1
DA:6936,1
DA:6938,1469
DA:6941,5098
DA:6942,5098
DA:6943,5098
DA:6944,5098
DA:6945,2
DA:6947,2
DA:6952,1469
DA:6955,1469
DA:6956,1
DA:6957,1
DA:6958,1
DA:6959,2
DA:6960,1
DA:6962,1469
DA:6963,1
DA:6964,1
DA:6965,1
DA:6966,1
DA:6967,1
DA:6969,1469
DA:6970,1
DA:6973,1469
DA:6974,1
DA:6979,1469
DA:6980,1469
DA:6981,1469
DA:6983,1462
DA:6984,7
DA:6985,7
DA:6987,7
DA:6991,1469
DA:6992,7
DA:6993,0
DA:6996,1462
DA:6998,1469
DA:7000,1462
DA:7004,2
DA:7005,2
DA:7007,7
DA:7009,7
DA:7012,0
DA:7015,7
DA:7016,7
DA:7019,7
DA:7020,7
DA:7023,7
DA:7024,7
DA:7025,7
DA:7026,0
DA:7027,0
DA:7033,1469
DA:7036,0
DA:7037,0
DA:7038,0
DA:7039,0
DA:7040,0
DA:7042,0
DA:7044,0
DA:7047,0
DA:7049,0
DA:7053,0
DA:7054,0
DA:7058,0
DA:7061,0
DA:7062,0
DA:7063,0
DA:7064,0
DA:7065,0
DA:7067,0
DA:7070,0
DA:7071,0
DA:7072,0
DA:7073,0
DA:7074,0
DA:7076,0
DA:7079,0
DA:7082,0
DA:7085,0
DA:7086,0
DA:7087,0
DA:7088,0
DA:7089,0
DA:7091,0
DA:7092,0
DA:7093,0
DA:7095,0
DA:7096,0
DA:7098,0
DA:7101,0
DA:7102,0
DA:7103,0
DA:7106,0
DA:7108,0
DA:7109,0
DA:7111,0
DA:7112,0
DA:7113,0
DA:7114,0
DA:7116,0
DA:7117,0
DA:7118,0
DA:7119,0
DA:7120,0
DA:7122,0
DA:7123,0
DA:7125,0
DA:7126,0
DA:7127,0
DA:7128,0
DA:7129,0
DA:7130,0
DA:7131,0
DA:7132,0
DA:7134,0
DA:7135,0
DA:7137,0
DA:7139,0
DA:7140,0
DA:7143,0
DA:7144,0
DA:7146,0
DA:7147,0
DA:7148,0
DA:7149,0
DA:7150,0
DA:7154,0
DA:7155,0
DA:7157,0
DA:7158,0
DA:7159,0
DA:7160,0
DA:7161,0
DA:7162,0
DA:7164,0
DA:7165,0
DA:7167,0
DA:7168,0
DA:7169,0
DA:7170,0
DA:7171,0
DA:7172,0
DA:7174,0
DA:7175,0
DA:7177,0
DA:7178,0
DA:7181,0
DA:7185,0
DA:7187,0
DA:7189,0
DA:7193,0
DA:7195,0
DA:7196,0
DA:7197,0
DA:7198,0
DA:7199,0
DA:7200,0
DA:7201,0
DA:7202,0
DA:7203,0
DA:7206,0
DA:7209,0
DA:7210,0
DA:7211,0
DA:7212,0
DA:7213,0
DA:7216,0
DA:7217,0
DA:7218,0
DA:7219,0
DA:7222,0
DA:7223,0
DA:7225,0
DA:7231,0
DA:7233,0
DA:7234,0
DA:7236,0
DA:7237,0
DA:7238,0
DA:7239,0
DA:7240,0
DA:7241,0
DA:7242,0
DA:7244,0
DA:7245,0
DA:7247,0
DA:7249,0
DA:7250,0
DA:7253,0
DA:7254,0
DA:7256,0
DA:7257,0
DA:7258,0
DA:7259,0
DA:7262,0
DA:7264,0
DA:7266,0
DA:7272,0
DA:7273,0
DA:7275,0
DA:7276,0
DA:7277,0
DA:7278,0
DA:7279,0
DA:7280,0
DA:7281,0
DA:7283,0
DA:7285,0
DA:7286,0
DA:7288,0
DA:7289,0
DA:7290,0
DA:7291,0
DA:7294,0
DA:7295,0
DA:7297,0
DA:7298,0
DA:7300,0
DA:7302,0
DA:7306,0
DA:7308,0
DA:7310,0
DA:7316,0
DA:7317,0
DA:7321,0
DA:7322,0
DA:7324,0
DA:7325,0
DA:7326,0
DA:7327,0
DA:7332,0
DA:7335,0
DA:7337,0
DA:7338,0
DA:7339,0
DA:7340,0
DA:7341,0
DA:7343,0
DA:7344,0
DA:7345,0
DA:7346,0
DA:7347,0
DA:7349,0
DA:7350,0
DA:7351,0
DA:7352,0
DA:7353,0
DA:7354,0
DA:7356,0
DA:7358,0
DA:7362,0
DA:7367,0
DA:7370,0
DA:7371,0
DA:7373,0
DA:7377,1448
DA:7378,1448
DA:7379,1448
DA:7380,1448
DA:7381,1448
DA:7382,1448
DA:7384,1448
DA:7386,1448
DA:7387,1448
DA:7388,1448
DA:7389,1448
DA:7390,1448
DA:7391,1448
DA:7392,1448
DA:7393,1448
DA:7394,1448
DA:7395,1448
DA:7396,1448
DA:7397,1448
DA:7398,1448
DA:7399,1448
DA:7400,1448
DA:7401,1448
DA:7402,1448
DA:7403,1448
DA:7404,1448
DA:7405,1448
DA:7406,1448
DA:7407,1448
DA:7408,0
DA:7410,1448
DA:7411,1448
DA:7412,1448
DA:7413,1448
DA:7414,1448
DA:7415,1448
DA:7416,1448
DA:7417,1448
DA:7418,1448
DA:7419,1448
DA:7420,1448
DA:7421,1448
DA:7422,1448
DA:7423,1448
DA:7424,1448
DA:7428,1448
DA:7434,2
DA:7437,1448
DA:7438,1448
DA:7439,1448
DA:7440,1448
DA:7441,1448
DA:7442,1448
DA:7443,1448
DA:7444,1448
DA:7445,0
DA:7448,1448
DA:7449,1448
DA:7453,1448
DA:7454,1448
DA:7455,1448
DA:7456,1448
DA:7457,1448
DA:7458,1448
DA:7459,1448
DA:7460,1448
DA:7461,1448
DA:7466,1448
DA:7472,1448
DA:7473,1448
DA:7474,1448
DA:7475,1448
DA:7481,1448
DA:7482,553
DA:7483,895
DA:7485,1448
DA:7486,1
DA:7492,1448
DA:7497,1448
DA:7498,553
DA:7499,3
DA:7503,0
DA:7506,3
DA:7507,3
DA:7509,3
DA:7511,3
DA:7512,550
DA:7513,895
DA:7516,1448
DA:7517,1448
DA:7518,1448
DA:7519,1448
DA:7520,0
DA:7522,0
DA:7523,0
DA:7524,0
DA:7525,1448
DA:7526,1448
DA:7527,1448
DA:7529,0
DA:7533,1448
DA:7534,0
DA:7535,0
DA:7536,0
DA:7537,1448
DA:7539,1448
DA:7540,1448
DA:7543,1
DA:7544,1
DA:7545,1
DA:7546,1
DA:7547,1
DA:7548,1
DA:7549,1
DA:7550,1
DA:7551,0
DA:7553,1
DA:7556,1
DA:7557,1
DA:7558,1
DA:7561,0
DA:7565,1
DA:7566,1
DA:7568,0
DA:7569,0
DA:7572,0
DA:7576,1
DA:7577,1
DA:7578,1
DA:7581,1
DA:7582,0
DA:7585,1
DA:7586,1
DA:7587,1
DA:7588,1
DA:7589,1
DA:7590,1
DA:7594,1
DA:7597,1
DA:7598,1
DA:7599,1
DA:7600,1
DA:7601,1
DA:7602,1
DA:7603,1
DA:7606,1
DA:7607,1
DA:7608,1
DA:7609,1
DA:7610,1
DA:7611,1
DA:7612,1
DA:7615,1
DA:7616,1
DA:7617,1
DA:7618,1
DA:7619,1
DA:7622,1
DA:7624,1
DA:7627,1
DA:7628,1
DA:7631,1
DA:7632,0
DA:7633,1
DA:7634,0
DA:7636,1
DA:7639,1
DA:7640,1
DA:7641,1
DA:7642,1
DA:7643,1
DA:7644,1
DA:7645,1
DA:7646,1
DA:7647,0
DA:7649,1
DA:7652,1
DA:7653,1
DA:7654,1
DA:7657,0
DA:7662,1
DA:7663,1
DA:7664,1
DA:7665,1
DA:7666,1
DA:7668,0
DA:7670,1
DA:7671,1
DA:7672,1
DA:7673,1
DA:7674,1
DA:7675,1
DA:7676,1
DA:7677,1
DA:7678,1
DA:7679,1
DA:7680,1
DA:7685,1
DA:7687,1
DA:7690,112
DA:7691,112
DA:7692,112
DA:7693,112
DA:7694,112
DA:7695,112
DA:7696,112
DA:7697,112
DA:7698,112
DA:7699,112
DA:7700,112
DA:7701,112
DA:7702,0
DA:7703,112
DA:7705,112
DA:7706,112
DA:7707,112
DA:7708,112
DA:7709,112
DA:7710,112
DA:7712,0
DA:7715,112
DA:7716,112
DA:7718,0
DA:7719,0
DA:7721,0
DA:7725,112
DA:7726,112
DA:7727,112
DA:7729,112
DA:7731,112
DA:7732,112
DA:7734,0
DA:7736,0
DA:7737,0
DA:7740,112
DA:7741,112
DA:7742,112
DA:7743,112
DA:7744,112
DA:7746,112
DA:7750,112
DA:7752,112
DA:7753,112
DA:7754,112
DA:7755,112
DA:7756,112
DA:7757,112
DA:7759,0
DA:7760,0
DA:7761,0
DA:7762,0
DA:7763,0
DA:7764,0
DA:7765,0
DA:7766,0
DA:7770,0
DA:7773,0
DA:7776,0
DA:7780,0
DA:7782,112
DA:7783,0
DA:7785,112
DA:7787,0
DA:7788,0
DA:7792,0
DA:7794,0
DA:7795,0
DA:7798,0
DA:7799,0
DA:7801,0
DA:7803,0
DA:7808,112
DA:7811,30
DA:7812,30
DA:7813,30
DA:7814,30
DA:7815,30
DA:7816,30
DA:7817,30
DA:7818,30
DA:7819,0
DA:7823,30
DA:7826,0
DA:7830,30
DA:7832,3
DA:7833,0
DA:7835,0
DA:7838,3
DA:7841,0
DA:7845,27
DA:7847,0
DA:7851,30
DA:7854,352
DA:7855,352
DA:7856,352
DA:7857,352
DA:7858,352
DA:7859,352
DA:7860,352
DA:7861,352
DA:7862,352
DA:7863,0
DA:7865,352
DA:7868,352
DA:7872,0
DA:7876,352
DA:7877,59
DA:7879,0
DA:7881,59
DA:7882,293
DA:7884,293
DA:7885,0
DA:7887,0
DA:7889,0
DA:7890,293
DA:7892,293
DA:7893,293
DA:7894,293
DA:7895,293
DA:7896,293
DA:7897,293
DA:7898,293
DA:7899,293
DA:7900,0
DA:7902,293
DA:7903,293
DA:7904,293
DA:7905,293
DA:7906,293
DA:7907,293
DA:7908,293
DA:7911,293
DA:7912,226
DA:7913,67
DA:7915,67
DA:7916,67
DA:7917,183
DA:7918,116
DA:7919,116
DA:7921,116
DA:7923,82
DA:7924,82
DA:7926,34
DA:7927,34
DA:7928,34
DA:7932,67
DA:7935,67
DA:7937,67
DA:7938,67
DA:7939,0
DA:7941,67
DA:7944,3448
DA:7945,3448
DA:7953,2
DA:7954,2
DA:7955,2
DA:7958,2
DA:7959,2
DA:7960,0
DA:7962,0
DA:7965,0
DA:7966,0
DA:7967,0
DA:7968,0
DA:7971,0
DA:7973,0
DA:7975,2
DA:7976,2
DA:7979,1
DA:7982,1
DA:7983,1
DA:7984,1
DA:7987,1
DA:7989,1
DA:7990,1
DA:7993,1
DA:7994,1
DA:7995,1
DA:7998,1
DA:7999,1
DA:8002,1
DA:8003,1
DA:8006,1
DA:8007,1
DA:8008,1
DA:8009,1
DA:8010,1
DA:8013,1
DA:8014,1
DA:8015,1
DA:8016,1
DA:8017,1
DA:8018,1
DA:8019,1
DA:8022,1
DA:8025,1
DA:8027,1
DA:8028,1
DA:8029,1
DA:8030,1
DA:8033,1
DA:8034,1
DA:8035,1
DA:8038,1
DA:8040,1
DA:8042,1
DA:8046,1
DA:8047,1
DA:8048,1
DA:8051,1
DA:8052,1
DA:8053,1
DA:8054,1
DA:8055,1
DA:8058,1
DA:8059,1
DA:8062,1
DA:8065,1
DA:8066,1
DA:8067,1
DA:8068,1
DA:8069,1
DA:8070,1
DA:8071,1
DA:8072,1
DA:8073,1
DA:8076,1
DA:8077,1
DA:8080,1
DA:8083,1
DA:8084,1
DA:8087,1
DA:8090,1
DA:8091,1
DA:8094,1
DA:8097,1
DA:8098,1
DA:8099,1
DA:8100,1
DA:8101,1
DA:8102,1
DA:8103,1
DA:8104,1
DA:8106,1
DA:8107,1
DA:8108,1
DA:8110,1
DA:8111,1
DA:8112,128
DA:8115,1
DA:8116,1
DA:8117,1
DA:8118,1
DA:8119,1
DA:8120,1
DA:8122,1
DA:8123,1
DA:8124,1
DA:8125,1
DA:8126,1
DA:8127,1
DA:8129,1
DA:8130,1
DA:8132,1
DA:8133,1
DA:8134,1
DA:8135,1
DA:8136,1
DA:8137,1
DA:8138,1
DA:8141,1
DA:8142,1
DA:8143,1
DA:8144,1
DA:8145,1
DA:8146,1
DA:8149,1
DA:8151,1
DA:8152,1
DA:8153,1
DA:8154,1
DA:8155,1
DA:8156,1
DA:8157,1
DA:8160,1
DA:8161,1
DA:8162,1
DA:8165,1
DA:8167,1
DA:8168,1
DA:8169,1
DA:8170,1
DA:8173,1
DA:8174,1
DA:8175,1
DA:8176,1
DA:8177,1
DA:8178,1
DA:8179,1
DA:8181,1
DA:8182,1
DA:8183,1
DA:8184,1
DA:8185,1
DA:8186,1
DA:8188,1
DA:8190,1
DA:8191,1
DA:8194,1
DA:8196,1
DA:8197,1
DA:8198,1
DA:8199,1
DA:8201,1
DA:8204,1
DA:8205,1
DA:8206,1
DA:8207,1
DA:8208,1
DA:8209,1
DA:8210,1
DA:8212,1
DA:8213,1
DA:8214,1
DA:8215,1
DA:8216,1
DA:8217,1
DA:8225,1
DA:8227,1
DA:8228,1
DA:8231,1
DA:8234,1
DA:8235,1
DA:8236,1
DA:8237,1
DA:8239,1
DA:8240,1
DA:8242,1
DA:8243,0
DA:8244,0
DA:8247,1
DA:8248,1
DA:8249,1
DA:8250,0
DA:8254,1
DA:8255,1
DA:8258,1
DA:8261,1
DA:8264,1
DA:8265,1
DA:8266,1
DA:8267,1
DA:8268,1
DA:8271,1
DA:8274,1
DA:8276,1
DA:8278,0
DA:8279,0
DA:8281,1
DA:8282,1
DA:8283,1
DA:8284,1
DA:8285,0
DA:8287,1
DA:8290,1
DA:8293,1
DA:8296,1
DA:8297,1
DA:8298,1
DA:8299,0
DA:8303,1
DA:8304,1
BRF:0
BRH:0
LF:5452
LH:2696
end_of_record
SF:/Users/greg/Dev/git/kameo_remote/src/framing.rs
FN:22,_RNvNtCscNmhOS6QYVL_12kameo_remote7framing25write_ask_response_header
FN:41,_RNvNtCscNmhOS6QYVL_12kameo_remote7framing25write_gossip_frame_prefix
FN:22,_RNvNtCs4ULJ6nbTBOi_12kameo_remote7framing25write_ask_response_header
FN:41,_RNvNtCs4ULJ6nbTBOi_12kameo_remote7framing25write_gossip_frame_prefix
FN:57,_RNvNtNtCs4ULJ6nbTBOi_12kameo_remote7framing5tests13is_aligned_16
FN:76,_RNvNtNtCs4ULJ6nbTBOi_12kameo_remote7framing5testss_28actor_payload_offset_aligned
FN:85,_RNvNtNtCs4ULJ6nbTBOi_12kameo_remote7framing5testss_28stream_header_offset_aligned
FN:62,_RNvNtNtCs4ULJ6nbTBOi_12kameo_remote7framing5testss_33gossip_payload_is_16_byte_aligned
FN:70,_RNvNtNtCs4ULJ6nbTBOi_12kameo_remote7framing5testss_35ask_response_payload_offset_aligned
FN:126,_RNvNtNtCs4ULJ6nbTBOi_12kameo_remote7framing5testss_38write_gossip_frame_prefix_sets_padding
FN:138,_RNvNtNtCs4ULJ6nbTBOi_12kameo_remote7framing5testss_44header_lengths_hold_for_varied_payload_sizes
FN:115,_RNvNtNtCs4ULJ6nbTBOi_12kameo_remote7framing5testss_45write_ask_response_header_sets_length_and_pad
FN:93,_RNvNtNtCs4ULJ6nbTBOi_12kameo_remote7framing5testss_55codec_trap_length_prefix_stripped_requires_more_padding
FNDA:7294,_RNvNtCscNmhOS6QYVL_12kameo_remote7framing25write_ask_response_header
FNDA:1714,_RNvNtCscNmhOS6QYVL_12kameo_remote7framing25write_gossip_frame_prefix
FNDA:259,_RNvNtCs4ULJ6nbTBOi_12kameo_remote7framing25write_ask_response_header
FNDA:258,_RNvNtCs4ULJ6nbTBOi_12kameo_remote7framing25write_gossip_frame_prefix
FNDA:772,_RNvNtNtCs4ULJ6nbTBOi_12kameo_remote7framing5tests13is_aligned_16
FNDA:1,_RNvNtNtCs4ULJ6nbTBOi_12kameo_remote7framing5testss_28actor_payload_offset_aligned
FNDA:1,_RNvNtNtCs4ULJ6nbTBOi_12kameo_remote7framing5testss_28stream_header_offset_aligned
FNDA:1,_RNvNtNtCs4ULJ6nbTBOi_12kameo_remote7framing5testss_33gossip_payload_is_16_byte_aligned
FNDA:1,_RNvNtNtCs4ULJ6nbTBOi_12kameo_remote7framing5testss_35ask_response_payload_offset_aligned
FNDA:1,_RNvNtNtCs4ULJ6nbTBOi_12kameo_remote7framing5testss_38write_gossip_frame_prefix_sets_padding
FNDA:1,_RNvNtNtCs4ULJ6nbTBOi_12kameo_remote7framing5testss_44header_lengths_hold_for_varied_payload_sizes
FNDA:1,_RNvNtNtCs4ULJ6nbTBOi_12kameo_remote7framing5testss_45write_ask_response_header_sets_length_and_pad
FNDA:1,_RNvNtNtCs4ULJ6nbTBOi_12kameo_remote7framing5testss_55codec_trap_length_prefix_stripped_requires_more_padding
FNF:11
FNH:11
DA:22,7553
DA:23,7553
DA:24,7553
DA:25,7553
DA:26,7553
DA:27,7553
DA:29,7553
DA:30,7553
DA:31,7553
DA:32,7553
DA:33,7553
DA:36,7553
DA:37,7553
DA:38,7553
DA:39,7553
DA:41,1972
DA:42,1972
DA:43,1972
DA:44,1972
DA:45,1972
DA:48,1972
DA:49,1972
DA:50,1972
DA:51,1972
DA:57,772
DA:58,772
DA:59,772
DA:62,1
DA:64,1
DA:65,1
DA:66,1
DA:67,1
DA:70,1
DA:71,1
DA:72,1
DA:73,1
DA:76,1
DA:79,1
DA:80,1
DA:81,1
DA:82,1
DA:85,1
DA:87,1
DA:88,1
DA:89,1
DA:90,1
DA:93,1
DA:95,1
DA:96,1
DA:97,1
DA:98,1
DA:99,1
DA:102,1
DA:103,1
DA:104,1
DA:105,1
DA:108,1
DA:109,1
DA:110,1
DA:111,1
DA:112,1
DA:115,1
DA:116,1
DA:117,1
DA:118,1
DA:119,1
DA:120,1
DA:121,1
DA:122,1
DA:123,1
DA:126,1
DA:127,1
DA:128,1
DA:129,1
DA:130,1
DA:131,1
DA:133,1
DA:134,1
DA:135,1
DA:138,1
DA:139,257
DA:140,256
DA:141,256
DA:142,256
DA:143,256
DA:147,256
DA:148,256
DA:149,256
DA:150,256
DA:155,256
DA:156,256
DA:157,256
DA:159,1
BRF:0
BRH:0
LF:93
LH:93
end_of_record
SF:/Users/greg/Dev/git/kameo_remote/src/handle.rs
FN:1387,_RINvNtCscNmhOS6QYVL_12kameo_remote6handle25handle_streaming_v2_frameINtNtNtCsh4ISjvibZbV_5tokio2io5split8ReadHalfINtNtCsb3eVN0gIh2a_12tokio_rustls6server9TlsStreamNtNtNtNtB1b_3net3tcp6stream9TcpStreamEEECsa8O6w5083kA_20ask_reply_end_to_end
FN:1551,_RINvNtCscNmhOS6QYVL_12kameo_remote6handle28read_message_from_tls_readerINtNtNtCsh4ISjvibZbV_5tokio2io5split8ReadHalfINtNtCsb3eVN0gIh2a_12tokio_rustls6server9TlsStreamNtNtNtNtB1e_3net3tcp6stream9TcpStreamEEECsa8O6w5083kA_20ask_reply_end_to_end
FN:682,_RINvNtCscNmhOS6QYVL_12kameo_remote6handle30handle_incoming_connection_tlsINtNtNtCsh4ISjvibZbV_5tokio2io5split8ReadHalfINtNtCsb3eVN0gIh2a_12tokio_rustls6server9TlsStreamNtNtNtNtB1g_3net3tcp6stream9TcpStreamEEINtB1c_9WriteHalfB1S_EECsa8O6w5083kA_20ask_reply_end_to_end
FN:1396,_RNCINvNtCscNmhOS6QYVL_12kameo_remote6handle25handle_streaming_v2_frameINtNtNtCsh4ISjvibZbV_5tokio2io5split8ReadHalfINtNtCsb3eVN0gIh2a_12tokio_rustls6server9TlsStreamNtNtNtNtB1d_3net3tcp6stream9TcpStreamEEE0Csa8O6w5083kA_20ask_reply_end_to_end
FN:1557,_RNCINvNtCscNmhOS6QYVL_12kameo_remote6handle28read_message_from_tls_readerINtNtNtCsh4ISjvibZbV_5tokio2io5split8ReadHalfINtNtCsb3eVN0gIh2a_12tokio_rustls6server9TlsStreamNtNtNtNtB1g_3net3tcp6stream9TcpStreamEEE0Csa8O6w5083kA_20ask_reply_end_to_end
FN:693,_RNCINvNtCscNmhOS6QYVL_12kameo_remote6handle30handle_incoming_connection_tlsINtNtNtCsh4ISjvibZbV_5tokio2io5split8ReadHalfINtNtCsb3eVN0gIh2a_12tokio_rustls6server9TlsStreamNtNtNtNtB1i_3net3tcp6stream9TcpStreamEEINtB1e_9WriteHalfB1U_EE0Csa8O6w5083kA_20ask_reply_end_to_end
FN:887,_RNCNCINvNtCscNmhOS6QYVL_12kameo_remote6handle30handle_incoming_connection_tlsINtNtNtCsh4ISjvibZbV_5tokio2io5split8ReadHalfINtNtCsb3eVN0gIh2a_12tokio_rustls6server9TlsStreamNtNtNtNtB1k_3net3tcp6stream9TcpStreamEEINtB1g_9WriteHalfB1W_EE00Csa8O6w5083kA_20ask_reply_end_to_end
FN:890,_RNCNCINvNtCscNmhOS6QYVL_12kameo_remote6handle30handle_incoming_connection_tlsINtNtNtCsh4ISjvibZbV_5tokio2io5split8ReadHalfINtNtCsb3eVN0gIh2a_12tokio_rustls6server9TlsStreamNtNtNtNtB1k_3net3tcp6stream9TcpStreamEEINtB1g_9WriteHalfB1W_EE0s_0Csa8O6w5083kA_20ask_reply_end_to_end
FN:406,_RNCNCNCNvNtCscNmhOS6QYVL_12kameo_remote6handle18start_gossip_timer000Csa8O6w5083kA_20ask_reply_end_to_end
FN:412,_RNCNCNCNvNtCscNmhOS6QYVL_12kameo_remote6handle18start_gossip_timer00s1_0Csa8O6w5083kA_20ask_reply_end_to_end
FN:507,_RNCNCNCNvNtCscNmhOS6QYVL_12kameo_remote6handle18start_gossip_timer00s2_0Csa8O6w5083kA_20ask_reply_end_to_end
FN:455,_RNCNCNCNvNtCscNmhOS6QYVL_12kameo_remote6handle18start_gossip_timer00s4_0Csa8O6w5083kA_20ask_reply_end_to_end
FN:528,_RNCNCNCNvNtCscNmhOS6QYVL_12kameo_remote6handle18start_gossip_timer00s5_0Csa8O6w5083kA_20ask_reply_end_to_end
FN:1327,_RNCNCNCNvNtCscNmhOS6QYVL_12kameo_remote6handle23send_streaming_response000Csa8O6w5083kA_20ask_reply_end_to_end
FN:372,_RNCNCNCNvNtCscNmhOS6QYVL_12kameo_remote6handle33start_gossip_server_with_listener000Csa8O6w5083kA_20ask_reply_end_to_end
FN:90,_RNCNCNvMNtCscNmhOS6QYVL_12kameo_remote6handleNtB6_20GossipRegistryHandle12new_with_tls00Csa8O6w5083kA_20ask_reply_end_to_end
FN:98,_RNCNCNvMNtCscNmhOS6QYVL_12kameo_remote6handleNtB6_20GossipRegistryHandle12new_with_tls0s_0Csa8O6w5083kA_20ask_reply_end_to_end
FN:596,_RNCNCNvNtCscNmhOS6QYVL_12kameo_remote6handle21handle_tls_connection00Csa8O6w5083kA_20ask_reply_end_to_end
FN:603,_RNCNCNvNtCscNmhOS6QYVL_12kameo_remote6handle21handle_tls_connection0s0_0Csa8O6w5083kA_20ask_reply_end_to_end
FN:637,_RNCNCNvNtCscNmhOS6QYVL_12kameo_remote6handle21handle_tls_connection0s1_0Csa8O6w5083kA_20ask_reply_end_to_end
FN:602,_RNCNCNvNtCscNmhOS6QYVL_12kameo_remote6handle21handle_tls_connection0s_0Csa8O6w5083kA_20ask_reply_end_to_end
FN:1325,_RNCNCNvNtCscNmhOS6QYVL_12kameo_remote6handle23send_streaming_response00Csa8O6w5083kA_20ask_reply_end_to_end
FN:2174,_RNCNCNvNtCscNmhOS6QYVL_12kameo_remote6handle29send_gossip_message_zero_copy00Csa8O6w5083kA_20ask_reply_end_to_end
FN:54,_RNCNvMNtCscNmhOS6QYVL_12kameo_remote6handleNtB4_20GossipRegistryHandle12new_with_tls0Csa8O6w5083kA_20ask_reply_end_to_end
FN:242,_RNCNvMNtCscNmhOS6QYVL_12kameo_remote6handleNtB4_20GossipRegistryHandle22get_connection_to_peer0Csa8O6w5083kA_20ask_reply_end_to_end
FN:210,_RNCNvMNtCscNmhOS6QYVL_12kameo_remote6handleNtB4_20GossipRegistryHandle5stats0Csa8O6w5083kA_20ask_reply_end_to_end
FN:205,_RNCNvMNtCscNmhOS6QYVL_12kameo_remote6handleNtB4_20GossipRegistryHandle6lookup0Csa8O6w5083kA_20ask_reply_end_to_end
FN:215,_RNCNvMNtCscNmhOS6QYVL_12kameo_remote6handleNtB4_20GossipRegistryHandle8add_peer0Csa8O6w5083kA_20ask_reply_end_to_end
FN:341,_RNCNvMNtCscNmhOS6QYVL_12kameo_remote6handleNtB4_20GossipRegistryHandle8shutdown0Csa8O6w5083kA_20ask_reply_end_to_end
FN:557,_RNCNvNtCscNmhOS6QYVL_12kameo_remote6handle17handle_connection0Csa8O6w5083kA_20ask_reply_end_to_end
FN:385,_RNCNvNtCscNmhOS6QYVL_12kameo_remote6handle18start_gossip_timer0Csa8O6w5083kA_20ask_reply_end_to_end
FN:591,_RNCNvNtCscNmhOS6QYVL_12kameo_remote6handle21handle_tls_connection0Csa8O6w5083kA_20ask_reply_end_to_end
FN:1362,_RNCNvNtCscNmhOS6QYVL_12kameo_remote6handle23handle_completed_stream0Csa8O6w5083kA_20ask_reply_end_to_end
FN:1322,_RNCNvNtCscNmhOS6QYVL_12kameo_remote6handle23send_streaming_response0Csa8O6w5083kA_20ask_reply_end_to_end
FN:2167,_RNCNvNtCscNmhOS6QYVL_12kameo_remote6handle29send_gossip_message_zero_copy0Csa8O6w5083kA_20ask_reply_end_to_end
FN:360,_RNCNvNtCscNmhOS6QYVL_12kameo_remote6handle33start_gossip_server_with_listener0Csa8O6w5083kA_20ask_reply_end_to_end
FN:1551,_RINvNtCscNmhOS6QYVL_12kameo_remote6handle28read_message_from_tls_readerINtNtCs85QQFkKrybG_4core3pin3PinINtNtCsdFlNUEO95cG_5alloc5boxed3BoxDNtNtNtCsh4ISjvibZbV_5tokio2io10async_read9AsyncReadNtNtB1c_6marker4SendEL_EEEB4_
FN:1557,_RNCINvNtCscNmhOS6QYVL_12kameo_remote6handle28read_message_from_tls_readerINtNtCs85QQFkKrybG_4core3pin3PinINtNtCsdFlNUEO95cG_5alloc5boxed3BoxDNtNtNtCsh4ISjvibZbV_5tokio2io10async_read9AsyncReadNtNtB1e_6marker4SendEL_EEE0B6_
FN:1274,_RNCNCNCNvNtCscNmhOS6QYVL_12kameo_remote6handle22handle_raw_ask_request000B9_
FN:1272,_RNCNCNvNtCscNmhOS6QYVL_12kameo_remote6handle22handle_raw_ask_request00B7_
FN:1261,_RNCNvNtCscNmhOS6QYVL_12kameo_remote6handle22handle_raw_ask_request0B5_
FN:1507,_RNCNvNtCscNmhOS6QYVL_12kameo_remote6handle23handle_response_message0B5_
FN:1387,_RINvNtCscNmhOS6QYVL_12kameo_remote6handle25handle_streaming_v2_framepEB4_
FN:682,_RINvNtCscNmhOS6QYVL_12kameo_remote6handle30handle_incoming_connection_tlsppEB4_
FN:1396,_RNCINvNtCscNmhOS6QYVL_12kameo_remote6handle25handle_streaming_v2_framepE0B6_
FN:693,_RNCINvNtCscNmhOS6QYVL_12kameo_remote6handle30handle_incoming_connection_tlsppE0B6_
FN:887,_RNCNCINvNtCscNmhOS6QYVL_12kameo_remote6handle30handle_incoming_connection_tlsppE00B8_
FN:890,_RNCNCINvNtCscNmhOS6QYVL_12kameo_remote6handle30handle_incoming_connection_tlsppE0s_0B8_
FN:406,_RNCNCNCNvNtCscNmhOS6QYVL_12kameo_remote6handle18start_gossip_timer000B9_
FN:412,_RNCNCNCNvNtCscNmhOS6QYVL_12kameo_remote6handle18start_gossip_timer00s1_0B9_
FN:507,_RNCNCNCNvNtCscNmhOS6QYVL_12kameo_remote6handle18start_gossip_timer00s2_0B9_
FN:455,_RNCNCNCNvNtCscNmhOS6QYVL_12kameo_remote6handle18start_gossip_timer00s4_0B9_
FN:528,_RNCNCNCNvNtCscNmhOS6QYVL_12kameo_remote6handle18start_gossip_timer00s5_0B9_
FN:1327,_RNCNCNCNvNtCscNmhOS6QYVL_12kameo_remote6handle23send_streaming_response000B9_
FN:372,_RNCNCNCNvNtCscNmhOS6QYVL_12kameo_remote6handle33start_gossip_server_with_listener000B9_
FN:90,_RNCNCNvMNtCscNmhOS6QYVL_12kameo_remote6handleNtB6_20GossipRegistryHandle12new_with_tls00B8_
FN:98,_RNCNCNvMNtCscNmhOS6QYVL_12kameo_remote6handleNtB6_20GossipRegistryHandle12new_with_tls0s_0B8_
FN:321,_RNCNCNvMNtCscNmhOS6QYVL_12kameo_remote6handleNtB6_20GossipRegistryHandle22bootstrap_non_blocking00B8_
FN:596,_RNCNCNvNtCscNmhOS6QYVL_12kameo_remote6handle21handle_tls_connection00B7_
FN:603,_RNCNCNvNtCscNmhOS6QYVL_12kameo_remote6handle21handle_tls_connection0s0_0B7_
FN:637,_RNCNCNvNtCscNmhOS6QYVL_12kameo_remote6handle21handle_tls_connection0s1_0B7_
FN:602,_RNCNCNvNtCscNmhOS6QYVL_12kameo_remote6handle21handle_tls_connection0s_0B7_
FN:1325,_RNCNCNvNtCscNmhOS6QYVL_12kameo_remote6handle23send_streaming_response00B7_
FN:2174,_RNCNCNvNtCscNmhOS6QYVL_12kameo_remote6handle29send_gossip_message_zero_copy00B7_
FN:200,_RNCNvMNtCscNmhOS6QYVL_12kameo_remote6handleNtB4_20GossipRegistryHandle10unregister0B6_
FN:54,_RNCNvMNtCscNmhOS6QYVL_12kameo_remote6handleNtB4_20GossipRegistryHandle12new_with_tls0B6_
FN:234,_RNCNvMNtCscNmhOS6QYVL_12kameo_remote6handleNtB4_20GossipRegistryHandle14get_connection0B6_
FN:175,_RNCNvMNtCscNmhOS6QYVL_12kameo_remote6handleNtB4_20GossipRegistryHandle15register_urgent0B6_
FN:120,_RNCNvMNtCscNmhOS6QYVL_12kameo_remote6handleNtB4_20GossipRegistryHandle16new_with_keypair0B6_
FN:316,_RNCNvMNtCscNmhOS6QYVL_12kameo_remote6handleNtB4_20GossipRegistryHandle22bootstrap_non_blocking0B6_
FN:242,_RNCNvMNtCscNmhOS6QYVL_12kameo_remote6handleNtB4_20GossipRegistryHandle22get_connection_to_peer0B6_
FN:160,_RNCNvMNtCscNmhOS6QYVL_12kameo_remote6handleNtB4_20GossipRegistryHandle22register_with_metadata0B6_
FN:190,_RNCNvMNtCscNmhOS6QYVL_12kameo_remote6handleNtB4_20GossipRegistryHandle22register_with_priority0B6_
FN:144,_RNCNvMNtCscNmhOS6QYVL_12kameo_remote6handleNtB4_20GossipRegistryHandle3new0B6_
FN:210,_RNCNvMNtCscNmhOS6QYVL_12kameo_remote6handleNtB4_20GossipRegistryHandle5stats0B6_
FN:205,_RNCNvMNtCscNmhOS6QYVL_12kameo_remote6handleNtB4_20GossipRegistryHandle6lookup0B6_
FN:215,_RNCNvMNtCscNmhOS6QYVL_12kameo_remote6handleNtB4_20GossipRegistryHandle8add_peer0B6_
FN:149,_RNCNvMNtCscNmhOS6QYVL_12kameo_remote6handleNtB4_20GossipRegistryHandle8register0B6_
FN:341,_RNCNvMNtCscNmhOS6QYVL_12kameo_remote6handleNtB4_20GossipRegistryHandle8shutdown0B6_
FN:256,_RNCNvMNtCscNmhOS6QYVL_12kameo_remote6handleNtB4_20GossipRegistryHandle9bootstrap0B6_
FN:557,_RNCNvNtCscNmhOS6QYVL_12kameo_remote6handle17handle_connection0B5_
FN:385,_RNCNvNtCscNmhOS6QYVL_12kameo_remote6handle18start_gossip_timer0B5_
FN:591,_RNCNvNtCscNmhOS6QYVL_12kameo_remote6handle21handle_tls_connection0B5_
FN:1362,_RNCNvNtCscNmhOS6QYVL_12kameo_remote6handle23handle_completed_stream0B5_
FN:1322,_RNCNvNtCscNmhOS6QYVL_12kameo_remote6handle23send_streaming_response0B5_
FN:2167,_RNCNvNtCscNmhOS6QYVL_12kameo_remote6handle29send_gossip_message_zero_copy0B5_
FN:360,_RNCNvNtCscNmhOS6QYVL_12kameo_remote6handle33start_gossip_server_with_listener0B5_
FN:200,_RNvMNtCscNmhOS6QYVL_12kameo_remote6handleNtB2_20GossipRegistryHandle10unregister
FN:50,_RNvMNtCscNmhOS6QYVL_12kameo_remote6handleNtB2_20GossipRegistryHandle12new_with_tls
FN:231,_RNvMNtCscNmhOS6QYVL_12kameo_remote6handleNtB2_20GossipRegistryHandle14get_connection
FN:170,_RNvMNtCscNmhOS6QYVL_12kameo_remote6handleNtB2_20GossipRegistryHandle15register_urgent
FN:116,_RNvMNtCscNmhOS6QYVL_12kameo_remote6handleNtB2_20GossipRegistryHandle16new_with_keypair
FN:316,_RNvMNtCscNmhOS6QYVL_12kameo_remote6handleNtB2_20GossipRegistryHandle22bootstrap_non_blocking
FN:239,_RNvMNtCscNmhOS6QYVL_12kameo_remote6handleNtB2_20GossipRegistryHandle22get_connection_to_peer
FN:155,_RNvMNtCscNmhOS6QYVL_12kameo_remote6handleNtB2_20GossipRegistryHandle22register_with_metadata
FN:185,_RNvMNtCscNmhOS6QYVL_12kameo_remote6handleNtB2_20GossipRegistryHandle22register_with_priority
FN:140,_RNvMNtCscNmhOS6QYVL_12kameo_remote6handleNtB2_20GossipRegistryHandle3new
FN:210,_RNvMNtCscNmhOS6QYVL_12kameo_remote6handleNtB2_20GossipRegistryHandle5stats
FN:205,_RNvMNtCscNmhOS6QYVL_12kameo_remote6handleNtB2_20GossipRegistryHandle6lookup
FN:215,_RNvMNtCscNmhOS6QYVL_12kameo_remote6handleNtB2_20GossipRegistryHandle8add_peer
FN:149,_RNvMNtCscNmhOS6QYVL_12kameo_remote6handleNtB2_20GossipRegistryHandle8register
FN:341,_RNvMNtCscNmhOS6QYVL_12kameo_remote6handleNtB2_20GossipRegistryHandle8shutdown
FN:256,_RNvMNtCscNmhOS6QYVL_12kameo_remote6handleNtB2_20GossipRegistryHandle9bootstrap
FN:553,_RNvNtCscNmhOS6QYVL_12kameo_remote6handle17handle_connection
FN:385,_RNvNtCscNmhOS6QYVL_12kameo_remote6handle18start_gossip_timer
FN:587,_RNvNtCscNmhOS6QYVL_12kameo_remote6handle21handle_tls_connection
FN:1256,_RNvNtCscNmhOS6QYVL_12kameo_remote6handle22handle_raw_ask_request
FN:1475,_RNvNtCscNmhOS6QYVL_12kameo_remote6handle23decode_registry_message
FN:1358,_RNvNtCscNmhOS6QYVL_12kameo_remote6handle23handle_completed_stream
FN:1502,_RNvNtCscNmhOS6QYVL_12kameo_remote6handle23handle_response_message
FN:1317,_RNvNtCscNmhOS6QYVL_12kameo_remote6handle23send_streaming_response
FN:1465,_RNvNtCscNmhOS6QYVL_12kameo_remote6handle27is_registry_payload_aligned
FN:2164,_RNvNtCscNmhOS6QYVL_12kameo_remote6handle29send_gossip_message_zero_copy
FN:357,_RNvNtCscNmhOS6QYVL_12kameo_remote6handle33start_gossip_server_with_listener
FN:1387,_RINvNtCscNmhOS6QYVL_12kameo_remote6handle25handle_streaming_v2_frameINtNtNtCsh4ISjvibZbV_5tokio2io5split8ReadHalfINtNtCsb3eVN0gIh2a_12tokio_rustls6server9TlsStreamNtNtNtNtB1b_3net3tcp6stream9TcpStreamEEECs4EqTPqKkQep_16ask_reply_simple
FN:1551,_RINvNtCscNmhOS6QYVL_12kameo_remote6handle28read_message_from_tls_readerINtNtNtCsh4ISjvibZbV_5tokio2io5split8ReadHalfINtNtCsb3eVN0gIh2a_12tokio_rustls6server9TlsStreamNtNtNtNtB1e_3net3tcp6stream9TcpStreamEEECs4EqTPqKkQep_16ask_reply_simple
FN:682,_RINvNtCscNmhOS6QYVL_12kameo_remote6handle30handle_incoming_connection_tlsINtNtNtCsh4ISjvibZbV_5tokio2io5split8ReadHalfINtNtCsb3eVN0gIh2a_12tokio_rustls6server9TlsStreamNtNtNtNtB1g_3net3tcp6stream9TcpStreamEEINtB1c_9WriteHalfB1S_EECs4EqTPqKkQep_16ask_reply_simple
FN:1396,_RNCINvNtCscNmhOS6QYVL_12kameo_remote6handle25handle_streaming_v2_frameINtNtNtCsh4ISjvibZbV_5tokio2io5split8ReadHalfINtNtCsb3eVN0gIh2a_12tokio_rustls6server9TlsStreamNtNtNtNtB1d_3net3tcp6stream9TcpStreamEEE0Cs4EqTPqKkQep_16ask_reply_simple
FN:1557,_RNCINvNtCscNmhOS6QYVL_12kameo_remote6handle28read_message_from_tls_readerINtNtNtCsh4ISjvibZbV_5tokio2io5split8ReadHalfINtNtCsb3eVN0gIh2a_12tokio_rustls6server9TlsStreamNtNtNtNtB1g_3net3tcp6stream9TcpStreamEEE0Cs4EqTPqKkQep_16ask_reply_simple
FN:693,_RNCINvNtCscNmhOS6QYVL_12kameo_remote6handle30handle_incoming_connection_tlsINtNtNtCsh4ISjvibZbV_5tokio2io5split8ReadHalfINtNtCsb3eVN0gIh2a_12tokio_rustls6server9TlsStreamNtNtNtNtB1i_3net3tcp6stream9TcpStreamEEINtB1e_9WriteHalfB1U_EE0Cs4EqTPqKkQep_16ask_reply_simple
FN:887,_RNCNCINvNtCscNmhOS6QYVL_12kameo_remote6handle30handle_incoming_connection_tlsINtNtNtCsh4ISjvibZbV_5tokio2io5split8ReadHalfINtNtCsb3eVN0gIh2a_12tokio_rustls6server9TlsStreamNtNtNtNtB1k_3net3tcp6stream9TcpStreamEEINtB1g_9WriteHalfB1W_EE00Cs4EqTPqKkQep_16ask_reply_simple
FN:890,_RNCNCINvNtCscNmhOS6QYVL_12kameo_remote6handle30handle_incoming_connection_tlsINtNtNtCsh4ISjvibZbV_5tokio2io5split8ReadHalfINtNtCsb3eVN0gIh2a_12tokio_rustls6server9TlsStreamNtNtNtNtB1k_3net3tcp6stream9TcpStreamEEINtB1g_9WriteHalfB1W_EE0s_0Cs4EqTPqKkQep_16ask_reply_simple
FN:406,_RNCNCNCNvNtCscNmhOS6QYVL_12kameo_remote6handle18start_gossip_timer000Cs4EqTPqKkQep_16ask_reply_simple
FN:412,_RNCNCNCNvNtCscNmhOS6QYVL_12kameo_remote6handle18start_gossip_timer00s1_0Cs4EqTPqKkQep_16ask_reply_simple
FN:507,_RNCNCNCNvNtCscNmhOS6QYVL_12kameo_remote6handle18start_gossip_timer00s2_0Cs4EqTPqKkQep_16ask_reply_simple
FN:455,_RNCNCNCNvNtCscNmhOS6QYVL_12kameo_remote6handle18start_gossip_timer00s4_0Cs4EqTPqKkQep_16ask_reply_simple
FN:528,_RNCNCNCNvNtCscNmhOS6QYVL_12kameo_remote6handle18start_gossip_timer00s5_0Cs4EqTPqKkQep_16ask_reply_simple
FN:1327,_RNCNCNCNvNtCscNmhOS6QYVL_12kameo_remote6handle23send_streaming_response000Cs4EqTPqKkQep_16ask_reply_simple
FN:372,_RNCNCNCNvNtCscNmhOS6QYVL_12kameo_remote6handle33start_gossip_server_with_listener000Cs4EqTPqKkQep_16ask_reply_simple
FN:90,_RNCNCNvMNtCscNmhOS6QYVL_12kameo_remote6handleNtB6_20GossipRegistryHandle12new_with_tls00Cs4EqTPqKkQep_16ask_reply_simple
FN:98,_RNCNCNvMNtCscNmhOS6QYVL_12kameo_remote6handleNtB6_20GossipRegistryHandle12new_with_tls0s_0Cs4EqTPqKkQep_16ask_reply_simple
FN:596,_RNCNCNvNtCscNmhOS6QYVL_12kameo_remote6handle21handle_tls_connection00Cs4EqTPqKkQep_16ask_reply_simple
FN:603,_RNCNCNvNtCscNmhOS6QYVL_12kameo_remote6handle21handle_tls_connection0s0_0Cs4EqTPqKkQep_16ask_reply_simple
FN:637,_RNCNCNvNtCscNmhOS6QYVL_12kameo_remote6handle21handle_tls_connection0s1_0Cs4EqTPqKkQep_16ask_reply_simple
FN:602,_RNCNCNvNtCscNmhOS6QYVL_12kameo_remote6handle21handle_tls_connection0s_0Cs4EqTPqKkQep_16ask_reply_simple
FN:1325,_RNCNCNvNtCscNmhOS6QYVL_12kameo_remote6handle23send_streaming_response00Cs4EqTPqKkQep_16ask_reply_simple
FN:2174,_RNCNCNvNtCscNmhOS6QYVL_12kameo_remote6handle29send_gossip_message_zero_copy00Cs4EqTPqKkQep_16ask_reply_simple
FN:54,_RNCNvMNtCscNmhOS6QYVL_12kameo_remote6handleNtB4_20GossipRegistryHandle12new_with_tls0Cs4EqTPqKkQep_16ask_reply_simple
FN:234,_RNCNvMNtCscNmhOS6QYVL_12kameo_remote6handleNtB4_20GossipRegistryHandle14get_connection0Cs4EqTPqKkQep_16ask_reply_simple
FN:120,_RNCNvMNtCscNmhOS6QYVL_12kameo_remote6handleNtB4_20GossipRegistryHandle16new_with_keypair0Cs4EqTPqKkQep_16ask_reply_simple
FN:215,_RNCNvMNtCscNmhOS6QYVL_12kameo_remote6handleNtB4_20GossipRegistryHandle8add_peer0Cs4EqTPqKkQep_16ask_reply_simple
FN:341,_RNCNvMNtCscNmhOS6QYVL_12kameo_remote6handleNtB4_20GossipRegistryHandle8shutdown0Cs4EqTPqKkQep_16ask_reply_simple
FN:557,_RNCNvNtCscNmhOS6QYVL_12kameo_remote6handle17handle_connection0Cs4EqTPqKkQep_16ask_reply_simple
FN:385,_RNCNvNtCscNmhOS6QYVL_12kameo_remote6handle18start_gossip_timer0Cs4EqTPqKkQep_16ask_reply_simple
FN:591,_RNCNvNtCscNmhOS6QYVL_12kameo_remote6handle21handle_tls_connection0Cs4EqTPqKkQep_16ask_reply_simple
FN:1362,_RNCNvNtCscNmhOS6QYVL_12kameo_remote6handle23handle_completed_stream0Cs4EqTPqKkQep_16ask_reply_simple
FN:1322,_RNCNvNtCscNmhOS6QYVL_12kameo_remote6handle23send_streaming_response0Cs4EqTPqKkQep_16ask_reply_simple
FN:2167,_RNCNvNtCscNmhOS6QYVL_12kameo_remote6handle29send_gossip_message_zero_copy0Cs4EqTPqKkQep_16ask_reply_simple
FN:360,_RNCNvNtCscNmhOS6QYVL_12kameo_remote6handle33start_gossip_server_with_listener0Cs4EqTPqKkQep_16ask_reply_simple
FN:1387,_RINvNtCscNmhOS6QYVL_12kameo_remote6handle25handle_streaming_v2_frameINtNtNtCsh4ISjvibZbV_5tokio2io5split8ReadHalfINtNtCsb3eVN0gIh2a_12tokio_rustls6server9TlsStreamNtNtNtNtB1b_3net3tcp6stream9TcpStreamEEECs3gQfcGJLyAz_20ask_with_lookup_demo
FN:1551,_RINvNtCscNmhOS6QYVL_12kameo_remote6handle28read_message_from_tls_readerINtNtNtCsh4ISjvibZbV_5tokio2io5split8ReadHalfINtNtCsb3eVN0gIh2a_12tokio_rustls6server9TlsStreamNtNtNtNtB1e_3net3tcp6stream9TcpStreamEEECs3gQfcGJLyAz_20ask_with_lookup_demo
FN:682,_RINvNtCscNmhOS6QYVL_12kameo_remote6handle30handle_incoming_connection_tlsINtNtNtCsh4ISjvibZbV_5tokio2io5split8ReadHalfINtNtCsb3eVN0gIh2a_12tokio_rustls6server9TlsStreamNtNtNtNtB1g_3net3tcp6stream9TcpStreamEEINtB1c_9WriteHalfB1S_EECs3gQfcGJLyAz_20ask_with_lookup_demo
FN:1396,_RNCINvNtCscNmhOS6QYVL_12kameo_remote6handle25handle_streaming_v2_frameINtNtNtCsh4ISjvibZbV_5tokio2io5split8ReadHalfINtNtCsb3eVN0gIh2a_12tokio_rustls6server9TlsStreamNtNtNtNtB1d_3net3tcp6stream9TcpStreamEEE0Cs3gQfcGJLyAz_20ask_with_lookup_demo
FN:1557,_RNCINvNtCscNmhOS6QYVL_12kameo_remote6handle28read_message_from_tls_readerINtNtNtCsh4ISjvibZbV_5tokio2io5split8ReadHalfINtNtCsb3eVN0gIh2a_12tokio_rustls6server9TlsStreamNtNtNtNtB1g_3net3tcp6stream9TcpStreamEEE0Cs3gQfcGJLyAz_20ask_with_lookup_demo
FN:693,_RNCINvNtCscNmhOS6QYVL_12kameo_remote6handle30handle_incoming_connection_tlsINtNtNtCsh4ISjvibZbV_5tokio2io5split8ReadHalfINtNtCsb3eVN0gIh2a_12tokio_rustls6server9TlsStreamNtNtNtNtB1i_3net3tcp6stream9TcpStreamEEINtB1e_9WriteHalfB1U_EE0Cs3gQfcGJLyAz_20ask_with_lookup_demo
FN:887,_RNCNCINvNtCscNmhOS6QYVL_12kameo_remote6handle30handle_incoming_connection_tlsINtNtNtCsh4ISjvibZbV_5tokio2io5split8ReadHalfINtNtCsb3eVN0gIh2a_12tokio_rustls6server9TlsStreamNtNtNtNtB1k_3net3tcp6stream9TcpStreamEEINtB1g_9WriteHalfB1W_EE00Cs3gQfcGJLyAz_20ask_with_lookup_demo
FN:890,_RNCNCINvNtCscNmhOS6QYVL_12kameo_remote6handle30handle_incoming_connection_tlsINtNtNtCsh4ISjvibZbV_5tokio2io5split8ReadHalfINtNtCsb3eVN0gIh2a_12tokio_rustls6server9TlsStreamNtNtNtNtB1k_3net3tcp6stream9TcpStreamEEINtB1g_9WriteHalfB1W_EE0s_0Cs3gQfcGJLyAz_20ask_with_lookup_demo
FN:406,_RNCNCNCNvNtCscNmhOS6QYVL_12kameo_remote6handle18start_gossip_timer000Cs3gQfcGJLyAz_20ask_with_lookup_demo
FN:412,_RNCNCNCNvNtCscNmhOS6QYVL_12kameo_remote6handle18start_gossip_timer00s1_0Cs3gQfcGJLyAz_20ask_with_lookup_demo
FN:507,_RNCNCNCNvNtCscNmhOS6QYVL_12kameo_remote6handle18start_gossip_timer00s2_0Cs3gQfcGJLyAz_20ask_with_lookup_demo
FN:455,_RNCNCNCNvNtCscNmhOS6QYVL_12kameo_remote6handle18start_gossip_timer00s4_0Cs3gQfcGJLyAz_20ask_with_lookup_demo
FN:528,_RNCNCNCNvNtCscNmhOS6QYVL_12kameo_remote6handle18start_gossip_timer00s5_0Cs3gQfcGJLyAz_20ask_with_lookup_demo
FN:1327,_RNCNCNCNvNtCscNmhOS6QYVL_12kameo_remote6handle23send_streaming_response000Cs3gQfcGJLyAz_20ask_with_lookup_demo
FN:372,_RNCNCNCNvNtCscNmhOS6QYVL_12kameo_remote6handle33start_gossip_server_with_listener000Cs3gQfcGJLyAz_20ask_with_lookup_demo
FN:90,_RNCNCNvMNtCscNmhOS6QYVL_12kameo_remote6handleNtB6_20GossipRegistryHandle12new_with_tls00Cs3gQfcGJLyAz_20ask_with_lookup_demo
FN:98,_RNCNCNvMNtCscNmhOS6QYVL_12kameo_remote6handleNtB6_20GossipRegistryHandle12new_with_tls0s_0Cs3gQfcGJLyAz_20ask_with_lookup_demo
FN:596,_RNCNCNvNtCscNmhOS6QYVL_12kameo_remote6handle21handle_tls_connection00Cs3gQfcGJLyAz_20ask_with_lookup_demo
FN:603,_RNCNCNvNtCscNmhOS6QYVL_12kameo_remote6handle21handle_tls_connection0s0_0Cs3gQfcGJLyAz_20ask_with_lookup_demo
FN:637,_RNCNCNvNtCscNmhOS6QYVL_12kameo_remote6handle21handle_tls_connection0s1_0Cs3gQfcGJLyAz_20ask_with_lookup_demo
FN:602,_RNCNCNvNtCscNmhOS6QYVL_12kameo_remote6handle21handle_tls_connection0s_0Cs3gQfcGJLyAz_20ask_with_lookup_demo
FN:1325,_RNCNCNvNtCscNmhOS6QYVL_12kameo_remote6handle23send_streaming_response00Cs3gQfcGJLyAz_20ask_with_lookup_demo
FN:2174,_RNCNCNvNtCscNmhOS6QYVL_12kameo_remote6handle29send_gossip_message_zero_copy00Cs3gQfcGJLyAz_20ask_with_lookup_demo
FN:54,_RNCNvMNtCscNmhOS6QYVL_12kameo_remote6handleNtB4_20GossipRegistryHandle12new_with_tls0Cs3gQfcGJLyAz_20ask_with_lookup_demo
FN:234,_RNCNvMNtCscNmhOS6QYVL_12kameo_remote6handleNtB4_20GossipRegistryHandle14get_connection0Cs3gQfcGJLyAz_20ask_with_lookup_demo
FN:175,_RNCNvMNtCscNmhOS6QYVL_12kameo_remote6handleNtB4_20GossipRegistryHandle15register_urgent0Cs3gQfcGJLyAz_20ask_with_lookup_demo
FN:120,_RNCNvMNtCscNmhOS6QYVL_12kameo_remote6handleNtB4_20GossipRegistryHandle16new_with_keypair0Cs3gQfcGJLyAz_20ask_with_lookup_demo
FN:242,_RNCNvMNtCscNmhOS6QYVL_12kameo_remote6handleNtB4_20GossipRegistryHandle22get_connection_to_peer0Cs3gQfcGJLyAz_20ask_with_lookup_demo
FN:210,_RNCNvMNtCscNmhOS6QYVL_12kameo_remote6handleNtB4_20GossipRegistryHandle5stats0Cs3gQfcGJLyAz_20ask_with_lookup_demo
FN:205,_RNCNvMNtCscNmhOS6QYVL_12kameo_remote6handleNtB4_20GossipRegistryHandle6lookup0Cs3gQfcGJLyAz_20ask_with_lookup_demo
FN:215,_RNCNvMNtCscNmhOS6QYVL_12kameo_remote6handleNtB4_20GossipRegistryHandle8add_peer0Cs3gQfcGJLyAz_20ask_with_lookup_demo
FN:341,_RNCNvMNtCscNmhOS6QYVL_12kameo_remote6handleNtB4_20GossipRegistryHandle8shutdown0Cs3gQfcGJLyAz_20ask_with_lookup_demo
FN:557,_RNCNvNtCscNmhOS6QYVL_12kameo_remote6handle17handle_connection0Cs3gQfcGJLyAz_20ask_with_lookup_demo
FN:385,_RNCNvNtCscNmhOS6QYVL_12kameo_remote6handle18start_gossip_timer0Cs3gQfcGJLyAz_20ask_with_lookup_demo
FN:591,_RNCNvNtCscNmhOS6QYVL_12kameo_remote6handle21handle_tls_connection0Cs3gQfcGJLyAz_20ask_with_lookup_demo
FN:1362,_RNCNvNtCscNmhOS6QYVL_12kameo_remote6handle23handle_completed_stream0Cs3gQfcGJLyAz_20ask_with_lookup_demo
FN:1322,_RNCNvNtCscNmhOS6QYVL_12kameo_remote6handle23send_streaming_response0Cs3gQfcGJLyAz_20ask_with_lookup_demo
FN:2167,_RNCNvNtCscNmhOS6QYVL_12kameo_remote6handle29send_gossip_message_zero_copy0Cs3gQfcGJLyAz_20ask_with_lookup_demo
FN:360,_RNCNvNtCscNmhOS6QYVL_12kameo_remote6handle33start_gossip_server_with_listener0Cs3gQfcGJLyAz_20ask_with_lookup_demo
FN:1387,_RINvNtCscNmhOS6QYVL_12kameo_remote6handle25handle_streaming_v2_frameINtNtNtCsh4ISjvibZbV_5tokio2io5split8ReadHalfINtNtCsb3eVN0gIh2a_12tokio_rustls6server9TlsStreamNtNtNtNtB1b_3net3tcp6stream9TcpStreamEEECs36kK6wN0hlG_21batch_ask_performance
FN:1551,_RINvNtCscNmhOS6QYVL_12kameo_remote6handle28read_message_from_tls_readerINtNtNtCsh4ISjvibZbV_5tokio2io5split8ReadHalfINtNtCsb3eVN0gIh2a_12tokio_rustls6server9TlsStreamNtNtNtNtB1e_3net3tcp6stream9TcpStreamEEECs36kK6wN0hlG_21batch_ask_performance
FN:682,_RINvNtCscNmhOS6QYVL_12kameo_remote6handle30handle_incoming_connection_tlsINtNtNtCsh4ISjvibZbV_5tokio2io5split8ReadHalfINtNtCsb3eVN0gIh2a_12tokio_rustls6server9TlsStreamNtNtNtNtB1g_3net3tcp6stream9TcpStreamEEINtB1c_9WriteHalfB1S_EECs36kK6wN0hlG_21batch_ask_performance
FN:1396,_RNCINvNtCscNmhOS6QYVL_12kameo_remote6handle25handle_streaming_v2_frameINtNtNtCsh4ISjvibZbV_5tokio2io5split8ReadHalfINtNtCsb3eVN0gIh2a_12tokio_rustls6server9TlsStreamNtNtNtNtB1d_3net3tcp6stream9TcpStreamEEE0Cs36kK6wN0hlG_21batch_ask_performance
FN:1557,_RNCINvNtCscNmhOS6QYVL_12kameo_remote6handle28read_message_from_tls_readerINtNtNtCsh4ISjvibZbV_5tokio2io5split8ReadHalfINtNtCsb3eVN0gIh2a_12tokio_rustls6server9TlsStreamNtNtNtNtB1g_3net3tcp6stream9TcpStreamEEE0Cs36kK6wN0hlG_21batch_ask_performance
FN:693,_RNCINvNtCscNmhOS6QYVL_12kameo_remote6handle30handle_incoming_connection_tlsINtNtNtCsh4ISjvibZbV_5tokio2io5split8ReadHalfINtNtCsb3eVN0gIh2a_12tokio_rustls6server9TlsStreamNtNtNtNtB1i_3net3tcp6stream9TcpStreamEEINtB1e_9WriteHalfB1U_EE0Cs36kK6wN0hlG_21batch_ask_performance
FN:887,_RNCNCINvNtCscNmhOS6QYVL_12kameo_remote6handle30handle_incoming_connection_tlsINtNtNtCsh4ISjvibZbV_5tokio2io5split8ReadHalfINtNtCsb3eVN0gIh2a_12tokio_rustls6server9TlsStreamNtNtNtNtB1k_3net3tcp6stream9TcpStreamEEINtB1g_9WriteHalfB1W_EE00Cs36kK6wN0hlG_21batch_ask_performance
FN:890,_RNCNCINvNtCscNmhOS6QYVL_12kameo_remote6handle30handle_incoming_connection_tlsINtNtNtCsh4ISjvibZbV_5tokio2io5split8ReadHalfINtNtCsb3eVN0gIh2a_12tokio_rustls6server9TlsStreamNtNtNtNtB1k_3net3tcp6stream9TcpStreamEEINtB1g_9WriteHalfB1W_EE0s_0Cs36kK6wN0hlG_21batch_ask_performance
FN:406,_RNCNCNCNvNtCscNmhOS6QYVL_12kameo_remote6handle18start_gossip_timer000Cs36kK6wN0hlG_21batch_ask_performance
FN:412,_RNCNCNCNvNtCscNmhOS6QYVL_12kameo_remote6handle18start_gossip_timer00s1_0Cs36kK6wN0hlG_21batch_ask_performance
FN:507,_RNCNCNCNvNtCscNmhOS6QYVL_12kameo_remote6handle18start_gossip_timer00s2_0Cs36kK6wN0hlG_21batch_ask_performance
FN:455,_RNCNCNCNvNtCscNmhOS6QYVL_12kameo_remote6handle18start_gossip_timer00s4_0Cs36kK6wN0hlG_21batch_ask_performance
FN:528,_RNCNCNCNvNtCscNmhOS6QYVL_12kameo_remote6handle18start_gossip_timer00s5_0Cs36kK6wN0hlG_21batch_ask_performance
FN:1327,_RNCNCNCNvNtCscNmhOS6QYVL_12kameo_remote6handle23send_streaming_response000Cs36kK6wN0hlG_21batch_ask_performance
FN:372,_RNCNCNCNvNtCscNmhOS6QYVL_12kameo_remote6handle33start_gossip_server_with_listener000Cs36kK6wN0hlG_21batch_ask_performance
FN:90,_RNCNCNvMNtCscNmhOS6QYVL_12kameo_remote6handleNtB6_20GossipRegistryHandle12new_with_tls00Cs36kK6wN0hlG_21batch_ask_performance
FN:98,_RNCNCNvMNtCscNmhOS6QYVL_12kameo_remote6handleNtB6_20GossipRegistryHandle12new_with_tls0s_0Cs36kK6wN0hlG_21batch_ask_performance
FN:596,_RNCNCNvNtCscNmhOS6QYVL_12kameo_remote6handle21handle_tls_connection00Cs36kK6wN0hlG_21batch_ask_performance
FN:603,_RNCNCNvNtCscNmhOS6QYVL_12kameo_remote6handle21handle_tls_connection0s0_0Cs36kK6wN0hlG_21batch_ask_performance
FN:637,_RNCNCNvNtCscNmhOS6QYVL_12kameo_remote6handle21handle_tls_connection0s1_0Cs36kK6wN0hlG_21batch_ask_performance
FN:602,_RNCNCNvNtCscNmhOS6QYVL_12kameo_remote6handle21handle_tls_connection0s_0Cs36kK6wN0hlG_21batch_ask_performance
FN:1325,_RNCNCNvNtCscNmhOS6QYVL_12kameo_remote6handle23send_streaming_response00Cs36kK6wN0hlG_21batch_ask_performance
FN:2174,_RNCNCNvNtCscNmhOS6QYVL_12kameo_remote6handle29send_gossip_message_zero_copy00Cs36kK6wN0hlG_21batch_ask_performance
FN:54,_RNCNvMNtCscNmhOS6QYVL_12kameo_remote6handleNtB4_20GossipRegistryHandle12new_with_tls0Cs36kK6wN0hlG_21batch_ask_performance
FN:234,_RNCNvMNtCscNmhOS6QYVL_12kameo_remote6handleNtB4_20GossipRegistryHandle14get_connection0Cs36kK6wN0hlG_21batch_ask_performance
FN:120,_RNCNvMNtCscNmhOS6QYVL_12kameo_remote6handleNtB4_20GossipRegistryHandle16new_with_keypair0Cs36kK6wN0hlG_21batch_ask_performance
FN:341,_RNCNvMNtCscNmhOS6QYVL_12kameo_remote6handleNtB4_20GossipRegistryHandle8shutdown0Cs36kK6wN0hlG_21batch_ask_performance
FN:557,_RNCNvNtCscNmhOS6QYVL_12kameo_remote6handle17handle_connection0Cs36kK6wN0hlG_21batch_ask_performance
FN:385,_RNCNvNtCscNmhOS6QYVL_12kameo_remote6handle18start_gossip_timer0Cs36kK6wN0hlG_21batch_ask_performance
FN:591,_RNCNvNtCscNmhOS6QYVL_12kameo_remote6handle21handle_tls_connection0Cs36kK6wN0hlG_21batch_ask_performance
FN:1362,_RNCNvNtCscNmhOS6QYVL_12kameo_remote6handle23handle_completed_stream0Cs36kK6wN0hlG_21batch_ask_performance
FN:1322,_RNCNvNtCscNmhOS6QYVL_12kameo_remote6handle23send_streaming_response0Cs36kK6wN0hlG_21batch_ask_performance
FN:2167,_RNCNvNtCscNmhOS6QYVL_12kameo_remote6handle29send_gossip_message_zero_copy0Cs36kK6wN0hlG_21batch_ask_performance
FN:360,_RNCNvNtCscNmhOS6QYVL_12kameo_remote6handle33start_gossip_server_with_listener0Cs36kK6wN0hlG_21batch_ask_performance
FN:1387,_RINvNtCscNmhOS6QYVL_12kameo_remote6handle25handle_streaming_v2_frameINtNtNtCsh4ISjvibZbV_5tokio2io5split8ReadHalfINtNtCsb3eVN0gIh2a_12tokio_rustls6server9TlsStreamNtNtNtNtB1b_3net3tcp6stream9TcpStreamEEECs3Gqi3lF3rZv_16batch_ask_simple
FN:1551,_RINvNtCscNmhOS6QYVL_12kameo_remote6handle28read_message_from_tls_readerINtNtNtCsh4ISjvibZbV_5tokio2io5split8ReadHalfINtNtCsb3eVN0gIh2a_12tokio_rustls6server9TlsStreamNtNtNtNtB1e_3net3tcp6stream9TcpStreamEEECs3Gqi3lF3rZv_16batch_ask_simple
FN:682,_RINvNtCscNmhOS6QYVL_12kameo_remote6handle30handle_incoming_connection_tlsINtNtNtCsh4ISjvibZbV_5tokio2io5split8ReadHalfINtNtCsb3eVN0gIh2a_12tokio_rustls6server9TlsStreamNtNtNtNtB1g_3net3tcp6stream9TcpStreamEEINtB1c_9WriteHalfB1S_EECs3Gqi3lF3rZv_16batch_ask_simple
FN:1396,_RNCINvNtCscNmhOS6QYVL_12kameo_remote6handle25handle_streaming_v2_frameINtNtNtCsh4ISjvibZbV_5tokio2io5split8ReadHalfINtNtCsb3eVN0gIh2a_12tokio_rustls6server9TlsStreamNtNtNtNtB1d_3net3tcp6stream9TcpStreamEEE0Cs3Gqi3lF3rZv_16batch_ask_simple
FN:1557,_RNCINvNtCscNmhOS6QYVL_12kameo_remote6handle28read_message_from_tls_readerINtNtNtCsh4ISjvibZbV_5tokio2io5split8ReadHalfINtNtCsb3eVN0gIh2a_12tokio_rustls6server9TlsStreamNtNtNtNtB1g_3net3tcp6stream9TcpStreamEEE0Cs3Gqi3lF3rZv_16batch_ask_simple
FN:693,_RNCINvNtCscNmhOS6QYVL_12kameo_remote6handle30handle_incoming_connection_tlsINtNtNtCsh4ISjvibZbV_5tokio2io5split8ReadHalfINtNtCsb3eVN0gIh2a_12tokio_rustls6server9TlsStreamNtNtNtNtB1i_3net3tcp6stream9TcpStreamEEINtB1e_9WriteHalfB1U_EE0Cs3Gqi3lF3rZv_16batch_ask_simple
FN:887,_RNCNCINvNtCscNmhOS6QYVL_12kameo_remote6handle30handle_incoming_connection_tlsINtNtNtCsh4ISjvibZbV_5tokio2io5split8ReadHalfINtNtCsb3eVN0gIh2a_12tokio_rustls6server9TlsStreamNtNtNtNtB1k_3net3tcp6stream9TcpStreamEEINtB1g_9WriteHalfB1W_EE00Cs3Gqi3lF3rZv_16batch_ask_simple
FN:890,_RNCNCINvNtCscNmhOS6QYVL_12kameo_remote6handle30handle_incoming_connection_tlsINtNtNtCsh4ISjvibZbV_5tokio2io5split8ReadHalfINtNtCsb3eVN0gIh2a_12tokio_rustls6server9TlsStreamNtNtNtNtB1k_3net3tcp6stream9TcpStreamEEINtB1g_9WriteHalfB1W_EE0s_0Cs3Gqi3lF3rZv_16batch_ask_simple
FN:406,_RNCNCNCNvNtCscNmhOS6QYVL_12kameo_remote6handle18start_gossip_timer000Cs3Gqi3lF3rZv_16batch_ask_simple
FN:412,_RNCNCNCNvNtCscNmhOS6QYVL_12kameo_remote6handle18start_gossip_timer00s1_0Cs3Gqi3lF3rZv_16batch_ask_simple
FN:507,_RNCNCNCNvNtCscNmhOS6QYVL_12kameo_remote6handle18start_gossip_timer00s2_0Cs3Gqi3lF3rZv_16batch_ask_simple
FN:455,_RNCNCNCNvNtCscNmhOS6QYVL_12kameo_remote6handle18start_gossip_timer00s4_0Cs3Gqi3lF3rZv_16batch_ask_simple
FN:528,_RNCNCNCNvNtCscNmhOS6QYVL_12kameo_remote6handle18start_gossip_timer00s5_0Cs3Gqi3lF3rZv_16batch_ask_simple
FN:1327,_RNCNCNCNvNtCscNmhOS6QYVL_12kameo_remote6handle23send_streaming_response000Cs3Gqi3lF3rZv_16batch_ask_simple
FN:372,_RNCNCNCNvNtCscNmhOS6QYVL_12kameo_remote6handle33start_gossip_server_with_listener000Cs3Gqi3lF3rZv_16batch_ask_simple
FN:90,_RNCNCNvMNtCscNmhOS6QYVL_12kameo_remote6handleNtB6_20GossipRegistryHandle12new_with_tls00Cs3Gqi3lF3rZv_16batch_ask_simple
FN:98,_RNCNCNvMNtCscNmhOS6QYVL_12kameo_remote6handleNtB6_20GossipRegistryHandle12new_with_tls0s_0Cs3Gqi3lF3rZv_16batch_ask_simple
FN:596,_RNCNCNvNtCscNmhOS6QYVL_12kameo_remote6handle21handle_tls_connection00Cs3Gqi3lF3rZv_16batch_ask_simple
FN:603,_RNCNCNvNtCscNmhOS6QYVL_12kameo_remote6handle21handle_tls_connection0s0_0Cs3Gqi3lF3rZv_16batch_ask_simple
FN:637,_RNCNCNvNtCscNmhOS6QYVL_12kameo_remote6handle21handle_tls_connection0s1_0Cs3Gqi3lF3rZv_16batch_ask_simple
FN:602,_RNCNCNvNtCscNmhOS6QYVL_12kameo_remote6handle21handle_tls_connection0s_0Cs3Gqi3lF3rZv_16batch_ask_simple
FN:1325,_RNCNCNvNtCscNmhOS6QYVL_12kameo_remote6handle23send_streaming_response00Cs3Gqi3lF3rZv_16batch_ask_simple
FN:2174,_RNCNCNvNtCscNmhOS6QYVL_12kameo_remote6handle29send_gossip_message_zero_copy00Cs3Gqi3lF3rZv_16batch_ask_simple
FN:54,_RNCNvMNtCscNmhOS6QYVL_12kameo_remote6handleNtB4_20GossipRegistryHandle12new_with_tls0Cs3Gqi3lF3rZv_16batch_ask_simple
FN:120,_RNCNvMNtCscNmhOS6QYVL_12kameo_remote6handleNtB4_20GossipRegistryHandle16new_with_keypair0Cs3Gqi3lF3rZv_16batch_ask_simple
FN:242,_RNCNvMNtCscNmhOS6QYVL_12kameo_remote6handleNtB4_20GossipRegistryHandle22get_connection_to_peer0Cs3Gqi3lF3rZv_16batch_ask_simple
FN:215,_RNCNvMNtCscNmhOS6QYVL_12kameo_remote6handleNtB4_20GossipRegistryHandle8add_peer0Cs3Gqi3lF3rZv_16batch_ask_simple
FN:341,_RNCNvMNtCscNmhOS6QYVL_12kameo_remote6handleNtB4_20GossipRegistryHandle8shutdown0Cs3Gqi3lF3rZv_16batch_ask_simple
FN:557,_RNCNvNtCscNmhOS6QYVL_12kameo_remote6handle17handle_connection0Cs3Gqi3lF3rZv_16batch_ask_simple
FN:385,_RNCNvNtCscNmhOS6QYVL_12kameo_remote6handle18start_gossip_timer0Cs3Gqi3lF3rZv_16batch_ask_simple
FN:591,_RNCNvNtCscNmhOS6QYVL_12kameo_remote6handle21handle_tls_connection0Cs3Gqi3lF3rZv_16batch_ask_simple
FN:1362,_RNCNvNtCscNmhOS6QYVL_12kameo_remote6handle23handle_completed_stream0Cs3Gqi3lF3rZv_16batch_ask_simple
FN:1322,_RNCNvNtCscNmhOS6QYVL_12kameo_remote6handle23send_streaming_response0Cs3Gqi3lF3rZv_16batch_ask_simple
FN:2167,_RNCNvNtCscNmhOS6QYVL_12kameo_remote6handle29send_gossip_message_zero_copy0Cs3Gqi3lF3rZv_16batch_ask_simple
FN:360,_RNCNvNtCscNmhOS6QYVL_12kameo_remote6handle33start_gossip_server_with_listener0Cs3Gqi3lF3rZv_16batch_ask_simple
FN:1387,_RINvNtCscNmhOS6QYVL_12kameo_remote6handle25handle_streaming_v2_frameINtNtNtCsh4ISjvibZbV_5tokio2io5split8ReadHalfINtNtCsb3eVN0gIh2a_12tokio_rustls6server9TlsStreamNtNtNtNtB1b_3net3tcp6stream9TcpStreamEEECseMZ9mYNOGxi_25connection_lifecycle_test
FN:1551,_RINvNtCscNmhOS6QYVL_12kameo_remote6handle28read_message_from_tls_readerINtNtNtCsh4ISjvibZbV_5tokio2io5split8ReadHalfINtNtCsb3eVN0gIh2a_12tokio_rustls6server9TlsStreamNtNtNtNtB1e_3net3tcp6stream9TcpStreamEEECseMZ9mYNOGxi_25connection_lifecycle_test
FN:682,_RINvNtCscNmhOS6QYVL_12kameo_remote6handle30handle_incoming_connection_tlsINtNtNtCsh4ISjvibZbV_5tokio2io5split8ReadHalfINtNtCsb3eVN0gIh2a_12tokio_rustls6server9TlsStreamNtNtNtNtB1g_3net3tcp6stream9TcpStreamEEINtB1c_9WriteHalfB1S_EECseMZ9mYNOGxi_25connection_lifecycle_test
FN:1396,_RNCINvNtCscNmhOS6QYVL_12kameo_remote6handle25handle_streaming_v2_frameINtNtNtCsh4ISjvibZbV_5tokio2io5split8ReadHalfINtNtCsb3eVN0gIh2a_12tokio_rustls6server9TlsStreamNtNtNtNtB1d_3net3tcp6stream9TcpStreamEEE0CseMZ9mYNOGxi_25connection_lifecycle_test
FN:1557,_RNCINvNtCscNmhOS6QYVL_12kameo_remote6handle28read_message_from_tls_readerINtNtNtCsh4ISjvibZbV_5tokio2io5split8ReadHalfINtNtCsb3eVN0gIh2a_12tokio_rustls6server9TlsStreamNtNtNtNtB1g_3net3tcp6stream9TcpStreamEEE0CseMZ9mYNOGxi_25connection_lifecycle_test
FN:693,_RNCINvNtCscNmhOS6QYVL_12kameo_remote6handle30handle_incoming_connection_tlsINtNtNtCsh4ISjvibZbV_5tokio2io5split8ReadHalfINtNtCsb3eVN0gIh2a_12tokio_rustls6server9TlsStreamNtNtNtNtB1i_3net3tcp6stream9TcpStreamEEINtB1e_9WriteHalfB1U_EE0CseMZ9mYNOGxi_25connection_lifecycle_test
FN:887,_RNCNCINvNtCscNmhOS6QYVL_12kameo_remote6handle30handle_incoming_connection_tlsINtNtNtCsh4ISjvibZbV_5tokio2io5split8ReadHalfINtNtCsb3eVN0gIh2a_12tokio_rustls6server9TlsStreamNtNtNtNtB1k_3net3tcp6stream9TcpStreamEEINtB1g_9WriteHalfB1W_EE00CseMZ9mYNOGxi_25connection_lifecycle_test
FN:890,_RNCNCINvNtCscNmhOS6QYVL_12kameo_remote6handle30handle_incoming_connection_tlsINtNtNtCsh4ISjvibZbV_5tokio2io5split8ReadHalfINtNtCsb3eVN0gIh2a_12tokio_rustls6server9TlsStreamNtNtNtNtB1k_3net3tcp6stream9TcpStreamEEINtB1g_9WriteHalfB1W_EE0s_0CseMZ9mYNOGxi_25connection_lifecycle_test
FN:406,_RNCNCNCNvNtCscNmhOS6QYVL_12kameo_remote6handle18start_gossip_timer000CseMZ9mYNOGxi_25connection_lifecycle_test
FN:412,_RNCNCNCNvNtCscNmhOS6QYVL_12kameo_remote6handle18start_gossip_timer00s1_0CseMZ9mYNOGxi_25connection_lifecycle_test
FN:507,_RNCNCNCNvNtCscNmhOS6QYVL_12kameo_remote6handle18start_gossip_timer00s2_0CseMZ9mYNOGxi_25connection_lifecycle_test
FN:455,_RNCNCNCNvNtCscNmhOS6QYVL_12kameo_remote6handle18start_gossip_timer00s4_0CseMZ9mYNOGxi_25connection_lifecycle_test
FN:528,_RNCNCNCNvNtCscNmhOS6QYVL_12kameo_remote6handle18start_gossip_timer00s5_0CseMZ9mYNOGxi_25connection_lifecycle_test
FN:1327,_RNCNCNCNvNtCscNmhOS6QYVL_12kameo_remote6handle23send_streaming_response000CseMZ9mYNOGxi_25connection_lifecycle_test
FN:372,_RNCNCNCNvNtCscNmhOS6QYVL_12kameo_remote6handle33start_gossip_server_with_listener000CseMZ9mYNOGxi_25connection_lifecycle_test
FN:90,_RNCNCNvMNtCscNmhOS6QYVL_12kameo_remote6handleNtB6_20GossipRegistryHandle12new_with_tls00CseMZ9mYNOGxi_25connection_lifecycle_test
FN:98,_RNCNCNvMNtCscNmhOS6QYVL_12kameo_remote6handleNtB6_20GossipRegistryHandle12new_with_tls0s_0CseMZ9mYNOGxi_25connection_lifecycle_test
FN:596,_RNCNCNvNtCscNmhOS6QYVL_12kameo_remote6handle21handle_tls_connection00CseMZ9mYNOGxi_25connection_lifecycle_test
FN:603,_RNCNCNvNtCscNmhOS6QYVL_12kameo_remote6handle21handle_tls_connection0s0_0CseMZ9mYNOGxi_25connection_lifecycle_test
FN:637,_RNCNCNvNtCscNmhOS6QYVL_12kameo_remote6handle21handle_tls_connection0s1_0CseMZ9mYNOGxi_25connection_lifecycle_test
FN:602,_RNCNCNvNtCscNmhOS6QYVL_12kameo_remote6handle21handle_tls_connection0s_0CseMZ9mYNOGxi_25connection_lifecycle_test
FN:1325,_RNCNCNvNtCscNmhOS6QYVL_12kameo_remote6handle23send_streaming_response00CseMZ9mYNOGxi_25connection_lifecycle_test
FN:2174,_RNCNCNvNtCscNmhOS6QYVL_12kameo_remote6handle29send_gossip_message_zero_copy00CseMZ9mYNOGxi_25connection_lifecycle_test
FN:54,_RNCNvMNtCscNmhOS6QYVL_12kameo_remote6handleNtB4_20GossipRegistryHandle12new_with_tls0CseMZ9mYNOGxi_25connection_lifecycle_test
FN:234,_RNCNvMNtCscNmhOS6QYVL_12kameo_remote6handleNtB4_20GossipRegistryHandle14get_connection0CseMZ9mYNOGxi_25connection_lifecycle_test
FN:120,_RNCNvMNtCscNmhOS6QYVL_12kameo_remote6handleNtB4_20GossipRegistryHandle16new_with_keypair0CseMZ9mYNOGxi_25connection_lifecycle_test
FN:215,_RNCNvMNtCscNmhOS6QYVL_12kameo_remote6handleNtB4_20GossipRegistryHandle8add_peer0CseMZ9mYNOGxi_25connection_lifecycle_test
FN:341,_RNCNvMNtCscNmhOS6QYVL_12kameo_remote6handleNtB4_20GossipRegistryHandle8shutdown0CseMZ9mYNOGxi_25connection_lifecycle_test
FN:557,_RNCNvNtCscNmhOS6QYVL_12kameo_remote6handle17handle_connection0CseMZ9mYNOGxi_25connection_lifecycle_test
FN:385,_RNCNvNtCscNmhOS6QYVL_12kameo_remote6handle18start_gossip_timer0CseMZ9mYNOGxi_25connection_lifecycle_test
FN:591,_RNCNvNtCscNmhOS6QYVL_12kameo_remote6handle21handle_tls_connection0CseMZ9mYNOGxi_25connection_lifecycle_test
FN:1362,_RNCNvNtCscNmhOS6QYVL_12kameo_remote6handle23handle_completed_stream0CseMZ9mYNOGxi_25connection_lifecycle_test
FN:1322,_RNCNvNtCscNmhOS6QYVL_12kameo_remote6handle23send_streaming_response0CseMZ9mYNOGxi_25connection_lifecycle_test
FN:2167,_RNCNvNtCscNmhOS6QYVL_12kameo_remote6handle29send_gossip_message_zero_copy0CseMZ9mYNOGxi_25connection_lifecycle_test
FN:360,_RNCNvNtCscNmhOS6QYVL_12kameo_remote6handle33start_gossip_server_with_listener0CseMZ9mYNOGxi_25connection_lifecycle_test
FN:1387,_RINvNtCscNmhOS6QYVL_12kameo_remote6handle25handle_streaming_v2_frameINtNtNtCsh4ISjvibZbV_5tokio2io5split8ReadHalfINtNtCsb3eVN0gIh2a_12tokio_rustls6server9TlsStreamNtNtNtNtB1b_3net3tcp6stream9TcpStreamEEECsQ4Soct5oTX_21crypto_security_tests
FN:1551,_RINvNtCscNmhOS6QYVL_12kameo_remote6handle28read_message_from_tls_readerINtNtNtCsh4ISjvibZbV_5tokio2io5split8ReadHalfINtNtCsb3eVN0gIh2a_12tokio_rustls6server9TlsStreamNtNtNtNtB1e_3net3tcp6stream9TcpStreamEEECsQ4Soct5oTX_21crypto_security_tests
FN:682,_RINvNtCscNmhOS6QYVL_12kameo_remote6handle30handle_incoming_connection_tlsINtNtNtCsh4ISjvibZbV_5tokio2io5split8ReadHalfINtNtCsb3eVN0gIh2a_12tokio_rustls6server9TlsStreamNtNtNtNtB1g_3net3tcp6stream9TcpStreamEEINtB1c_9WriteHalfB1S_EECsQ4Soct5oTX_21crypto_security_tests
FN:1396,_RNCINvNtCscNmhOS6QYVL_12kameo_remote6handle25handle_streaming_v2_frameINtNtNtCsh4ISjvibZbV_5tokio2io5split8ReadHalfINtNtCsb3eVN0gIh2a_12tokio_rustls6server9TlsStreamNtNtNtNtB1d_3net3tcp6stream9TcpStreamEEE0CsQ4Soct5oTX_21crypto_security_tests
FN:1557,_RNCINvNtCscNmhOS6QYVL_12kameo_remote6handle28read_message_from_tls_readerINtNtNtCsh4ISjvibZbV_5tokio2io5split8ReadHalfINtNtCsb3eVN0gIh2a_12tokio_rustls6server9TlsStreamNtNtNtNtB1g_3net3tcp6stream9TcpStreamEEE0CsQ4Soct5oTX_21crypto_security_tests
FN:693,_RNCINvNtCscNmhOS6QYVL_12kameo_remote6handle30handle_incoming_connection_tlsINtNtNtCsh4ISjvibZbV_5tokio2io5split8ReadHalfINtNtCsb3eVN0gIh2a_12tokio_rustls6server9TlsStreamNtNtNtNtB1i_3net3tcp6stream9TcpStreamEEINtB1e_9WriteHalfB1U_EE0CsQ4Soct5oTX_21crypto_security_tests
FN:887,_RNCNCINvNtCscNmhOS6QYVL_12kameo_remote6handle30handle_incoming_connection_tlsINtNtNtCsh4ISjvibZbV_5tokio2io5split8ReadHalfINtNtCsb3eVN0gIh2a_12tokio_rustls6server9TlsStreamNtNtNtNtB1k_3net3tcp6stream9TcpStreamEEINtB1g_9WriteHalfB1W_EE00CsQ4Soct5oTX_21crypto_security_tests
FN:890,_RNCNCINvNtCscNmhOS6QYVL_12kameo_remote6handle30handle_incoming_connection_tlsINtNtNtCsh4ISjvibZbV_5tokio2io5split8ReadHalfINtNtCsb3eVN0gIh2a_12tokio_rustls6server9TlsStreamNtNtNtNtB1k_3net3tcp6stream9TcpStreamEEINtB1g_9WriteHalfB1W_EE0s_0CsQ4Soct5oTX_21crypto_security_tests
FN:406,_RNCNCNCNvNtCscNmhOS6QYVL_12kameo_remote6handle18start_gossip_timer000CsQ4Soct5oTX_21crypto_security_tests
FN:412,_RNCNCNCNvNtCscNmhOS6QYVL_12kameo_remote6handle18start_gossip_timer00s1_0CsQ4Soct5oTX_21crypto_security_tests
FN:507,_RNCNCNCNvNtCscNmhOS6QYVL_12kameo_remote6handle18start_gossip_timer00s2_0CsQ4Soct5oTX_21crypto_security_tests
FN:455,_RNCNCNCNvNtCscNmhOS6QYVL_12kameo_remote6handle18start_gossip_timer00s4_0CsQ4Soct5oTX_21crypto_security_tests
FN:528,_RNCNCNCNvNtCscNmhOS6QYVL_12kameo_remote6handle18start_gossip_timer00s5_0CsQ4Soct5oTX_21crypto_security_tests
FN:1327,_RNCNCNCNvNtCscNmhOS6QYVL_12kameo_remote6handle23send_streaming_response000CsQ4Soct5oTX_21crypto_security_tests
FN:372,_RNCNCNCNvNtCscNmhOS6QYVL_12kameo_remote6handle33start_gossip_server_with_listener000CsQ4Soct5oTX_21crypto_security_tests
FN:90,_RNCNCNvMNtCscNmhOS6QYVL_12kameo_remote6handleNtB6_20GossipRegistryHandle12new_with_tls00CsQ4Soct5oTX_21crypto_security_tests
FN:98,_RNCNCNvMNtCscNmhOS6QYVL_12kameo_remote6handleNtB6_20GossipRegistryHandle12new_with_tls0s_0CsQ4Soct5oTX_21crypto_security_tests
FN:596,_RNCNCNvNtCscNmhOS6QYVL_12kameo_remote6handle21handle_tls_connection00CsQ4Soct5oTX_21crypto_security_tests
FN:603,_RNCNCNvNtCscNmhOS6QYVL_12kameo_remote6handle21handle_tls_connection0s0_0CsQ4Soct5oTX_21crypto_security_tests
FN:637,_RNCNCNvNtCscNmhOS6QYVL_12kameo_remote6handle21handle_tls_connection0s1_0CsQ4Soct5oTX_21crypto_security_tests
FN:602,_RNCNCNvNtCscNmhOS6QYVL_12kameo_remote6handle21handle_tls_connection0s_0CsQ4Soct5oTX_21crypto_security_tests
FN:1325,_RNCNCNvNtCscNmhOS6QYVL_12kameo_remote6handle23send_streaming_response00CsQ4Soct5oTX_21crypto_security_tests
FN:2174,_RNCNCNvNtCscNmhOS6QYVL_12kameo_remote6handle29send_gossip_message_zero_copy00CsQ4Soct5oTX_21crypto_security_tests
FN:54,_RNCNvMNtCscNmhOS6QYVL_12kameo_remote6handleNtB4_20GossipRegistryHandle12new_with_tls0CsQ4Soct5oTX_21crypto_security_tests
FN:120,_RNCNvMNtCscNmhOS6QYVL_12kameo_remote6handleNtB4_20GossipRegistryHandle16new_with_keypair0CsQ4Soct5oTX_21crypto_security_tests
FN:215,_RNCNvMNtCscNmhOS6QYVL_12kameo_remote6handleNtB4_20GossipRegistryHandle8add_peer0CsQ4Soct5oTX_21crypto_security_tests
FN:341,_RNCNvMNtCscNmhOS6QYVL_12kameo_remote6handleNtB4_20GossipRegistryHandle8shutdown0CsQ4Soct5oTX_21crypto_security_tests
FN:557,_RNCNvNtCscNmhOS6QYVL_12kameo_remote6handle17handle_connection0CsQ4Soct5oTX_21crypto_security_tests
FN:385,_RNCNvNtCscNmhOS6QYVL_12kameo_remote6handle18start_gossip_timer0CsQ4Soct5oTX_21crypto_security_tests
FN:591,_RNCNvNtCscNmhOS6QYVL_12kameo_remote6handle21handle_tls_connection0CsQ4Soct5oTX_21crypto_security_tests
FN:1362,_RNCNvNtCscNmhOS6QYVL_12kameo_remote6handle23handle_completed_stream0CsQ4Soct5oTX_21crypto_security_tests
FN:1322,_RNCNvNtCscNmhOS6QYVL_12kameo_remote6handle23send_streaming_response0CsQ4Soct5oTX_21crypto_security_tests
FN:2167,_RNCNvNtCscNmhOS6QYVL_12kameo_remote6handle29send_gossip_message_zero_copy0CsQ4Soct5oTX_21crypto_security_tests
FN:360,_RNCNvNtCscNmhOS6QYVL_12kameo_remote6handle33start_gossip_server_with_listener0CsQ4Soct5oTX_21crypto_security_tests
FN:1387,_RINvNtCscNmhOS6QYVL_12kameo_remote6handle25handle_streaming_v2_frameINtNtNtCsh4ISjvibZbV_5tokio2io5split8ReadHalfINtNtCsb3eVN0gIh2a_12tokio_rustls6server9TlsStreamNtNtNtNtB1b_3net3tcp6stream9TcpStreamEEECs4cwBtOJSvgn_19gossip_conflict_e2e
FN:1551,_RINvNtCscNmhOS6QYVL_12kameo_remote6handle28read_message_from_tls_readerINtNtNtCsh4ISjvibZbV_5tokio2io5split8ReadHalfINtNtCsb3eVN0gIh2a_12tokio_rustls6server9TlsStreamNtNtNtNtB1e_3net3tcp6stream9TcpStreamEEECs4cwBtOJSvgn_19gossip_conflict_e2e
FN:682,_RINvNtCscNmhOS6QYVL_12kameo_remote6handle30handle_incoming_connection_tlsINtNtNtCsh4ISjvibZbV_5tokio2io5split8ReadHalfINtNtCsb3eVN0gIh2a_12tokio_rustls6server9TlsStreamNtNtNtNtB1g_3net3tcp6stream9TcpStreamEEINtB1c_9WriteHalfB1S_EECs4cwBtOJSvgn_19gossip_conflict_e2e
FN:1396,_RNCINvNtCscNmhOS6QYVL_12kameo_remote6handle25handle_streaming_v2_frameINtNtNtCsh4ISjvibZbV_5tokio2io5split8ReadHalfINtNtCsb3eVN0gIh2a_12tokio_rustls6server9TlsStreamNtNtNtNtB1d_3net3tcp6stream9TcpStreamEEE0Cs4cwBtOJSvgn_19gossip_conflict_e2e
FN:1557,_RNCINvNtCscNmhOS6QYVL_12kameo_remote6handle28read_message_from_tls_readerINtNtNtCsh4ISjvibZbV_5tokio2io5split8ReadHalfINtNtCsb3eVN0gIh2a_12tokio_rustls6server9TlsStreamNtNtNtNtB1g_3net3tcp6stream9TcpStreamEEE0Cs4cwBtOJSvgn_19gossip_conflict_e2e
FN:693,_RNCINvNtCscNmhOS6QYVL_12kameo_remote6handle30handle_incoming_connection_tlsINtNtNtCsh4ISjvibZbV_5tokio2io5split8ReadHalfINtNtCsb3eVN0gIh2a_12tokio_rustls6server9TlsStreamNtNtNtNtB1i_3net3tcp6stream9TcpStreamEEINtB1e_9WriteHalfB1U_EE0Cs4cwBtOJSvgn_19gossip_conflict_e2e
FN:887,_RNCNCINvNtCscNmhOS6QYVL_12kameo_remote6handle30handle_incoming_connection_tlsINtNtNtCsh4ISjvibZbV_5tokio2io5split8ReadHalfINtNtCsb3eVN0gIh2a_12tokio_rustls6server9TlsStreamNtNtNtNtB1k_3net3tcp6stream9TcpStreamEEINtB1g_9WriteHalfB1W_EE00Cs4cwBtOJSvgn_19gossip_conflict_e2e
FN:890,_RNCNCINvNtCscNmhOS6QYVL_12kameo_remote6handle30handle_incoming_connection_tlsINtNtNtCsh4ISjvibZbV_5tokio2io5split8ReadHalfINtNtCsb3eVN0gIh2a_12tokio_rustls6server9TlsStreamNtNtNtNtB1k_3net3tcp6stream9TcpStreamEEINtB1g_9WriteHalfB1W_EE0s_0Cs4cwBtOJSvgn_19gossip_conflict_e2e
FN:406,_RNCNCNCNvNtCscNmhOS6QYVL_12kameo_remote6handle18start_gossip_timer000Cs4cwBtOJSvgn_19gossip_conflict_e2e
FN:412,_RNCNCNCNvNtCscNmhOS6QYVL_12kameo_remote6handle18start_gossip_timer00s1_0Cs4cwBtOJSvgn_19gossip_conflict_e2e
FN:507,_RNCNCNCNvNtCscNmhOS6QYVL_12kameo_remote6handle18start_gossip_timer00s2_0Cs4cwBtOJSvgn_19gossip_conflict_e2e
FN:455,_RNCNCNCNvNtCscNmhOS6QYVL_12kameo_remote6handle18start_gossip_timer00s4_0Cs4cwBtOJSvgn_19gossip_conflict_e2e
FN:528,_RNCNCNCNvNtCscNmhOS6QYVL_12kameo_remote6handle18start_gossip_timer00s5_0Cs4cwBtOJSvgn_19gossip_conflict_e2e
FN:1327,_RNCNCNCNvNtCscNmhOS6QYVL_12kameo_remote6handle23send_streaming_response000Cs4cwBtOJSvgn_19gossip_conflict_e2e
FN:372,_RNCNCNCNvNtCscNmhOS6QYVL_12kameo_remote6handle33start_gossip_server_with_listener000Cs4cwBtOJSvgn_19gossip_conflict_e2e
FN:90,_RNCNCNvMNtCscNmhOS6QYVL_12kameo_remote6handleNtB6_20GossipRegistryHandle12new_with_tls00Cs4cwBtOJSvgn_19gossip_conflict_e2e
FN:98,_RNCNCNvMNtCscNmhOS6QYVL_12kameo_remote6handleNtB6_20GossipRegistryHandle12new_with_tls0s_0Cs4cwBtOJSvgn_19gossip_conflict_e2e
FN:596,_RNCNCNvNtCscNmhOS6QYVL_12kameo_remote6handle21handle_tls_connection00Cs4cwBtOJSvgn_19gossip_conflict_e2e
FN:603,_RNCNCNvNtCscNmhOS6QYVL_12kameo_remote6handle21handle_tls_connection0s0_0Cs4cwBtOJSvgn_19gossip_conflict_e2e
FN:637,_RNCNCNvNtCscNmhOS6QYVL_12kameo_remote6handle21handle_tls_connection0s1_0Cs4cwBtOJSvgn_19gossip_conflict_e2e
FN:602,_RNCNCNvNtCscNmhOS6QYVL_12kameo_remote6handle21handle_tls_connection0s_0Cs4cwBtOJSvgn_19gossip_conflict_e2e
FN:1325,_RNCNCNvNtCscNmhOS6QYVL_12kameo_remote6handle23send_streaming_response00Cs4cwBtOJSvgn_19gossip_conflict_e2e
FN:2174,_RNCNCNvNtCscNmhOS6QYVL_12kameo_remote6handle29send_gossip_message_zero_copy00Cs4cwBtOJSvgn_19gossip_conflict_e2e
FN:54,_RNCNvMNtCscNmhOS6QYVL_12kameo_remote6handleNtB4_20GossipRegistryHandle12new_with_tls0Cs4cwBtOJSvgn_19gossip_conflict_e2e
FN:210,_RNCNvMNtCscNmhOS6QYVL_12kameo_remote6handleNtB4_20GossipRegistryHandle5stats0Cs4cwBtOJSvgn_19gossip_conflict_e2e
FN:205,_RNCNvMNtCscNmhOS6QYVL_12kameo_remote6handleNtB4_20GossipRegistryHandle6lookup0Cs4cwBtOJSvgn_19gossip_conflict_e2e
FN:215,_RNCNvMNtCscNmhOS6QYVL_12kameo_remote6handleNtB4_20GossipRegistryHandle8add_peer0Cs4cwBtOJSvgn_19gossip_conflict_e2e
FN:149,_RNCNvMNtCscNmhOS6QYVL_12kameo_remote6handleNtB4_20GossipRegistryHandle8register0Cs4cwBtOJSvgn_19gossip_conflict_e2e
FN:341,_RNCNvMNtCscNmhOS6QYVL_12kameo_remote6handleNtB4_20GossipRegistryHandle8shutdown0Cs4cwBtOJSvgn_19gossip_conflict_e2e
FN:557,_RNCNvNtCscNmhOS6QYVL_12kameo_remote6handle17handle_connection0Cs4cwBtOJSvgn_19gossip_conflict_e2e
FN:385,_RNCNvNtCscNmhOS6QYVL_12kameo_remote6handle18start_gossip_timer0Cs4cwBtOJSvgn_19gossip_conflict_e2e
FN:591,_RNCNvNtCscNmhOS6QYVL_12kameo_remote6handle21handle_tls_connection0Cs4cwBtOJSvgn_19gossip_conflict_e2e
FN:1362,_RNCNvNtCscNmhOS6QYVL_12kameo_remote6handle23handle_completed_stream0Cs4cwBtOJSvgn_19gossip_conflict_e2e
FN:1322,_RNCNvNtCscNmhOS6QYVL_12kameo_remote6handle23send_streaming_response0Cs4cwBtOJSvgn_19gossip_conflict_e2e
FN:2167,_RNCNvNtCscNmhOS6QYVL_12kameo_remote6handle29send_gossip_message_zero_copy0Cs4cwBtOJSvgn_19gossip_conflict_e2e
FN:360,_RNCNvNtCscNmhOS6QYVL_12kameo_remote6handle33start_gossip_server_with_listener0Cs4cwBtOJSvgn_19gossip_conflict_e2e
FN:1387,_RINvNtCscNmhOS6QYVL_12kameo_remote6handle25handle_streaming_v2_frameINtNtNtCsh4ISjvibZbV_5tokio2io5split8ReadHalfINtNtCsb3eVN0gIh2a_12tokio_rustls6server9TlsStreamNtNtNtNtB1b_3net3tcp6stream9TcpStreamEEECs1ne0vv3Fhzm_16gossip_e2e_tests
FN:1551,_RINvNtCscNmhOS6QYVL_12kameo_remote6handle28read_message_from_tls_readerINtNtNtCsh4ISjvibZbV_5tokio2io5split8ReadHalfINtNtCsb3eVN0gIh2a_12tokio_rustls6server9TlsStreamNtNtNtNtB1e_3net3tcp6stream9TcpStreamEEECs1ne0vv3Fhzm_16gossip_e2e_tests
FN:682,_RINvNtCscNmhOS6QYVL_12kameo_remote6handle30handle_incoming_connection_tlsINtNtNtCsh4ISjvibZbV_5tokio2io5split8ReadHalfINtNtCsb3eVN0gIh2a_12tokio_rustls6server9TlsStreamNtNtNtNtB1g_3net3tcp6stream9TcpStreamEEINtB1c_9WriteHalfB1S_EECs1ne0vv3Fhzm_16gossip_e2e_tests
FN:1396,_RNCINvNtCscNmhOS6QYVL_12kameo_remote6handle25handle_streaming_v2_frameINtNtNtCsh4ISjvibZbV_5tokio2io5split8ReadHalfINtNtCsb3eVN0gIh2a_12tokio_rustls6server9TlsStreamNtNtNtNtB1d_3net3tcp6stream9TcpStreamEEE0Cs1ne0vv3Fhzm_16gossip_e2e_tests
FN:1557,_RNCINvNtCscNmhOS6QYVL_12kameo_remote6handle28read_message_from_tls_readerINtNtNtCsh4ISjvibZbV_5tokio2io5split8ReadHalfINtNtCsb3eVN0gIh2a_12tokio_rustls6server9TlsStreamNtNtNtNtB1g_3net3tcp6stream9TcpStreamEEE0Cs1ne0vv3Fhzm_16gossip_e2e_tests
FN:693,_RNCINvNtCscNmhOS6QYVL_12kameo_remote6handle30handle_incoming_connection_tlsINtNtNtCsh4ISjvibZbV_5tokio2io5split8ReadHalfINtNtCsb3eVN0gIh2a_12tokio_rustls6server9TlsStreamNtNtNtNtB1i_3net3tcp6stream9TcpStreamEEINtB1e_9WriteHalfB1U_EE0Cs1ne0vv3Fhzm_16gossip_e2e_tests
FN:887,_RNCNCINvNtCscNmhOS6QYVL_12kameo_remote6handle30handle_incoming_connection_tlsINtNtNtCsh4ISjvibZbV_5tokio2io5split8ReadHalfINtNtCsb3eVN0gIh2a_12tokio_rustls6server9TlsStreamNtNtNtNtB1k_3net3tcp6stream9TcpStreamEEINtB1g_9WriteHalfB1W_EE00Cs1ne0vv3Fhzm_16gossip_e2e_tests
FN:890,_RNCNCINvNtCscNmhOS6QYVL_12kameo_remote6handle30handle_incoming_connection_tlsINtNtNtCsh4ISjvibZbV_5tokio2io5split8ReadHalfINtNtCsb3eVN0gIh2a_12tokio_rustls6server9TlsStreamNtNtNtNtB1k_3net3tcp6stream9TcpStreamEEINtB1g_9WriteHalfB1W_EE0s_0Cs1ne0vv3Fhzm_16gossip_e2e_tests
FN:406,_RNCNCNCNvNtCscNmhOS6QYVL_12kameo_remote6handle18start_gossip_timer000Cs1ne0vv3Fhzm_16gossip_e2e_tests
FN:412,_RNCNCNCNvNtCscNmhOS6QYVL_12kameo_remote6handle18start_gossip_timer00s1_0Cs1ne0vv3Fhzm_16gossip_e2e_tests
FN:507,_RNCNCNCNvNtCscNmhOS6QYVL_12kameo_remote6handle18start_gossip_timer00s2_0Cs1ne0vv3Fhzm_16gossip_e2e_tests
FN:455,_RNCNCNCNvNtCscNmhOS6QYVL_12kameo_remote6handle18start_gossip_timer00s4_0Cs1ne0vv3Fhzm_16gossip_e2e_tests
FN:528,_RNCNCNCNvNtCscNmhOS6QYVL_12kameo_remote6handle18start_gossip_timer00s5_0Cs1ne0vv3Fhzm_16gossip_e2e_tests
FN:1327,_RNCNCNCNvNtCscNmhOS6QYVL_12kameo_remote6handle23send_streaming_response000Cs1ne0vv3Fhzm_16gossip_e2e_tests
FN:372,_RNCNCNCNvNtCscNmhOS6QYVL_12kameo_remote6handle33start_gossip_server_with_listener000Cs1ne0vv3Fhzm_16gossip_e2e_tests
FN:90,_RNCNCNvMNtCscNmhOS6QYVL_12kameo_remote6handleNtB6_20GossipRegistryHandle12new_with_tls00Cs1ne0vv3Fhzm_16gossip_e2e_tests
FN:98,_RNCNCNvMNtCscNmhOS6QYVL_12kameo_remote6handleNtB6_20GossipRegistryHandle12new_with_tls0s_0Cs1ne0vv3Fhzm_16gossip_e2e_tests
FN:596,_RNCNCNvNtCscNmhOS6QYVL_12kameo_remote6handle21handle_tls_connection00Cs1ne0vv3Fhzm_16gossip_e2e_tests
FN:603,_RNCNCNvNtCscNmhOS6QYVL_12kameo_remote6handle21handle_tls_connection0s0_0Cs1ne0vv3Fhzm_16gossip_e2e_tests
FN:637,_RNCNCNvNtCscNmhOS6QYVL_12kameo_remote6handle21handle_tls_connection0s1_0Cs1ne0vv3Fhzm_16gossip_e2e_tests
FN:602,_RNCNCNvNtCscNmhOS6QYVL_12kameo_remote6handle21handle_tls_connection0s_0Cs1ne0vv3Fhzm_16gossip_e2e_tests
FN:1325,_RNCNCNvNtCscNmhOS6QYVL_12kameo_remote6handle23send_streaming_response00Cs1ne0vv3Fhzm_16gossip_e2e_tests
FN:2174,_RNCNCNvNtCscNmhOS6QYVL_12kameo_remote6handle29send_gossip_message_zero_copy00Cs1ne0vv3Fhzm_16gossip_e2e_tests
FN:54,_RNCNvMNtCscNmhOS6QYVL_12kameo_remote6handleNtB4_20GossipRegistryHandle12new_with_tls0Cs1ne0vv3Fhzm_16gossip_e2e_tests
FN:190,_RNCNvMNtCscNmhOS6QYVL_12kameo_remote6handleNtB4_20GossipRegistryHandle22register_with_priority0Cs1ne0vv3Fhzm_16gossip_e2e_tests
FN:210,_RNCNvMNtCscNmhOS6QYVL_12kameo_remote6handleNtB4_20GossipRegistryHandle5stats0Cs1ne0vv3Fhzm_16gossip_e2e_tests
FN:205,_RNCNvMNtCscNmhOS6QYVL_12kameo_remote6handleNtB4_20GossipRegistryHandle6lookup0Cs1ne0vv3Fhzm_16gossip_e2e_tests
FN:149,_RNCNvMNtCscNmhOS6QYVL_12kameo_remote6handleNtB4_20GossipRegistryHandle8register0Cs1ne0vv3Fhzm_16gossip_e2e_tests
FN:341,_RNCNvMNtCscNmhOS6QYVL_12kameo_remote6handleNtB4_20GossipRegistryHandle8shutdown0Cs1ne0vv3Fhzm_16gossip_e2e_tests
FN:256,_RNCNvMNtCscNmhOS6QYVL_12kameo_remote6handleNtB4_20GossipRegistryHandle9bootstrap0Cs1ne0vv3Fhzm_16gossip_e2e_tests
FN:557,_RNCNvNtCscNmhOS6QYVL_12kameo_remote6handle17handle_connection0Cs1ne0vv3Fhzm_16gossip_e2e_tests
FN:385,_RNCNvNtCscNmhOS6QYVL_12kameo_remote6handle18start_gossip_timer0Cs1ne0vv3Fhzm_16gossip_e2e_tests
FN:591,_RNCNvNtCscNmhOS6QYVL_12kameo_remote6handle21handle_tls_connection0Cs1ne0vv3Fhzm_16gossip_e2e_tests
FN:1362,_RNCNvNtCscNmhOS6QYVL_12kameo_remote6handle23handle_completed_stream0Cs1ne0vv3Fhzm_16gossip_e2e_tests
FN:1322,_RNCNvNtCscNmhOS6QYVL_12kameo_remote6handle23send_streaming_response0Cs1ne0vv3Fhzm_16gossip_e2e_tests
FN:2167,_RNCNvNtCscNmhOS6QYVL_12kameo_remote6handle29send_gossip_message_zero_copy0Cs1ne0vv3Fhzm_16gossip_e2e_tests
FN:360,_RNCNvNtCscNmhOS6QYVL_12kameo_remote6handle33start_gossip_server_with_listener0Cs1ne0vv3Fhzm_16gossip_e2e_tests
FN:1387,_RINvNtCscNmhOS6QYVL_12kameo_remote6handle25handle_streaming_v2_frameINtNtNtCsh4ISjvibZbV_5tokio2io5split8ReadHalfINtNtCsb3eVN0gIh2a_12tokio_rustls6server9TlsStreamNtNtNtNtB1b_3net3tcp6stream9TcpStreamEEECs8rLwhA5jnOy_17gossip_matrix_e2e
FN:1551,_RINvNtCscNmhOS6QYVL_12kameo_remote6handle28read_message_from_tls_readerINtNtNtCsh4ISjvibZbV_5tokio2io5split8ReadHalfINtNtCsb3eVN0gIh2a_12tokio_rustls6server9TlsStreamNtNtNtNtB1e_3net3tcp6stream9TcpStreamEEECs8rLwhA5jnOy_17gossip_matrix_e2e
FN:682,_RINvNtCscNmhOS6QYVL_12kameo_remote6handle30handle_incoming_connection_tlsINtNtNtCsh4ISjvibZbV_5tokio2io5split8ReadHalfINtNtCsb3eVN0gIh2a_12tokio_rustls6server9TlsStreamNtNtNtNtB1g_3net3tcp6stream9TcpStreamEEINtB1c_9WriteHalfB1S_EECs8rLwhA5jnOy_17gossip_matrix_e2e
FN:1396,_RNCINvNtCscNmhOS6QYVL_12kameo_remote6handle25handle_streaming_v2_frameINtNtNtCsh4ISjvibZbV_5tokio2io5split8ReadHalfINtNtCsb3eVN0gIh2a_12tokio_rustls6server9TlsStreamNtNtNtNtB1d_3net3tcp6stream9TcpStreamEEE0Cs8rLwhA5jnOy_17gossip_matrix_e2e
FN:1557,_RNCINvNtCscNmhOS6QYVL_12kameo_remote6handle28read_message_from_tls_readerINtNtNtCsh4ISjvibZbV_5tokio2io5split8ReadHalfINtNtCsb3eVN0gIh2a_12tokio_rustls6server9TlsStreamNtNtNtNtB1g_3net3tcp6stream9TcpStreamEEE0Cs8rLwhA5jnOy_17gossip_matrix_e2e
FN:693,_RNCINvNtCscNmhOS6QYVL_12kameo_remote6handle30handle_incoming_connection_tlsINtNtNtCsh4ISjvibZbV_5tokio2io5split8ReadHalfINtNtCsb3eVN0gIh2a_12tokio_rustls6server9TlsStreamNtNtNtNtB1i_3net3tcp6stream9TcpStreamEEINtB1e_9WriteHalfB1U_EE0Cs8rLwhA5jnOy_17gossip_matrix_e2e
FN:887,_RNCNCINvNtCscNmhOS6QYVL_12kameo_remote6handle30handle_incoming_connection_tlsINtNtNtCsh4ISjvibZbV_5tokio2io5split8ReadHalfINtNtCsb3eVN0gIh2a_12tokio_rustls6server9TlsStreamNtNtNtNtB1k_3net3tcp6stream9TcpStreamEEINtB1g_9WriteHalfB1W_EE00Cs8rLwhA5jnOy_17gossip_matrix_e2e
FN:890,_RNCNCINvNtCscNmhOS6QYVL_12kameo_remote6handle30handle_incoming_connection_tlsINtNtNtCsh4ISjvibZbV_5tokio2io5split8ReadHalfINtNtCsb3eVN0gIh2a_12tokio_rustls6server9TlsStreamNtNtNtNtB1k_3net3tcp6stream9TcpStreamEEINtB1g_9WriteHalfB1W_EE0s_0Cs8rLwhA5jnOy_17gossip_matrix_e2e
FN:406,_RNCNCNCNvNtCscNmhOS6QYVL_12kameo_remote6handle18start_gossip_timer000Cs8rLwhA5jnOy_17gossip_matrix_e2e
FN:412,_RNCNCNCNvNtCscNmhOS6QYVL_12kameo_remote6handle18start_gossip_timer00s1_0Cs8rLwhA5jnOy_17gossip_matrix_e2e
FN:507,_RNCNCNCNvNtCscNmhOS6QYVL_12kameo_remote6handle18start_gossip_timer00s2_0Cs8rLwhA5jnOy_17gossip_matrix_e2e
FN:455,_RNCNCNCNvNtCscNmhOS6QYVL_12kameo_remote6handle18start_gossip_timer00s4_0Cs8rLwhA5jnOy_17gossip_matrix_e2e
FN:528,_RNCNCNCNvNtCscNmhOS6QYVL_12kameo_remote6handle18start_gossip_timer00s5_0Cs8rLwhA5jnOy_17gossip_matrix_e2e
FN:1327,_RNCNCNCNvNtCscNmhOS6QYVL_12kameo_remote6handle23send_streaming_response000Cs8rLwhA5jnOy_17gossip_matrix_e2e
FN:372,_RNCNCNCNvNtCscNmhOS6QYVL_12kameo_remote6handle33start_gossip_server_with_listener000Cs8rLwhA5jnOy_17gossip_matrix_e2e
FN:90,_RNCNCNvMNtCscNmhOS6QYVL_12kameo_remote6handleNtB6_20GossipRegistryHandle12new_with_tls00Cs8rLwhA5jnOy_17gossip_matrix_e2e
FN:98,_RNCNCNvMNtCscNmhOS6QYVL_12kameo_remote6handleNtB6_20GossipRegistryHandle12new_with_tls0s_0Cs8rLwhA5jnOy_17gossip_matrix_e2e
FN:596,_RNCNCNvNtCscNmhOS6QYVL_12kameo_remote6handle21handle_tls_connection00Cs8rLwhA5jnOy_17gossip_matrix_e2e
FN:603,_RNCNCNvNtCscNmhOS6QYVL_12kameo_remote6handle21handle_tls_connection0s0_0Cs8rLwhA5jnOy_17gossip_matrix_e2e
FN:637,_RNCNCNvNtCscNmhOS6QYVL_12kameo_remote6handle21handle_tls_connection0s1_0Cs8rLwhA5jnOy_17gossip_matrix_e2e
FN:602,_RNCNCNvNtCscNmhOS6QYVL_12kameo_remote6handle21handle_tls_connection0s_0Cs8rLwhA5jnOy_17gossip_matrix_e2e
FN:1325,_RNCNCNvNtCscNmhOS6QYVL_12kameo_remote6handle23send_streaming_response00Cs8rLwhA5jnOy_17gossip_matrix_e2e
FN:2174,_RNCNCNvNtCscNmhOS6QYVL_12kameo_remote6handle29send_gossip_message_zero_copy00Cs8rLwhA5jnOy_17gossip_matrix_e2e
FN:54,_RNCNvMNtCscNmhOS6QYVL_12kameo_remote6handleNtB4_20GossipRegistryHandle12new_with_tls0Cs8rLwhA5jnOy_17gossip_matrix_e2e
FN:175,_RNCNvMNtCscNmhOS6QYVL_12kameo_remote6handleNtB4_20GossipRegistryHandle15register_urgent0Cs8rLwhA5jnOy_17gossip_matrix_e2e
FN:210,_RNCNvMNtCscNmhOS6QYVL_12kameo_remote6handleNtB4_20GossipRegistryHandle5stats0Cs8rLwhA5jnOy_17gossip_matrix_e2e
FN:205,_RNCNvMNtCscNmhOS6QYVL_12kameo_remote6handleNtB4_20GossipRegistryHandle6lookup0Cs8rLwhA5jnOy_17gossip_matrix_e2e
FN:215,_RNCNvMNtCscNmhOS6QYVL_12kameo_remote6handleNtB4_20GossipRegistryHandle8add_peer0Cs8rLwhA5jnOy_17gossip_matrix_e2e
FN:341,_RNCNvMNtCscNmhOS6QYVL_12kameo_remote6handleNtB4_20GossipRegistryHandle8shutdown0Cs8rLwhA5jnOy_17gossip_matrix_e2e
FN:557,_RNCNvNtCscNmhOS6QYVL_12kameo_remote6handle17handle_connection0Cs8rLwhA5jnOy_17gossip_matrix_e2e
FN:385,_RNCNvNtCscNmhOS6QYVL_12kameo_remote6handle18start_gossip_timer0Cs8rLwhA5jnOy_17gossip_matrix_e2e
FN:591,_RNCNvNtCscNmhOS6QYVL_12kameo_remote6handle21handle_tls_connection0Cs8rLwhA5jnOy_17gossip_matrix_e2e
FN:1362,_RNCNvNtCscNmhOS6QYVL_12kameo_remote6handle23handle_completed_stream0Cs8rLwhA5jnOy_17gossip_matrix_e2e
FN:1322,_RNCNvNtCscNmhOS6QYVL_12kameo_remote6handle23send_streaming_response0Cs8rLwhA5jnOy_17gossip_matrix_e2e
FN:2167,_RNCNvNtCscNmhOS6QYVL_12kameo_remote6handle29send_gossip_message_zero_copy0Cs8rLwhA5jnOy_17gossip_matrix_e2e
FN:360,_RNCNvNtCscNmhOS6QYVL_12kameo_remote6handle33start_gossip_server_with_listener0Cs8rLwhA5jnOy_17gossip_matrix_e2e
FN:1387,_RINvNtCscNmhOS6QYVL_12kameo_remote6handle25handle_streaming_v2_frameINtNtNtCsh4ISjvibZbV_5tokio2io5split8ReadHalfINtNtCsb3eVN0gIh2a_12tokio_rustls6server9TlsStreamNtNtNtNtB1b_3net3tcp6stream9TcpStreamEEECs8Yv4B2eQpLz_20gossip_partition_e2e
FN:1551,_RINvNtCscNmhOS6QYVL_12kameo_remote6handle28read_message_from_tls_readerINtNtNtCsh4ISjvibZbV_5tokio2io5split8ReadHalfINtNtCsb3eVN0gIh2a_12tokio_rustls6server9TlsStreamNtNtNtNtB1e_3net3tcp6stream9TcpStreamEEECs8Yv4B2eQpLz_20gossip_partition_e2e
FN:682,_RINvNtCscNmhOS6QYVL_12kameo_remote6handle30handle_incoming_connection_tlsINtNtNtCsh4ISjvibZbV_5tokio2io5split8ReadHalfINtNtCsb3eVN0gIh2a_12tokio_rustls6server9TlsStreamNtNtNtNtB1g_3net3tcp6stream9TcpStreamEEINtB1c_9WriteHalfB1S_EECs8Yv4B2eQpLz_20gossip_partition_e2e
FN:1396,_RNCINvNtCscNmhOS6QYVL_12kameo_remote6handle25handle_streaming_v2_frameINtNtNtCsh4ISjvibZbV_5tokio2io5split8ReadHalfINtNtCsb3eVN0gIh2a_12tokio_rustls6server9TlsStreamNtNtNtNtB1d_3net3tcp6stream9TcpStreamEEE0Cs8Yv4B2eQpLz_20gossip_partition_e2e
FN:1557,_RNCINvNtCscNmhOS6QYVL_12kameo_remote6handle28read_message_from_tls_readerINtNtNtCsh4ISjvibZbV_5tokio2io5split8ReadHalfINtNtCsb3eVN0gIh2a_12tokio_rustls6server9TlsStreamNtNtNtNtB1g_3net3tcp6stream9TcpStreamEEE0Cs8Yv4B2eQpLz_20gossip_partition_e2e
FN:693,_RNCINvNtCscNmhOS6QYVL_12kameo_remote6handle30handle_incoming_connection_tlsINtNtNtCsh4ISjvibZbV_5tokio2io5split8ReadHalfINtNtCsb3eVN0gIh2a_12tokio_rustls6server9TlsStreamNtNtNtNtB1i_3net3tcp6stream9TcpStreamEEINtB1e_9WriteHalfB1U_EE0Cs8Yv4B2eQpLz_20gossip_partition_e2e
FN:887,_RNCNCINvNtCscNmhOS6QYVL_12kameo_remote6handle30handle_incoming_connection_tlsINtNtNtCsh4ISjvibZbV_5tokio2io5split8ReadHalfINtNtCsb3eVN0gIh2a_12tokio_rustls6server9TlsStreamNtNtNtNtB1k_3net3tcp6stream9TcpStreamEEINtB1g_9WriteHalfB1W_EE00Cs8Yv4B2eQpLz_20gossip_partition_e2e
FN:890,_RNCNCINvNtCscNmhOS6QYVL_12kameo_remote6handle30handle_incoming_connection_tlsINtNtNtCsh4ISjvibZbV_5tokio2io5split8ReadHalfINtNtCsb3eVN0gIh2a_12tokio_rustls6server9TlsStreamNtNtNtNtB1k_3net3tcp6stream9TcpStreamEEINtB1g_9WriteHalfB1W_EE0s_0Cs8Yv4B2eQpLz_20gossip_partition_e2e
FN:406,_RNCNCNCNvNtCscNmhOS6QYVL_12kameo_remote6handle18start_gossip_timer000Cs8Yv4B2eQpLz_20gossip_partition_e2e
FN:412,_RNCNCNCNvNtCscNmhOS6QYVL_12kameo_remote6handle18start_gossip_timer00s1_0Cs8Yv4B2eQpLz_20gossip_partition_e2e
FN:507,_RNCNCNCNvNtCscNmhOS6QYVL_12kameo_remote6handle18start_gossip_timer00s2_0Cs8Yv4B2eQpLz_20gossip_partition_e2e
FN:455,_RNCNCNCNvNtCscNmhOS6QYVL_12kameo_remote6handle18start_gossip_timer00s4_0Cs8Yv4B2eQpLz_20gossip_partition_e2e
FN:528,_RNCNCNCNvNtCscNmhOS6QYVL_12kameo_remote6handle18start_gossip_timer00s5_0Cs8Yv4B2eQpLz_20gossip_partition_e2e
FN:1327,_RNCNCNCNvNtCscNmhOS6QYVL_12kameo_remote6handle23send_streaming_response000Cs8Yv4B2eQpLz_20gossip_partition_e2e
FN:372,_RNCNCNCNvNtCscNmhOS6QYVL_12kameo_remote6handle33start_gossip_server_with_listener000Cs8Yv4B2eQpLz_20gossip_partition_e2e
FN:90,_RNCNCNvMNtCscNmhOS6QYVL_12kameo_remote6handleNtB6_20GossipRegistryHandle12new_with_tls00Cs8Yv4B2eQpLz_20gossip_partition_e2e
FN:98,_RNCNCNvMNtCscNmhOS6QYVL_12kameo_remote6handleNtB6_20GossipRegistryHandle12new_with_tls0s_0Cs8Yv4B2eQpLz_20gossip_partition_e2e
FN:596,_RNCNCNvNtCscNmhOS6QYVL_12kameo_remote6handle21handle_tls_connection00Cs8Yv4B2eQpLz_20gossip_partition_e2e
FN:603,_RNCNCNvNtCscNmhOS6QYVL_12kameo_remote6handle21handle_tls_connection0s0_0Cs8Yv4B2eQpLz_20gossip_partition_e2e
FN:637,_RNCNCNvNtCscNmhOS6QYVL_12kameo_remote6handle21handle_tls_connection0s1_0Cs8Yv4B2eQpLz_20gossip_partition_e2e
FN:602,_RNCNCNvNtCscNmhOS6QYVL_12kameo_remote6handle21handle_tls_connection0s_0Cs8Yv4B2eQpLz_20gossip_partition_e2e
FN:1325,_RNCNCNvNtCscNmhOS6QYVL_12kameo_remote6handle23send_streaming_response00Cs8Yv4B2eQpLz_20gossip_partition_e2e
FN:2174,_RNCNCNvNtCscNmhOS6QYVL_12kameo_remote6handle29send_gossip_message_zero_copy00Cs8Yv4B2eQpLz_20gossip_partition_e2e
FN:54,_RNCNvMNtCscNmhOS6QYVL_12kameo_remote6handleNtB4_20GossipRegistryHandle12new_with_tls0Cs8Yv4B2eQpLz_20gossip_partition_e2e
FN:210,_RNCNvMNtCscNmhOS6QYVL_12kameo_remote6handleNtB4_20GossipRegistryHandle5stats0Cs8Yv4B2eQpLz_20gossip_partition_e2e
FN:205,_RNCNvMNtCscNmhOS6QYVL_12kameo_remote6handleNtB4_20GossipRegistryHandle6lookup0Cs8Yv4B2eQpLz_20gossip_partition_e2e
FN:215,_RNCNvMNtCscNmhOS6QYVL_12kameo_remote6handleNtB4_20GossipRegistryHandle8add_peer0Cs8Yv4B2eQpLz_20gossip_partition_e2e
FN:149,_RNCNvMNtCscNmhOS6QYVL_12kameo_remote6handleNtB4_20GossipRegistryHandle8register0Cs8Yv4B2eQpLz_20gossip_partition_e2e
FN:341,_RNCNvMNtCscNmhOS6QYVL_12kameo_remote6handleNtB4_20GossipRegistryHandle8shutdown0Cs8Yv4B2eQpLz_20gossip_partition_e2e
FN:557,_RNCNvNtCscNmhOS6QYVL_12kameo_remote6handle17handle_connection0Cs8Yv4B2eQpLz_20gossip_partition_e2e
FN:385,_RNCNvNtCscNmhOS6QYVL_12kameo_remote6handle18start_gossip_timer0Cs8Yv4B2eQpLz_20gossip_partition_e2e
FN:591,_RNCNvNtCscNmhOS6QYVL_12kameo_remote6handle21handle_tls_connection0Cs8Yv4B2eQpLz_20gossip_partition_e2e
FN:1362,_RNCNvNtCscNmhOS6QYVL_12kameo_remote6handle23handle_completed_stream0Cs8Yv4B2eQpLz_20gossip_partition_e2e
FN:1322,_RNCNvNtCscNmhOS6QYVL_12kameo_remote6handle23send_streaming_response0Cs8Yv4B2eQpLz_20gossip_partition_e2e
FN:2167,_RNCNvNtCscNmhOS6QYVL_12kameo_remote6handle29send_gossip_message_zero_copy0Cs8Yv4B2eQpLz_20gossip_partition_e2e
FN:360,_RNCNvNtCscNmhOS6QYVL_12kameo_remote6handle33start_gossip_server_with_listener0Cs8Yv4B2eQpLz_20gossip_partition_e2e
FN:1387,_RINvNtCscNmhOS6QYVL_12kameo_remote6handle25handle_streaming_v2_frameINtNtNtCsh4ISjvibZbV_5tokio2io5split8ReadHalfINtNtCsb3eVN0gIh2a_12tokio_rustls6server9TlsStreamNtNtNtNtB1b_3net3tcp6stream9TcpStreamEEECsjFVaWVs31kC_18gossip_removal_e2e
FN:1551,_RINvNtCscNmhOS6QYVL_12kameo_remote6handle28read_message_from_tls_readerINtNtNtCsh4ISjvibZbV_5tokio2io5split8ReadHalfINtNtCsb3eVN0gIh2a_12tokio_rustls6server9TlsStreamNtNtNtNtB1e_3net3tcp6stream9TcpStreamEEECsjFVaWVs31kC_18gossip_removal_e2e
FN:682,_RINvNtCscNmhOS6QYVL_12kameo_remote6handle30handle_incoming_connection_tlsINtNtNtCsh4ISjvibZbV_5tokio2io5split8ReadHalfINtNtCsb3eVN0gIh2a_12tokio_rustls6server9TlsStreamNtNtNtNtB1g_3net3tcp6stream9TcpStreamEEINtB1c_9WriteHalfB1S_EECsjFVaWVs31kC_18gossip_removal_e2e
FN:1396,_RNCINvNtCscNmhOS6QYVL_12kameo_remote6handle25handle_streaming_v2_frameINtNtNtCsh4ISjvibZbV_5tokio2io5split8ReadHalfINtNtCsb3eVN0gIh2a_12tokio_rustls6server9TlsStreamNtNtNtNtB1d_3net3tcp6stream9TcpStreamEEE0CsjFVaWVs31kC_18gossip_removal_e2e
FN:1557,_RNCINvNtCscNmhOS6QYVL_12kameo_remote6handle28read_message_from_tls_readerINtNtNtCsh4ISjvibZbV_5tokio2io5split8ReadHalfINtNtCsb3eVN0gIh2a_12tokio_rustls6server9TlsStreamNtNtNtNtB1g_3net3tcp6stream9TcpStreamEEE0CsjFVaWVs31kC_18gossip_removal_e2e
FN:693,_RNCINvNtCscNmhOS6QYVL_12kameo_remote6handle30handle_incoming_connection_tlsINtNtNtCsh4ISjvibZbV_5tokio2io5split8ReadHalfINtNtCsb3eVN0gIh2a_12tokio_rustls6server9TlsStreamNtNtNtNtB1i_3net3tcp6stream9TcpStreamEEINtB1e_9WriteHalfB1U_EE0CsjFVaWVs31kC_18gossip_removal_e2e
FN:887,_RNCNCINvNtCscNmhOS6QYVL_12kameo_remote6handle30handle_incoming_connection_tlsINtNtNtCsh4ISjvibZbV_5tokio2io5split8ReadHalfINtNtCsb3eVN0gIh2a_12tokio_rustls6server9TlsStreamNtNtNtNtB1k_3net3tcp6stream9TcpStreamEEINtB1g_9WriteHalfB1W_EE00CsjFVaWVs31kC_18gossip_removal_e2e
FN:890,_RNCNCINvNtCscNmhOS6QYVL_12kameo_remote6handle30handle_incoming_connection_tlsINtNtNtCsh4ISjvibZbV_5tokio2io5split8ReadHalfINtNtCsb3eVN0gIh2a_12tokio_rustls6server9TlsStreamNtNtNtNtB1k_3net3tcp6stream9TcpStreamEEINtB1g_9WriteHalfB1W_EE0s_0CsjFVaWVs31kC_18gossip_removal_e2e
FN:406,_RNCNCNCNvNtCscNmhOS6QYVL_12kameo_remote6handle18start_gossip_timer000CsjFVaWVs31kC_18gossip_removal_e2e
FN:412,_RNCNCNCNvNtCscNmhOS6QYVL_12kameo_remote6handle18start_gossip_timer00s1_0CsjFVaWVs31kC_18gossip_removal_e2e
FN:507,_RNCNCNCNvNtCscNmhOS6QYVL_12kameo_remote6handle18start_gossip_timer00s2_0CsjFVaWVs31kC_18gossip_removal_e2e
FN:455,_RNCNCNCNvNtCscNmhOS6QYVL_12kameo_remote6handle18start_gossip_timer00s4_0CsjFVaWVs31kC_18gossip_removal_e2e
FN:528,_RNCNCNCNvNtCscNmhOS6QYVL_12kameo_remote6handle18start_gossip_timer00s5_0CsjFVaWVs31kC_18gossip_removal_e2e
FN:1327,_RNCNCNCNvNtCscNmhOS6QYVL_12kameo_remote6handle23send_streaming_response000CsjFVaWVs31kC_18gossip_removal_e2e
FN:372,_RNCNCNCNvNtCscNmhOS6QYVL_12kameo_remote6handle33start_gossip_server_with_listener000CsjFVaWVs31kC_18gossip_removal_e2e
FN:90,_RNCNCNvMNtCscNmhOS6QYVL_12kameo_remote6handleNtB6_20GossipRegistryHandle12new_with_tls00CsjFVaWVs31kC_18gossip_removal_e2e
FN:98,_RNCNCNvMNtCscNmhOS6QYVL_12kameo_remote6handleNtB6_20GossipRegistryHandle12new_with_tls0s_0CsjFVaWVs31kC_18gossip_removal_e2e
FN:596,_RNCNCNvNtCscNmhOS6QYVL_12kameo_remote6handle21handle_tls_connection00CsjFVaWVs31kC_18gossip_removal_e2e
FN:603,_RNCNCNvNtCscNmhOS6QYVL_12kameo_remote6handle21handle_tls_connection0s0_0CsjFVaWVs31kC_18gossip_removal_e2e
FN:637,_RNCNCNvNtCscNmhOS6QYVL_12kameo_remote6handle21handle_tls_connection0s1_0CsjFVaWVs31kC_18gossip_removal_e2e
FN:602,_RNCNCNvNtCscNmhOS6QYVL_12kameo_remote6handle21handle_tls_connection0s_0CsjFVaWVs31kC_18gossip_removal_e2e
FN:1325,_RNCNCNvNtCscNmhOS6QYVL_12kameo_remote6handle23send_streaming_response00CsjFVaWVs31kC_18gossip_removal_e2e
FN:2174,_RNCNCNvNtCscNmhOS6QYVL_12kameo_remote6handle29send_gossip_message_zero_copy00CsjFVaWVs31kC_18gossip_removal_e2e
FN:200,_RNCNvMNtCscNmhOS6QYVL_12kameo_remote6handleNtB4_20GossipRegistryHandle10unregister0CsjFVaWVs31kC_18gossip_removal_e2e
FN:54,_RNCNvMNtCscNmhOS6QYVL_12kameo_remote6handleNtB4_20GossipRegistryHandle12new_with_tls0CsjFVaWVs31kC_18gossip_removal_e2e
FN:190,_RNCNvMNtCscNmhOS6QYVL_12kameo_remote6handleNtB4_20GossipRegistryHandle22register_with_priority0CsjFVaWVs31kC_18gossip_removal_e2e
FN:210,_RNCNvMNtCscNmhOS6QYVL_12kameo_remote6handleNtB4_20GossipRegistryHandle5stats0CsjFVaWVs31kC_18gossip_removal_e2e
FN:205,_RNCNvMNtCscNmhOS6QYVL_12kameo_remote6handleNtB4_20GossipRegistryHandle6lookup0CsjFVaWVs31kC_18gossip_removal_e2e
FN:215,_RNCNvMNtCscNmhOS6QYVL_12kameo_remote6handleNtB4_20GossipRegistryHandle8add_peer0CsjFVaWVs31kC_18gossip_removal_e2e
FN:341,_RNCNvMNtCscNmhOS6QYVL_12kameo_remote6handleNtB4_20GossipRegistryHandle8shutdown0CsjFVaWVs31kC_18gossip_removal_e2e
FN:557,_RNCNvNtCscNmhOS6QYVL_12kameo_remote6handle17handle_connection0CsjFVaWVs31kC_18gossip_removal_e2e
FN:385,_RNCNvNtCscNmhOS6QYVL_12kameo_remote6handle18start_gossip_timer0CsjFVaWVs31kC_18gossip_removal_e2e
FN:591,_RNCNvNtCscNmhOS6QYVL_12kameo_remote6handle21handle_tls_connection0CsjFVaWVs31kC_18gossip_removal_e2e
FN:1362,_RNCNvNtCscNmhOS6QYVL_12kameo_remote6handle23handle_completed_stream0CsjFVaWVs31kC_18gossip_removal_e2e
FN:1322,_RNCNvNtCscNmhOS6QYVL_12kameo_remote6handle23send_streaming_response0CsjFVaWVs31kC_18gossip_removal_e2e
FN:2167,_RNCNvNtCscNmhOS6QYVL_12kameo_remote6handle29send_gossip_message_zero_copy0CsjFVaWVs31kC_18gossip_removal_e2e
FN:360,_RNCNvNtCscNmhOS6QYVL_12kameo_remote6handle33start_gossip_server_with_listener0CsjFVaWVs31kC_18gossip_removal_e2e
FN:1814,_RNvNtNtCs4ULJ6nbTBOi_12kameo_remote6handle13framing_tests10read_frame
FN:2035,_RNvNtNtCs4ULJ6nbTBOi_12kameo_remote6handle13framing_tests16encode_end_frame
FN:2026,_RNvNtNtCs4ULJ6nbTBOi_12kameo_remote6handle13framing_tests17encode_data_frame
FN:2014,_RNvNtNtCs4ULJ6nbTBOi_12kameo_remote6handle13framing_tests17sample_descriptor
FN:1933,_RNvNtNtCs4ULJ6nbTBOi_12kameo_remote6handle13framing_testss_31alignment_check_works_correctly
FN:1825,_RNvNtNtCs4ULJ6nbTBOi_12kameo_remote6handle13framing_testss_33ask_raw_parses_with_padded_header
FN:1845,_RNvNtNtCs4ULJ6nbTBOi_12kameo_remote6handle13framing_testss_34response_parses_with_padded_header
FN:1866,_RNvNtNtCs4ULJ6nbTBOi_12kameo_remote6handle13framing_testss_39actor_tell_parses_with_reordered_header
FN:2045,_RNvNtNtCs4ULJ6nbTBOi_12kameo_remote6handle13framing_testss_41streaming_v2_frames_round_trip_via_duplex
FN:2126,_RNvNtNtCs4ULJ6nbTBOi_12kameo_remote6handle13framing_testss_42streaming_v2_data_before_start_is_rejected
FN:1902,_RNvNtNtCs4ULJ6nbTBOi_12kameo_remote6handle13framing_testss_56gossip_registry_payload_deserializes_from_aligned_buffer
FN:1955,_RNvNtNtCs4ULJ6nbTBOi_12kameo_remote6handle13framing_testss_58decode_registry_message_handles_both_aligned_and_unaligned
FN:321,_RNCNCNvMNtCs4ULJ6nbTBOi_12kameo_remote6handleNtB6_20GossipRegistryHandle22bootstrap_non_blocking00B8_
FN:200,_RNCNvMNtCs4ULJ6nbTBOi_12kameo_remote6handleNtB4_20GossipRegistryHandle10unregister0B6_
FN:234,_RNCNvMNtCs4ULJ6nbTBOi_12kameo_remote6handleNtB4_20GossipRegistryHandle14get_connection0B6_
FN:175,_RNCNvMNtCs4ULJ6nbTBOi_12kameo_remote6handleNtB4_20GossipRegistryHandle15register_urgent0B6_
FN:120,_RNCNvMNtCs4ULJ6nbTBOi_12kameo_remote6handleNtB4_20GossipRegistryHandle16new_with_keypair0B6_
FN:316,_RNCNvMNtCs4ULJ6nbTBOi_12kameo_remote6handleNtB4_20GossipRegistryHandle22bootstrap_non_blocking0B6_
FN:242,_RNCNvMNtCs4ULJ6nbTBOi_12kameo_remote6handleNtB4_20GossipRegistryHandle22get_connection_to_peer0B6_
FN:160,_RNCNvMNtCs4ULJ6nbTBOi_12kameo_remote6handleNtB4_20GossipRegistryHandle22register_with_metadata0B6_
FN:190,_RNCNvMNtCs4ULJ6nbTBOi_12kameo_remote6handleNtB4_20GossipRegistryHandle22register_with_priority0B6_
FN:144,_RNCNvMNtCs4ULJ6nbTBOi_12kameo_remote6handleNtB4_20GossipRegistryHandle3new0B6_
FN:210,_RNCNvMNtCs4ULJ6nbTBOi_12kameo_remote6handleNtB4_20GossipRegistryHandle5stats0B6_
FN:256,_RNCNvMNtCs4ULJ6nbTBOi_12kameo_remote6handleNtB4_20GossipRegistryHandle9bootstrap0B6_
FN:200,_RNvMNtCs4ULJ6nbTBOi_12kameo_remote6handleNtB2_20GossipRegistryHandle10unregister
FN:231,_RNvMNtCs4ULJ6nbTBOi_12kameo_remote6handleNtB2_20GossipRegistryHandle14get_connection
FN:170,_RNvMNtCs4ULJ6nbTBOi_12kameo_remote6handleNtB2_20GossipRegistryHandle15register_urgent
FN:116,_RNvMNtCs4ULJ6nbTBOi_12kameo_remote6handleNtB2_20GossipRegistryHandle16new_with_keypair
FN:316,_RNvMNtCs4ULJ6nbTBOi_12kameo_remote6handleNtB2_20GossipRegistryHandle22bootstrap_non_blocking
FN:239,_RNvMNtCs4ULJ6nbTBOi_12kameo_remote6handleNtB2_20GossipRegistryHandle22get_connection_to_peer
FN:155,_RNvMNtCs4ULJ6nbTBOi_12kameo_remote6handleNtB2_20GossipRegistryHandle22register_with_metadata
FN:185,_RNvMNtCs4ULJ6nbTBOi_12kameo_remote6handleNtB2_20GossipRegistryHandle22register_with_priority
FN:140,_RNvMNtCs4ULJ6nbTBOi_12kameo_remote6handleNtB2_20GossipRegistryHandle3new
FN:210,_RNvMNtCs4ULJ6nbTBOi_12kameo_remote6handleNtB2_20GossipRegistryHandle5stats
FN:256,_RNvMNtCs4ULJ6nbTBOi_12kameo_remote6handleNtB2_20GossipRegistryHandle9bootstrap
FN:50,_RNvMNtCs4ULJ6nbTBOi_12kameo_remote6handleNtB2_20GossipRegistryHandle12new_with_tls
FN:205,_RNvMNtCs4ULJ6nbTBOi_12kameo_remote6handleNtB2_20GossipRegistryHandle6lookup
FN:215,_RNvMNtCs4ULJ6nbTBOi_12kameo_remote6handleNtB2_20GossipRegistryHandle8add_peer
FN:149,_RNvMNtCs4ULJ6nbTBOi_12kameo_remote6handleNtB2_20GossipRegistryHandle8register
FN:341,_RNvMNtCs4ULJ6nbTBOi_12kameo_remote6handleNtB2_20GossipRegistryHandle8shutdown
FN:553,_RNvNtCs4ULJ6nbTBOi_12kameo_remote6handle17handle_connection
FN:385,_RNvNtCs4ULJ6nbTBOi_12kameo_remote6handle18start_gossip_timer
FN:587,_RNvNtCs4ULJ6nbTBOi_12kameo_remote6handle21handle_tls_connection
FN:1256,_RNvNtCs4ULJ6nbTBOi_12kameo_remote6handle22handle_raw_ask_request
FN:1475,_RNvNtCs4ULJ6nbTBOi_12kameo_remote6handle23decode_registry_message
FN:1358,_RNvNtCs4ULJ6nbTBOi_12kameo_remote6handle23handle_completed_stream
FN:1502,_RNvNtCs4ULJ6nbTBOi_12kameo_remote6handle23handle_response_message
FN:1317,_RNvNtCs4ULJ6nbTBOi_12kameo_remote6handle23send_streaming_response
FN:1465,_RNvNtCs4ULJ6nbTBOi_12kameo_remote6handle27is_registry_payload_aligned
FN:2164,_RNvNtCs4ULJ6nbTBOi_12kameo_remote6handle29send_gossip_message_zero_copy
FN:357,_RNvNtCs4ULJ6nbTBOi_12kameo_remote6handle33start_gossip_server_with_listener
FN:1816,_RNCNCNvNtNtCs4ULJ6nbTBOi_12kameo_remote6handle13framing_tests10read_frame00B9_
FN:2054,_RNCNCNvNtNtCs4ULJ6nbTBOi_12kameo_remote6handle13framing_testss_41streaming_v2_frames_round_trip_via_duplex00B9_
FN:2131,_RNCNCNvNtNtCs4ULJ6nbTBOi_12kameo_remote6handle13framing_testss_42streaming_v2_data_before_start_is_rejected00B9_
FN:1814,_RNCNvNtNtCs4ULJ6nbTBOi_12kameo_remote6handle13framing_tests10read_frame0B7_
FN:1933,_RNCNvNtNtCs4ULJ6nbTBOi_12kameo_remote6handle13framing_testss_31alignment_check_works_correctly0B7_
FN:1825,_RNCNvNtNtCs4ULJ6nbTBOi_12kameo_remote6handle13framing_testss_33ask_raw_parses_with_padded_header0B7_
FN:1845,_RNCNvNtNtCs4ULJ6nbTBOi_12kameo_remote6handle13framing_testss_34response_parses_with_padded_header0B7_
FN:1866,_RNCNvNtNtCs4ULJ6nbTBOi_12kameo_remote6handle13framing_testss_39actor_tell_parses_with_reordered_header0B7_
FN:2045,_RNCNvNtNtCs4ULJ6nbTBOi_12kameo_remote6handle13framing_testss_41streaming_v2_frames_round_trip_via_duplex0B7_
FN:2126,_RNCNvNtNtCs4ULJ6nbTBOi_12kameo_remote6handle13framing_testss_42streaming_v2_data_before_start_is_rejected0B7_
FN:1902,_RNCNvNtNtCs4ULJ6nbTBOi_12kameo_remote6handle13framing_testss_56gossip_registry_payload_deserializes_from_aligned_buffer0B7_
FN:1955,_RNCNvNtNtCs4ULJ6nbTBOi_12kameo_remote6handle13framing_testss_58decode_registry_message_handles_both_aligned_and_unaligned0B7_
FN:1387,_RINvNtCs4ULJ6nbTBOi_12kameo_remote6handle25handle_streaming_v2_frameINtNtNtCsh4ISjvibZbV_5tokio2io5split8ReadHalfINtNtCsb3eVN0gIh2a_12tokio_rustls6server9TlsStreamNtNtNtNtB1b_3net3tcp6stream9TcpStreamEEEB4_
FN:1551,_RINvNtCs4ULJ6nbTBOi_12kameo_remote6handle28read_message_from_tls_readerINtNtCs85QQFkKrybG_4core3pin3PinINtNtCsdFlNUEO95cG_5alloc5boxed3BoxDNtNtNtCsh4ISjvibZbV_5tokio2io10async_read9AsyncReadNtNtB1c_6marker4SendEL_EEEB4_
FN:1551,_RINvNtCs4ULJ6nbTBOi_12kameo_remote6handle28read_message_from_tls_readerINtNtNtCsh4ISjvibZbV_5tokio2io5split8ReadHalfINtNtCsb3eVN0gIh2a_12tokio_rustls6server9TlsStreamNtNtNtNtB1e_3net3tcp6stream9TcpStreamEEEB4_
FN:1551,_RINvNtCs4ULJ6nbTBOi_12kameo_remote6handle28read_message_from_tls_readerNtNtNtNtCsh4ISjvibZbV_5tokio2io4util3mem12DuplexStreamEB4_
FN:682,_RINvNtCs4ULJ6nbTBOi_12kameo_remote6handle30handle_incoming_connection_tlsINtNtNtCsh4ISjvibZbV_5tokio2io5split8ReadHalfINtNtCsb3eVN0gIh2a_12tokio_rustls6server9TlsStreamNtNtNtNtB1g_3net3tcp6stream9TcpStreamEEINtB1c_9WriteHalfB1S_EEB4_
FN:1396,_RNCINvNtCs4ULJ6nbTBOi_12kameo_remote6handle25handle_streaming_v2_frameINtNtNtCsh4ISjvibZbV_5tokio2io5split8ReadHalfINtNtCsb3eVN0gIh2a_12tokio_rustls6server9TlsStreamNtNtNtNtB1d_3net3tcp6stream9TcpStreamEEE0B6_
FN:1557,_RNCINvNtCs4ULJ6nbTBOi_12kameo_remote6handle28read_message_from_tls_readerINtNtCs85QQFkKrybG_4core3pin3PinINtNtCsdFlNUEO95cG_5alloc5boxed3BoxDNtNtNtCsh4ISjvibZbV_5tokio2io10async_read9AsyncReadNtNtB1e_6marker4SendEL_EEE0B6_
FN:1557,_RNCINvNtCs4ULJ6nbTBOi_12kameo_remote6handle28read_message_from_tls_readerINtNtNtCsh4ISjvibZbV_5tokio2io5split8ReadHalfINtNtCsb3eVN0gIh2a_12tokio_rustls6server9TlsStreamNtNtNtNtB1g_3net3tcp6stream9TcpStreamEEE0B6_
FN:1557,_RNCINvNtCs4ULJ6nbTBOi_12kameo_remote6handle28read_message_from_tls_readerNtNtNtNtCsh4ISjvibZbV_5tokio2io4util3mem12DuplexStreamE0B6_
FN:693,_RNCINvNtCs4ULJ6nbTBOi_12kameo_remote6handle30handle_incoming_connection_tlsINtNtNtCsh4ISjvibZbV_5tokio2io5split8ReadHalfINtNtCsb3eVN0gIh2a_12tokio_rustls6server9TlsStreamNtNtNtNtB1i_3net3tcp6stream9TcpStreamEEINtB1e_9WriteHalfB1U_EE0B6_
FN:887,_RNCNCINvNtCs4ULJ6nbTBOi_12kameo_remote6handle30handle_incoming_connection_tlsINtNtNtCsh4ISjvibZbV_5tokio2io5split8ReadHalfINtNtCsb3eVN0gIh2a_12tokio_rustls6server9TlsStreamNtNtNtNtB1k_3net3tcp6stream9TcpStreamEEINtB1g_9WriteHalfB1W_EE00B8_
FN:890,_RNCNCINvNtCs4ULJ6nbTBOi_12kameo_remote6handle30handle_incoming_connection_tlsINtNtNtCsh4ISjvibZbV_5tokio2io5split8ReadHalfINtNtCsb3eVN0gIh2a_12tokio_rustls6server9TlsStreamNtNtNtNtB1k_3net3tcp6stream9TcpStreamEEINtB1g_9WriteHalfB1W_EE0s_0B8_
FN:406,_RNCNCNCNvNtCs4ULJ6nbTBOi_12kameo_remote6handle18start_gossip_timer000B9_
FN:412,_RNCNCNCNvNtCs4ULJ6nbTBOi_12kameo_remote6handle18start_gossip_timer00s1_0B9_
FN:507,_RNCNCNCNvNtCs4ULJ6nbTBOi_12kameo_remote6handle18start_gossip_timer00s2_0B9_
FN:455,_RNCNCNCNvNtCs4ULJ6nbTBOi_12kameo_remote6handle18start_gossip_timer00s4_0B9_
FN:528,_RNCNCNCNvNtCs4ULJ6nbTBOi_12kameo_remote6handle18start_gossip_timer00s5_0B9_
FN:1274,_RNCNCNCNvNtCs4ULJ6nbTBOi_12kameo_remote6handle22handle_raw_ask_request000B9_
FN:1327,_RNCNCNCNvNtCs4ULJ6nbTBOi_12kameo_remote6handle23send_streaming_response000B9_
FN:372,_RNCNCNCNvNtCs4ULJ6nbTBOi_12kameo_remote6handle33start_gossip_server_with_listener000B9_
FN:90,_RNCNCNvMNtCs4ULJ6nbTBOi_12kameo_remote6handleNtB6_20GossipRegistryHandle12new_with_tls00B8_
FN:98,_RNCNCNvMNtCs4ULJ6nbTBOi_12kameo_remote6handleNtB6_20GossipRegistryHandle12new_with_tls0s_0B8_
FN:596,_RNCNCNvNtCs4ULJ6nbTBOi_12kameo_remote6handle21handle_tls_connection00B7_
FN:603,_RNCNCNvNtCs4ULJ6nbTBOi_12kameo_remote6handle21handle_tls_connection0s0_0B7_
FN:637,_RNCNCNvNtCs4ULJ6nbTBOi_12kameo_remote6handle21handle_tls_connection0s1_0B7_
FN:602,_RNCNCNvNtCs4ULJ6nbTBOi_12kameo_remote6handle21handle_tls_connection0s_0B7_
FN:1272,_RNCNCNvNtCs4ULJ6nbTBOi_12kameo_remote6handle22handle_raw_ask_request00B7_
FN:1325,_RNCNCNvNtCs4ULJ6nbTBOi_12kameo_remote6handle23send_streaming_response00B7_
FN:2174,_RNCNCNvNtCs4ULJ6nbTBOi_12kameo_remote6handle29send_gossip_message_zero_copy00B7_
FN:54,_RNCNvMNtCs4ULJ6nbTBOi_12kameo_remote6handleNtB4_20GossipRegistryHandle12new_with_tls0B6_
FN:205,_RNCNvMNtCs4ULJ6nbTBOi_12kameo_remote6handleNtB4_20GossipRegistryHandle6lookup0B6_
FN:215,_RNCNvMNtCs4ULJ6nbTBOi_12kameo_remote6handleNtB4_20GossipRegistryHandle8add_peer0B6_
FN:149,_RNCNvMNtCs4ULJ6nbTBOi_12kameo_remote6handleNtB4_20GossipRegistryHandle8register0B6_
FN:341,_RNCNvMNtCs4ULJ6nbTBOi_12kameo_remote6handleNtB4_20GossipRegistryHandle8shutdown0B6_
FN:557,_RNCNvNtCs4ULJ6nbTBOi_12kameo_remote6handle17handle_connection0B5_
FN:385,_RNCNvNtCs4ULJ6nbTBOi_12kameo_remote6handle18start_gossip_timer0B5_
FN:591,_RNCNvNtCs4ULJ6nbTBOi_12kameo_remote6handle21handle_tls_connection0B5_
FN:1261,_RNCNvNtCs4ULJ6nbTBOi_12kameo_remote6handle22handle_raw_ask_request0B5_
FN:1362,_RNCNvNtCs4ULJ6nbTBOi_12kameo_remote6handle23handle_completed_stream0B5_
FN:1507,_RNCNvNtCs4ULJ6nbTBOi_12kameo_remote6handle23handle_response_message0B5_
FN:1322,_RNCNvNtCs4ULJ6nbTBOi_12kameo_remote6handle23send_streaming_response0B5_
FN:2167,_RNCNvNtCs4ULJ6nbTBOi_12kameo_remote6handle29send_gossip_message_zero_copy0B5_
FN:360,_RNCNvNtCs4ULJ6nbTBOi_12kameo_remote6handle33start_gossip_server_with_listener0B5_
FN:1387,_RINvNtCscNmhOS6QYVL_12kameo_remote6handle25handle_streaming_v2_frameINtNtNtCsh4ISjvibZbV_5tokio2io5split8ReadHalfINtNtCsb3eVN0gIh2a_12tokio_rustls6server9TlsStreamNtNtNtNtB1b_3net3tcp6stream9TcpStreamEEECsgCKrPgQ6uob_14node_name_test
FN:1551,_RINvNtCscNmhOS6QYVL_12kameo_remote6handle28read_message_from_tls_readerINtNtNtCsh4ISjvibZbV_5tokio2io5split8ReadHalfINtNtCsb3eVN0gIh2a_12tokio_rustls6server9TlsStreamNtNtNtNtB1e_3net3tcp6stream9TcpStreamEEECsgCKrPgQ6uob_14node_name_test
FN:682,_RINvNtCscNmhOS6QYVL_12kameo_remote6handle30handle_incoming_connection_tlsINtNtNtCsh4ISjvibZbV_5tokio2io5split8ReadHalfINtNtCsb3eVN0gIh2a_12tokio_rustls6server9TlsStreamNtNtNtNtB1g_3net3tcp6stream9TcpStreamEEINtB1c_9WriteHalfB1S_EECsgCKrPgQ6uob_14node_name_test
FN:1396,_RNCINvNtCscNmhOS6QYVL_12kameo_remote6handle25handle_streaming_v2_frameINtNtNtCsh4ISjvibZbV_5tokio2io5split8ReadHalfINtNtCsb3eVN0gIh2a_12tokio_rustls6server9TlsStreamNtNtNtNtB1d_3net3tcp6stream9TcpStreamEEE0CsgCKrPgQ6uob_14node_name_test
FN:1557,_RNCINvNtCscNmhOS6QYVL_12kameo_remote6handle28read_message_from_tls_readerINtNtNtCsh4ISjvibZbV_5tokio2io5split8ReadHalfINtNtCsb3eVN0gIh2a_12tokio_rustls6server9TlsStreamNtNtNtNtB1g_3net3tcp6stream9TcpStreamEEE0CsgCKrPgQ6uob_14node_name_test
FN:693,_RNCINvNtCscNmhOS6QYVL_12kameo_remote6handle30handle_incoming_connection_tlsINtNtNtCsh4ISjvibZbV_5tokio2io5split8ReadHalfINtNtCsb3eVN0gIh2a_12tokio_rustls6server9TlsStreamNtNtNtNtB1i_3net3tcp6stream9TcpStreamEEINtB1e_9WriteHalfB1U_EE0CsgCKrPgQ6uob_14node_name_test
FN:887,_RNCNCINvNtCscNmhOS6QYVL_12kameo_remote6handle30handle_incoming_connection_tlsINtNtNtCsh4ISjvibZbV_5tokio2io5split8ReadHalfINtNtCsb3eVN0gIh2a_12tokio_rustls6server9TlsStreamNtNtNtNtB1k_3net3tcp6stream9TcpStreamEEINtB1g_9WriteHalfB1W_EE00CsgCKrPgQ6uob_14node_name_test
FN:890,_RNCNCINvNtCscNmhOS6QYVL_12kameo_remote6handle30handle_incoming_connection_tlsINtNtNtCsh4ISjvibZbV_5tokio2io5split8ReadHalfINtNtCsb3eVN0gIh2a_12tokio_rustls6server9TlsStreamNtNtNtNtB1k_3net3tcp6stream9TcpStreamEEINtB1g_9WriteHalfB1W_EE0s_0CsgCKrPgQ6uob_14node_name_test
FN:406,_RNCNCNCNvNtCscNmhOS6QYVL_12kameo_remote6handle18start_gossip_timer000CsgCKrPgQ6uob_14node_name_test
FN:412,_RNCNCNCNvNtCscNmhOS6QYVL_12kameo_remote6handle18start_gossip_timer00s1_0CsgCKrPgQ6uob_14node_name_test
FN:507,_RNCNCNCNvNtCscNmhOS6QYVL_12kameo_remote6handle18start_gossip_timer00s2_0CsgCKrPgQ6uob_14node_name_test
FN:455,_RNCNCNCNvNtCscNmhOS6QYVL_12kameo_remote6handle18start_gossip_timer00s4_0CsgCKrPgQ6uob_14node_name_test
FN:528,_RNCNCNCNvNtCscNmhOS6QYVL_12kameo_remote6handle18start_gossip_timer00s5_0CsgCKrPgQ6uob_14node_name_test
FN:1327,_RNCNCNCNvNtCscNmhOS6QYVL_12kameo_remote6handle23send_streaming_response000CsgCKrPgQ6uob_14node_name_test
FN:372,_RNCNCNCNvNtCscNmhOS6QYVL_12kameo_remote6handle33start_gossip_server_with_listener000CsgCKrPgQ6uob_14node_name_test
FN:90,_RNCNCNvMNtCscNmhOS6QYVL_12kameo_remote6handleNtB6_20GossipRegistryHandle12new_with_tls00CsgCKrPgQ6uob_14node_name_test
FN:98,_RNCNCNvMNtCscNmhOS6QYVL_12kameo_remote6handleNtB6_20GossipRegistryHandle12new_with_tls0s_0CsgCKrPgQ6uob_14node_name_test
FN:596,_RNCNCNvNtCscNmhOS6QYVL_12kameo_remote6handle21handle_tls_connection00CsgCKrPgQ6uob_14node_name_test
FN:603,_RNCNCNvNtCscNmhOS6QYVL_12kameo_remote6handle21handle_tls_connection0s0_0CsgCKrPgQ6uob_14node_name_test
FN:637,_RNCNCNvNtCscNmhOS6QYVL_12kameo_remote6handle21handle_tls_connection0s1_0CsgCKrPgQ6uob_14node_name_test
FN:602,_RNCNCNvNtCscNmhOS6QYVL_12kameo_remote6handle21handle_tls_connection0s_0CsgCKrPgQ6uob_14node_name_test
FN:1325,_RNCNCNvNtCscNmhOS6QYVL_12kameo_remote6handle23send_streaming_response00CsgCKrPgQ6uob_14node_name_test
FN:2174,_RNCNCNvNtCscNmhOS6QYVL_12kameo_remote6handle29send_gossip_message_zero_copy00CsgCKrPgQ6uob_14node_name_test
FN:54,_RNCNvMNtCscNmhOS6QYVL_12kameo_remote6handleNtB4_20GossipRegistryHandle12new_with_tls0CsgCKrPgQ6uob_14node_name_test
FN:120,_RNCNvMNtCscNmhOS6QYVL_12kameo_remote6handleNtB4_20GossipRegistryHandle16new_with_keypair0CsgCKrPgQ6uob_14node_name_test
FN:215,_RNCNvMNtCscNmhOS6QYVL_12kameo_remote6handleNtB4_20GossipRegistryHandle8add_peer0CsgCKrPgQ6uob_14node_name_test
FN:341,_RNCNvMNtCscNmhOS6QYVL_12kameo_remote6handleNtB4_20GossipRegistryHandle8shutdown0CsgCKrPgQ6uob_14node_name_test
FN:557,_RNCNvNtCscNmhOS6QYVL_12kameo_remote6handle17handle_connection0CsgCKrPgQ6uob_14node_name_test
FN:385,_RNCNvNtCscNmhOS6QYVL_12kameo_remote6handle18start_gossip_timer0CsgCKrPgQ6uob_14node_name_test
FN:591,_RNCNvNtCscNmhOS6QYVL_12kameo_remote6handle21handle_tls_connection0CsgCKrPgQ6uob_14node_name_test
FN:1362,_RNCNvNtCscNmhOS6QYVL_12kameo_remote6handle23handle_completed_stream0CsgCKrPgQ6uob_14node_name_test
FN:1322,_RNCNvNtCscNmhOS6QYVL_12kameo_remote6handle23send_streaming_response0CsgCKrPgQ6uob_14node_name_test
FN:2167,_RNCNvNtCscNmhOS6QYVL_12kameo_remote6handle29send_gossip_message_zero_copy0CsgCKrPgQ6uob_14node_name_test
FN:360,_RNCNvNtCscNmhOS6QYVL_12kameo_remote6handle33start_gossip_server_with_listener0CsgCKrPgQ6uob_14node_name_test
FN:1387,_RINvNtCscNmhOS6QYVL_12kameo_remote6handle25handle_streaming_v2_frameINtNtNtCsh4ISjvibZbV_5tokio2io5split8ReadHalfINtNtCsb3eVN0gIh2a_12tokio_rustls6server9TlsStreamNtNtNtNtB1b_3net3tcp6stream9TcpStreamEEECs3qutdMVIhKi_20peer_discovery_tests
FN:1551,_RINvNtCscNmhOS6QYVL_12kameo_remote6handle28read_message_from_tls_readerINtNtNtCsh4ISjvibZbV_5tokio2io5split8ReadHalfINtNtCsb3eVN0gIh2a_12tokio_rustls6server9TlsStreamNtNtNtNtB1e_3net3tcp6stream9TcpStreamEEECs3qutdMVIhKi_20peer_discovery_tests
FN:682,_RINvNtCscNmhOS6QYVL_12kameo_remote6handle30handle_incoming_connection_tlsINtNtNtCsh4ISjvibZbV_5tokio2io5split8ReadHalfINtNtCsb3eVN0gIh2a_12tokio_rustls6server9TlsStreamNtNtNtNtB1g_3net3tcp6stream9TcpStreamEEINtB1c_9WriteHalfB1S_EECs3qutdMVIhKi_20peer_discovery_tests
FN:1396,_RNCINvNtCscNmhOS6QYVL_12kameo_remote6handle25handle_streaming_v2_frameINtNtNtCsh4ISjvibZbV_5tokio2io5split8ReadHalfINtNtCsb3eVN0gIh2a_12tokio_rustls6server9TlsStreamNtNtNtNtB1d_3net3tcp6stream9TcpStreamEEE0Cs3qutdMVIhKi_20peer_discovery_tests
FN:1557,_RNCINvNtCscNmhOS6QYVL_12kameo_remote6handle28read_message_from_tls_readerINtNtNtCsh4ISjvibZbV_5tokio2io5split8ReadHalfINtNtCsb3eVN0gIh2a_12tokio_rustls6server9TlsStreamNtNtNtNtB1g_3net3tcp6stream9TcpStreamEEE0Cs3qutdMVIhKi_20peer_discovery_tests
FN:693,_RNCINvNtCscNmhOS6QYVL_12kameo_remote6handle30handle_incoming_connection_tlsINtNtNtCsh4ISjvibZbV_5tokio2io5split8ReadHalfINtNtCsb3eVN0gIh2a_12tokio_rustls6server9TlsStreamNtNtNtNtB1i_3net3tcp6stream9TcpStreamEEINtB1e_9WriteHalfB1U_EE0Cs3qutdMVIhKi_20peer_discovery_tests
FN:887,_RNCNCINvNtCscNmhOS6QYVL_12kameo_remote6handle30handle_incoming_connection_tlsINtNtNtCsh4ISjvibZbV_5tokio2io5split8ReadHalfINtNtCsb3eVN0gIh2a_12tokio_rustls6server9TlsStreamNtNtNtNtB1k_3net3tcp6stream9TcpStreamEEINtB1g_9WriteHalfB1W_EE00Cs3qutdMVIhKi_20peer_discovery_tests
FN:890,_RNCNCINvNtCscNmhOS6QYVL_12kameo_remote6handle30handle_incoming_connection_tlsINtNtNtCsh4ISjvibZbV_5tokio2io5split8ReadHalfINtNtCsb3eVN0gIh2a_12tokio_rustls6server9TlsStreamNtNtNtNtB1k_3net3tcp6stream9TcpStreamEEINtB1g_9WriteHalfB1W_EE0s_0Cs3qutdMVIhKi_20peer_discovery_tests
FN:406,_RNCNCNCNvNtCscNmhOS6QYVL_12kameo_remote6handle18start_gossip_timer000Cs3qutdMVIhKi_20peer_discovery_tests
FN:412,_RNCNCNCNvNtCscNmhOS6QYVL_12kameo_remote6handle18start_gossip_timer00s1_0Cs3qutdMVIhKi_20peer_discovery_tests
FN:507,_RNCNCNCNvNtCscNmhOS6QYVL_12kameo_remote6handle18start_gossip_timer00s2_0Cs3qutdMVIhKi_20peer_discovery_tests
FN:455,_RNCNCNCNvNtCscNmhOS6QYVL_12kameo_remote6handle18start_gossip_timer00s4_0Cs3qutdMVIhKi_20peer_discovery_tests
FN:528,_RNCNCNCNvNtCscNmhOS6QYVL_12kameo_remote6handle18start_gossip_timer00s5_0Cs3qutdMVIhKi_20peer_discovery_tests
FN:1327,_RNCNCNCNvNtCscNmhOS6QYVL_12kameo_remote6handle23send_streaming_response000Cs3qutdMVIhKi_20peer_discovery_tests
FN:372,_RNCNCNCNvNtCscNmhOS6QYVL_12kameo_remote6handle33start_gossip_server_with_listener000Cs3qutdMVIhKi_20peer_discovery_tests
FN:90,_RNCNCNvMNtCscNmhOS6QYVL_12kameo_remote6handleNtB6_20GossipRegistryHandle12new_with_tls00Cs3qutdMVIhKi_20peer_discovery_tests
FN:98,_RNCNCNvMNtCscNmhOS6QYVL_12kameo_remote6handleNtB6_20GossipRegistryHandle12new_with_tls0s_0Cs3qutdMVIhKi_20peer_discovery_tests
FN:596,_RNCNCNvNtCscNmhOS6QYVL_12kameo_remote6handle21handle_tls_connection00Cs3qutdMVIhKi_20peer_discovery_tests
FN:603,_RNCNCNvNtCscNmhOS6QYVL_12kameo_remote6handle21handle_tls_connection0s0_0Cs3qutdMVIhKi_20peer_discovery_tests
FN:637,_RNCNCNvNtCscNmhOS6QYVL_12kameo_remote6handle21handle_tls_connection0s1_0Cs3qutdMVIhKi_20peer_discovery_tests
FN:602,_RNCNCNvNtCscNmhOS6QYVL_12kameo_remote6handle21handle_tls_connection0s_0Cs3qutdMVIhKi_20peer_discovery_tests
FN:1325,_RNCNCNvNtCscNmhOS6QYVL_12kameo_remote6handle23send_streaming_response00Cs3qutdMVIhKi_20peer_discovery_tests
FN:2174,_RNCNCNvNtCscNmhOS6QYVL_12kameo_remote6handle29send_gossip_message_zero_copy00Cs3qutdMVIhKi_20peer_discovery_tests
FN:54,_RNCNvMNtCscNmhOS6QYVL_12kameo_remote6handleNtB4_20GossipRegistryHandle12new_with_tls0Cs3qutdMVIhKi_20peer_discovery_tests
FN:210,_RNCNvMNtCscNmhOS6QYVL_12kameo_remote6handleNtB4_20GossipRegistryHandle5stats0Cs3qutdMVIhKi_20peer_discovery_tests
FN:341,_RNCNvMNtCscNmhOS6QYVL_12kameo_remote6handleNtB4_20GossipRegistryHandle8shutdown0Cs3qutdMVIhKi_20peer_discovery_tests
FN:256,_RNCNvMNtCscNmhOS6QYVL_12kameo_remote6handleNtB4_20GossipRegistryHandle9bootstrap0Cs3qutdMVIhKi_20peer_discovery_tests
FN:557,_RNCNvNtCscNmhOS6QYVL_12kameo_remote6handle17handle_connection0Cs3qutdMVIhKi_20peer_discovery_tests
FN:385,_RNCNvNtCscNmhOS6QYVL_12kameo_remote6handle18start_gossip_timer0Cs3qutdMVIhKi_20peer_discovery_tests
FN:591,_RNCNvNtCscNmhOS6QYVL_12kameo_remote6handle21handle_tls_connection0Cs3qutdMVIhKi_20peer_discovery_tests
FN:1362,_RNCNvNtCscNmhOS6QYVL_12kameo_remote6handle23handle_completed_stream0Cs3qutdMVIhKi_20peer_discovery_tests
FN:1322,_RNCNvNtCscNmhOS6QYVL_12kameo_remote6handle23send_streaming_response0Cs3qutdMVIhKi_20peer_discovery_tests
FN:2167,_RNCNvNtCscNmhOS6QYVL_12kameo_remote6handle29send_gossip_message_zero_copy0Cs3qutdMVIhKi_20peer_discovery_tests
FN:360,_RNCNvNtCscNmhOS6QYVL_12kameo_remote6handle33start_gossip_server_with_listener0Cs3qutdMVIhKi_20peer_discovery_tests
FN:1387,_RINvNtCscNmhOS6QYVL_12kameo_remote6handle25handle_streaming_v2_frameINtNtNtCsh4ISjvibZbV_5tokio2io5split8ReadHalfINtNtCsb3eVN0gIh2a_12tokio_rustls6server9TlsStreamNtNtNtNtB1b_3net3tcp6stream9TcpStreamEEECs9MW0dUygFlO_26peer_discovery_toctou_test
FN:1551,_RINvNtCscNmhOS6QYVL_12kameo_remote6handle28read_message_from_tls_readerINtNtNtCsh4ISjvibZbV_5tokio2io5split8ReadHalfINtNtCsb3eVN0gIh2a_12tokio_rustls6server9TlsStreamNtNtNtNtB1e_3net3tcp6stream9TcpStreamEEECs9MW0dUygFlO_26peer_discovery_toctou_test
FN:682,_RINvNtCscNmhOS6QYVL_12kameo_remote6handle30handle_incoming_connection_tlsINtNtNtCsh4ISjvibZbV_5tokio2io5split8ReadHalfINtNtCsb3eVN0gIh2a_12tokio_rustls6server9TlsStreamNtNtNtNtB1g_3net3tcp6stream9TcpStreamEEINtB1c_9WriteHalfB1S_EECs9MW0dUygFlO_26peer_discovery_toctou_test
FN:1396,_RNCINvNtCscNmhOS6QYVL_12kameo_remote6handle25handle_streaming_v2_frameINtNtNtCsh4ISjvibZbV_5tokio2io5split8ReadHalfINtNtCsb3eVN0gIh2a_12tokio_rustls6server9TlsStreamNtNtNtNtB1d_3net3tcp6stream9TcpStreamEEE0Cs9MW0dUygFlO_26peer_discovery_toctou_test
FN:1557,_RNCINvNtCscNmhOS6QYVL_12kameo_remote6handle28read_message_from_tls_readerINtNtNtCsh4ISjvibZbV_5tokio2io5split8ReadHalfINtNtCsb3eVN0gIh2a_12tokio_rustls6server9TlsStreamNtNtNtNtB1g_3net3tcp6stream9TcpStreamEEE0Cs9MW0dUygFlO_26peer_discovery_toctou_test
FN:693,_RNCINvNtCscNmhOS6QYVL_12kameo_remote6handle30handle_incoming_connection_tlsINtNtNtCsh4ISjvibZbV_5tokio2io5split8ReadHalfINtNtCsb3eVN0gIh2a_12tokio_rustls6server9TlsStreamNtNtNtNtB1i_3net3tcp6stream9TcpStreamEEINtB1e_9WriteHalfB1U_EE0Cs9MW0dUygFlO_26peer_discovery_toctou_test
FN:887,_RNCNCINvNtCscNmhOS6QYVL_12kameo_remote6handle30handle_incoming_connection_tlsINtNtNtCsh4ISjvibZbV_5tokio2io5split8ReadHalfINtNtCsb3eVN0gIh2a_12tokio_rustls6server9TlsStreamNtNtNtNtB1k_3net3tcp6stream9TcpStreamEEINtB1g_9WriteHalfB1W_EE00Cs9MW0dUygFlO_26peer_discovery_toctou_test
FN:890,_RNCNCINvNtCscNmhOS6QYVL_12kameo_remote6handle30handle_incoming_connection_tlsINtNtNtCsh4ISjvibZbV_5tokio2io5split8ReadHalfINtNtCsb3eVN0gIh2a_12tokio_rustls6server9TlsStreamNtNtNtNtB1k_3net3tcp6stream9TcpStreamEEINtB1g_9WriteHalfB1W_EE0s_0Cs9MW0dUygFlO_26peer_discovery_toctou_test
FN:406,_RNCNCNCNvNtCscNmhOS6QYVL_12kameo_remote6handle18start_gossip_timer000Cs9MW0dUygFlO_26peer_discovery_toctou_test
FN:412,_RNCNCNCNvNtCscNmhOS6QYVL_12kameo_remote6handle18start_gossip_timer00s1_0Cs9MW0dUygFlO_26peer_discovery_toctou_test
FN:507,_RNCNCNCNvNtCscNmhOS6QYVL_12kameo_remote6handle18start_gossip_timer00s2_0Cs9MW0dUygFlO_26peer_discovery_toctou_test
FN:455,_RNCNCNCNvNtCscNmhOS6QYVL_12kameo_remote6handle18start_gossip_timer00s4_0Cs9MW0dUygFlO_26peer_discovery_toctou_test
FN:528,_RNCNCNCNvNtCscNmhOS6QYVL_12kameo_remote6handle18start_gossip_timer00s5_0Cs9MW0dUygFlO_26peer_discovery_toctou_test
FN:1327,_RNCNCNCNvNtCscNmhOS6QYVL_12kameo_remote6handle23send_streaming_response000Cs9MW0dUygFlO_26peer_discovery_toctou_test
FN:372,_RNCNCNCNvNtCscNmhOS6QYVL_12kameo_remote6handle33start_gossip_server_with_listener000Cs9MW0dUygFlO_26peer_discovery_toctou_test
FN:90,_RNCNCNvMNtCscNmhOS6QYVL_12kameo_remote6handleNtB6_20GossipRegistryHandle12new_with_tls00Cs9MW0dUygFlO_26peer_discovery_toctou_test
FN:98,_RNCNCNvMNtCscNmhOS6QYVL_12kameo_remote6handleNtB6_20GossipRegistryHandle12new_with_tls0s_0Cs9MW0dUygFlO_26peer_discovery_toctou_test
FN:596,_RNCNCNvNtCscNmhOS6QYVL_12kameo_remote6handle21handle_tls_connection00Cs9MW0dUygFlO_26peer_discovery_toctou_test
FN:603,_RNCNCNvNtCscNmhOS6QYVL_12kameo_remote6handle21handle_tls_connection0s0_0Cs9MW0dUygFlO_26peer_discovery_toctou_test
FN:637,_RNCNCNvNtCscNmhOS6QYVL_12kameo_remote6handle21handle_tls_connection0s1_0Cs9MW0dUygFlO_26peer_discovery_toctou_test
FN:602,_RNCNCNvNtCscNmhOS6QYVL_12kameo_remote6handle21handle_tls_connection0s_0Cs9MW0dUygFlO_26peer_discovery_toctou_test
FN:1325,_RNCNCNvNtCscNmhOS6QYVL_12kameo_remote6handle23send_streaming_response00Cs9MW0dUygFlO_26peer_discovery_toctou_test
FN:2174,_RNCNCNvNtCscNmhOS6QYVL_12kameo_remote6handle29send_gossip_message_zero_copy00Cs9MW0dUygFlO_26peer_discovery_toctou_test
FN:54,_RNCNvMNtCscNmhOS6QYVL_12kameo_remote6handleNtB4_20GossipRegistryHandle12new_with_tls0Cs9MW0dUygFlO_26peer_discovery_toctou_test
FN:210,_RNCNvMNtCscNmhOS6QYVL_12kameo_remote6handleNtB4_20GossipRegistryHandle5stats0Cs9MW0dUygFlO_26peer_discovery_toctou_test
FN:256,_RNCNvMNtCscNmhOS6QYVL_12kameo_remote6handleNtB4_20GossipRegistryHandle9bootstrap0Cs9MW0dUygFlO_26peer_discovery_toctou_test
FN:557,_RNCNvNtCscNmhOS6QYVL_12kameo_remote6handle17handle_connection0Cs9MW0dUygFlO_26peer_discovery_toctou_test
FN:385,_RNCNvNtCscNmhOS6QYVL_12kameo_remote6handle18start_gossip_timer0Cs9MW0dUygFlO_26peer_discovery_toctou_test
FN:591,_RNCNvNtCscNmhOS6QYVL_12kameo_remote6handle21handle_tls_connection0Cs9MW0dUygFlO_26peer_discovery_toctou_test
FN:1362,_RNCNvNtCscNmhOS6QYVL_12kameo_remote6handle23handle_completed_stream0Cs9MW0dUygFlO_26peer_discovery_toctou_test
FN:1322,_RNCNvNtCscNmhOS6QYVL_12kameo_remote6handle23send_streaming_response0Cs9MW0dUygFlO_26peer_discovery_toctou_test
FN:2167,_RNCNvNtCscNmhOS6QYVL_12kameo_remote6handle29send_gossip_message_zero_copy0Cs9MW0dUygFlO_26peer_discovery_toctou_test
FN:360,_RNCNvNtCscNmhOS6QYVL_12kameo_remote6handle33start_gossip_server_with_listener0Cs9MW0dUygFlO_26peer_discovery_toctou_test
FN:1387,_RINvNtCscNmhOS6QYVL_12kameo_remote6handle25handle_streaming_v2_frameINtNtNtCsh4ISjvibZbV_5tokio2io5split8ReadHalfINtNtCsb3eVN0gIh2a_12tokio_rustls6server9TlsStreamNtNtNtNtB1b_3net3tcp6stream9TcpStreamEEECse2axp3xcI2k_30register_actor_sync_real_peers
FN:1551,_RINvNtCscNmhOS6QYVL_12kameo_remote6handle28read_message_from_tls_readerINtNtNtCsh4ISjvibZbV_5tokio2io5split8ReadHalfINtNtCsb3eVN0gIh2a_12tokio_rustls6server9TlsStreamNtNtNtNtB1e_3net3tcp6stream9TcpStreamEEECse2axp3xcI2k_30register_actor_sync_real_peers
FN:682,_RINvNtCscNmhOS6QYVL_12kameo_remote6handle30handle_incoming_connection_tlsINtNtNtCsh4ISjvibZbV_5tokio2io5split8ReadHalfINtNtCsb3eVN0gIh2a_12tokio_rustls6server9TlsStreamNtNtNtNtB1g_3net3tcp6stream9TcpStreamEEINtB1c_9WriteHalfB1S_EECse2axp3xcI2k_30register_actor_sync_real_peers
FN:1396,_RNCINvNtCscNmhOS6QYVL_12kameo_remote6handle25handle_streaming_v2_frameINtNtNtCsh4ISjvibZbV_5tokio2io5split8ReadHalfINtNtCsb3eVN0gIh2a_12tokio_rustls6server9TlsStreamNtNtNtNtB1d_3net3tcp6stream9TcpStreamEEE0Cse2axp3xcI2k_30register_actor_sync_real_peers
FN:1557,_RNCINvNtCscNmhOS6QYVL_12kameo_remote6handle28read_message_from_tls_readerINtNtNtCsh4ISjvibZbV_5tokio2io5split8ReadHalfINtNtCsb3eVN0gIh2a_12tokio_rustls6server9TlsStreamNtNtNtNtB1g_3net3tcp6stream9TcpStreamEEE0Cse2axp3xcI2k_30register_actor_sync_real_peers
FN:693,_RNCINvNtCscNmhOS6QYVL_12kameo_remote6handle30handle_incoming_connection_tlsINtNtNtCsh4ISjvibZbV_5tokio2io5split8ReadHalfINtNtCsb3eVN0gIh2a_12tokio_rustls6server9TlsStreamNtNtNtNtB1i_3net3tcp6stream9TcpStreamEEINtB1e_9WriteHalfB1U_EE0Cse2axp3xcI2k_30register_actor_sync_real_peers
FN:887,_RNCNCINvNtCscNmhOS6QYVL_12kameo_remote6handle30handle_incoming_connection_tlsINtNtNtCsh4ISjvibZbV_5tokio2io5split8ReadHalfINtNtCsb3eVN0gIh2a_12tokio_rustls6server9TlsStreamNtNtNtNtB1k_3net3tcp6stream9TcpStreamEEINtB1g_9WriteHalfB1W_EE00Cse2axp3xcI2k_30register_actor_sync_real_peers
FN:890,_RNCNCINvNtCscNmhOS6QYVL_12kameo_remote6handle30handle_incoming_connection_tlsINtNtNtCsh4ISjvibZbV_5tokio2io5split8ReadHalfINtNtCsb3eVN0gIh2a_12tokio_rustls6server9TlsStreamNtNtNtNtB1k_3net3tcp6stream9TcpStreamEEINtB1g_9WriteHalfB1W_EE0s_0Cse2axp3xcI2k_30register_actor_sync_real_peers
FN:406,_RNCNCNCNvNtCscNmhOS6QYVL_12kameo_remote6handle18start_gossip_timer000Cse2axp3xcI2k_30register_actor_sync_real_peers
FN:412,_RNCNCNCNvNtCscNmhOS6QYVL_12kameo_remote6handle18start_gossip_timer00s1_0Cse2axp3xcI2k_30register_actor_sync_real_peers
FN:507,_RNCNCNCNvNtCscNmhOS6QYVL_12kameo_remote6handle18start_gossip_timer00s2_0Cse2axp3xcI2k_30register_actor_sync_real_peers
FN:455,_RNCNCNCNvNtCscNmhOS6QYVL_12kameo_remote6handle18start_gossip_timer00s4_0Cse2axp3xcI2k_30register_actor_sync_real_peers
FN:528,_RNCNCNCNvNtCscNmhOS6QYVL_12kameo_remote6handle18start_gossip_timer00s5_0Cse2axp3xcI2k_30register_actor_sync_real_peers
FN:1327,_RNCNCNCNvNtCscNmhOS6QYVL_12kameo_remote6handle23send_streaming_response000Cse2axp3xcI2k_30register_actor_sync_real_peers
FN:372,_RNCNCNCNvNtCscNmhOS6QYVL_12kameo_remote6handle33start_gossip_server_with_listener000Cse2axp3xcI2k_30register_actor_sync_real_peers
FN:90,_RNCNCNvMNtCscNmhOS6QYVL_12kameo_remote6handleNtB6_20GossipRegistryHandle12new_with_tls00Cse2axp3xcI2k_30register_actor_sync_real_peers
FN:98,_RNCNCNvMNtCscNmhOS6QYVL_12kameo_remote6handleNtB6_20GossipRegistryHandle12new_with_tls0s_0Cse2axp3xcI2k_30register_actor_sync_real_peers
FN:596,_RNCNCNvNtCscNmhOS6QYVL_12kameo_remote6handle21handle_tls_connection00Cse2axp3xcI2k_30register_actor_sync_real_peers
FN:603,_RNCNCNvNtCscNmhOS6QYVL_12kameo_remote6handle21handle_tls_connection0s0_0Cse2axp3xcI2k_30register_actor_sync_real_peers
FN:637,_RNCNCNvNtCscNmhOS6QYVL_12kameo_remote6handle21handle_tls_connection0s1_0Cse2axp3xcI2k_30register_actor_sync_real_peers
FN:602,_RNCNCNvNtCscNmhOS6QYVL_12kameo_remote6handle21handle_tls_connection0s_0Cse2axp3xcI2k_30register_actor_sync_real_peers
FN:1325,_RNCNCNvNtCscNmhOS6QYVL_12kameo_remote6handle23send_streaming_response00Cse2axp3xcI2k_30register_actor_sync_real_peers
FN:2174,_RNCNCNvNtCscNmhOS6QYVL_12kameo_remote6handle29send_gossip_message_zero_copy00Cse2axp3xcI2k_30register_actor_sync_real_peers
FN:54,_RNCNvMNtCscNmhOS6QYVL_12kameo_remote6handleNtB4_20GossipRegistryHandle12new_with_tls0Cse2axp3xcI2k_30register_actor_sync_real_peers
FN:120,_RNCNvMNtCscNmhOS6QYVL_12kameo_remote6handleNtB4_20GossipRegistryHandle16new_with_keypair0Cse2axp3xcI2k_30register_actor_sync_real_peers
FN:205,_RNCNvMNtCscNmhOS6QYVL_12kameo_remote6handleNtB4_20GossipRegistryHandle6lookup0Cse2axp3xcI2k_30register_actor_sync_real_peers
FN:215,_RNCNvMNtCscNmhOS6QYVL_12kameo_remote6handleNtB4_20GossipRegistryHandle8add_peer0Cse2axp3xcI2k_30register_actor_sync_real_peers
FN:341,_RNCNvMNtCscNmhOS6QYVL_12kameo_remote6handleNtB4_20GossipRegistryHandle8shutdown0Cse2axp3xcI2k_30register_actor_sync_real_peers
FN:557,_RNCNvNtCscNmhOS6QYVL_12kameo_remote6handle17handle_connection0Cse2axp3xcI2k_30register_actor_sync_real_peers
FN:385,_RNCNvNtCscNmhOS6QYVL_12kameo_remote6handle18start_gossip_timer0Cse2axp3xcI2k_30register_actor_sync_real_peers
FN:591,_RNCNvNtCscNmhOS6QYVL_12kameo_remote6handle21handle_tls_connection0Cse2axp3xcI2k_30register_actor_sync_real_peers
FN:1362,_RNCNvNtCscNmhOS6QYVL_12kameo_remote6handle23handle_completed_stream0Cse2axp3xcI2k_30register_actor_sync_real_peers
FN:1322,_RNCNvNtCscNmhOS6QYVL_12kameo_remote6handle23send_streaming_response0Cse2axp3xcI2k_30register_actor_sync_real_peers
FN:2167,_RNCNvNtCscNmhOS6QYVL_12kameo_remote6handle29send_gossip_message_zero_copy0Cse2axp3xcI2k_30register_actor_sync_real_peers
FN:360,_RNCNvNtCscNmhOS6QYVL_12kameo_remote6handle33start_gossip_server_with_listener0Cse2axp3xcI2k_30register_actor_sync_real_peers
FN:1387,_RINvNtCscNmhOS6QYVL_12kameo_remote6handle25handle_streaming_v2_frameINtNtNtCsh4ISjvibZbV_5tokio2io5split8ReadHalfINtNtCsb3eVN0gIh2a_12tokio_rustls6server9TlsStreamNtNtNtNtB1b_3net3tcp6stream9TcpStreamEEECscsKZLhnnxZe_21tell_message_api_demo
FN:1551,_RINvNtCscNmhOS6QYVL_12kameo_remote6handle28read_message_from_tls_readerINtNtNtCsh4ISjvibZbV_5tokio2io5split8ReadHalfINtNtCsb3eVN0gIh2a_12tokio_rustls6server9TlsStreamNtNtNtNtB1e_3net3tcp6stream9TcpStreamEEECscsKZLhnnxZe_21tell_message_api_demo
FN:682,_RINvNtCscNmhOS6QYVL_12kameo_remote6handle30handle_incoming_connection_tlsINtNtNtCsh4ISjvibZbV_5tokio2io5split8ReadHalfINtNtCsb3eVN0gIh2a_12tokio_rustls6server9TlsStreamNtNtNtNtB1g_3net3tcp6stream9TcpStreamEEINtB1c_9WriteHalfB1S_EECscsKZLhnnxZe_21tell_message_api_demo
FN:1396,_RNCINvNtCscNmhOS6QYVL_12kameo_remote6handle25handle_streaming_v2_frameINtNtNtCsh4ISjvibZbV_5tokio2io5split8ReadHalfINtNtCsb3eVN0gIh2a_12tokio_rustls6server9TlsStreamNtNtNtNtB1d_3net3tcp6stream9TcpStreamEEE0CscsKZLhnnxZe_21tell_message_api_demo
FN:1557,_RNCINvNtCscNmhOS6QYVL_12kameo_remote6handle28read_message_from_tls_readerINtNtNtCsh4ISjvibZbV_5tokio2io5split8ReadHalfINtNtCsb3eVN0gIh2a_12tokio_rustls6server9TlsStreamNtNtNtNtB1g_3net3tcp6stream9TcpStreamEEE0CscsKZLhnnxZe_21tell_message_api_demo
FN:693,_RNCINvNtCscNmhOS6QYVL_12kameo_remote6handle30handle_incoming_connection_tlsINtNtNtCsh4ISjvibZbV_5tokio2io5split8ReadHalfINtNtCsb3eVN0gIh2a_12tokio_rustls6server9TlsStreamNtNtNtNtB1i_3net3tcp6stream9TcpStreamEEINtB1e_9WriteHalfB1U_EE0CscsKZLhnnxZe_21tell_message_api_demo
FN:887,_RNCNCINvNtCscNmhOS6QYVL_12kameo_remote6handle30handle_incoming_connection_tlsINtNtNtCsh4ISjvibZbV_5tokio2io5split8ReadHalfINtNtCsb3eVN0gIh2a_12tokio_rustls6server9TlsStreamNtNtNtNtB1k_3net3tcp6stream9TcpStreamEEINtB1g_9WriteHalfB1W_EE00CscsKZLhnnxZe_21tell_message_api_demo
FN:890,_RNCNCINvNtCscNmhOS6QYVL_12kameo_remote6handle30handle_incoming_connection_tlsINtNtNtCsh4ISjvibZbV_5tokio2io5split8ReadHalfINtNtCsb3eVN0gIh2a_12tokio_rustls6server9TlsStreamNtNtNtNtB1k_3net3tcp6stream9TcpStreamEEINtB1g_9WriteHalfB1W_EE0s_0CscsKZLhnnxZe_21tell_message_api_demo
FN:406,_RNCNCNCNvNtCscNmhOS6QYVL_12kameo_remote6handle18start_gossip_timer000CscsKZLhnnxZe_21tell_message_api_demo
FN:412,_RNCNCNCNvNtCscNmhOS6QYVL_12kameo_remote6handle18start_gossip_timer00s1_0CscsKZLhnnxZe_21tell_message_api_demo
FN:507,_RNCNCNCNvNtCscNmhOS6QYVL_12kameo_remote6handle18start_gossip_timer00s2_0CscsKZLhnnxZe_21tell_message_api_demo
FN:455,_RNCNCNCNvNtCscNmhOS6QYVL_12kameo_remote6handle18start_gossip_timer00s4_0CscsKZLhnnxZe_21tell_message_api_demo
FN:528,_RNCNCNCNvNtCscNmhOS6QYVL_12kameo_remote6handle18start_gossip_timer00s5_0CscsKZLhnnxZe_21tell_message_api_demo
FN:1327,_RNCNCNCNvNtCscNmhOS6QYVL_12kameo_remote6handle23send_streaming_response000CscsKZLhnnxZe_21tell_message_api_demo
FN:372,_RNCNCNCNvNtCscNmhOS6QYVL_12kameo_remote6handle33start_gossip_server_with_listener000CscsKZLhnnxZe_21tell_message_api_demo
FN:90,_RNCNCNvMNtCscNmhOS6QYVL_12kameo_remote6handleNtB6_20GossipRegistryHandle12new_with_tls00CscsKZLhnnxZe_21tell_message_api_demo
FN:98,_RNCNCNvMNtCscNmhOS6QYVL_12kameo_remote6handleNtB6_20GossipRegistryHandle12new_with_tls0s_0CscsKZLhnnxZe_21tell_message_api_demo
FN:596,_RNCNCNvNtCscNmhOS6QYVL_12kameo_remote6handle21handle_tls_connection00CscsKZLhnnxZe_21tell_message_api_demo
FN:603,_RNCNCNvNtCscNmhOS6QYVL_12kameo_remote6handle21handle_tls_connection0s0_0CscsKZLhnnxZe_21tell_message_api_demo
FN:637,_RNCNCNvNtCscNmhOS6QYVL_12kameo_remote6handle21handle_tls_connection0s1_0CscsKZLhnnxZe_21tell_message_api_demo
FN:602,_RNCNCNvNtCscNmhOS6QYVL_12kameo_remote6handle21handle_tls_connection0s_0CscsKZLhnnxZe_21tell_message_api_demo
FN:1325,_RNCNCNvNtCscNmhOS6QYVL_12kameo_remote6handle23send_streaming_response00CscsKZLhnnxZe_21tell_message_api_demo
FN:2174,_RNCNCNvNtCscNmhOS6QYVL_12kameo_remote6handle29send_gossip_message_zero_copy00CscsKZLhnnxZe_21tell_message_api_demo
FN:54,_RNCNvMNtCscNmhOS6QYVL_12kameo_remote6handleNtB4_20GossipRegistryHandle12new_with_tls0CscsKZLhnnxZe_21tell_message_api_demo
FN:234,_RNCNvMNtCscNmhOS6QYVL_12kameo_remote6handleNtB4_20GossipRegistryHandle14get_connection0CscsKZLhnnxZe_21tell_message_api_demo
FN:175,_RNCNvMNtCscNmhOS6QYVL_12kameo_remote6handleNtB4_20GossipRegistryHandle15register_urgent0CscsKZLhnnxZe_21tell_message_api_demo
FN:120,_RNCNvMNtCscNmhOS6QYVL_12kameo_remote6handleNtB4_20GossipRegistryHandle16new_with_keypair0CscsKZLhnnxZe_21tell_message_api_demo
FN:205,_RNCNvMNtCscNmhOS6QYVL_12kameo_remote6handleNtB4_20GossipRegistryHandle6lookup0CscsKZLhnnxZe_21tell_message_api_demo
FN:341,_RNCNvMNtCscNmhOS6QYVL_12kameo_remote6handleNtB4_20GossipRegistryHandle8shutdown0CscsKZLhnnxZe_21tell_message_api_demo
FN:557,_RNCNvNtCscNmhOS6QYVL_12kameo_remote6handle17handle_connection0CscsKZLhnnxZe_21tell_message_api_demo
FN:385,_RNCNvNtCscNmhOS6QYVL_12kameo_remote6handle18start_gossip_timer0CscsKZLhnnxZe_21tell_message_api_demo
FN:591,_RNCNvNtCscNmhOS6QYVL_12kameo_remote6handle21handle_tls_connection0CscsKZLhnnxZe_21tell_message_api_demo
FN:1362,_RNCNvNtCscNmhOS6QYVL_12kameo_remote6handle23handle_completed_stream0CscsKZLhnnxZe_21tell_message_api_demo
FN:1322,_RNCNvNtCscNmhOS6QYVL_12kameo_remote6handle23send_streaming_response0CscsKZLhnnxZe_21tell_message_api_demo
FN:2167,_RNCNvNtCscNmhOS6QYVL_12kameo_remote6handle29send_gossip_message_zero_copy0CscsKZLhnnxZe_21tell_message_api_demo
FN:360,_RNCNvNtCscNmhOS6QYVL_12kameo_remote6handle33start_gossip_server_with_listener0CscsKZLhnnxZe_21tell_message_api_demo
FN:1387,_RINvNtCscNmhOS6QYVL_12kameo_remote6handle25handle_streaming_v2_frameINtNtNtCsh4ISjvibZbV_5tokio2io5split8ReadHalfINtNtCsb3eVN0gIh2a_12tokio_rustls6server9TlsStreamNtNtNtNtB1b_3net3tcp6stream9TcpStreamEEECs6e0SCmjIPsc_21tell_with_lookup_demo
FN:1551,_RINvNtCscNmhOS6QYVL_12kameo_remote6handle28read_message_from_tls_readerINtNtNtCsh4ISjvibZbV_5tokio2io5split8ReadHalfINtNtCsb3eVN0gIh2a_12tokio_rustls6server9TlsStreamNtNtNtNtB1e_3net3tcp6stream9TcpStreamEEECs6e0SCmjIPsc_21tell_with_lookup_demo
FN:682,_RINvNtCscNmhOS6QYVL_12kameo_remote6handle30handle_incoming_connection_tlsINtNtNtCsh4ISjvibZbV_5tokio2io5split8ReadHalfINtNtCsb3eVN0gIh2a_12tokio_rustls6server9TlsStreamNtNtNtNtB1g_3net3tcp6stream9TcpStreamEEINtB1c_9WriteHalfB1S_EECs6e0SCmjIPsc_21tell_with_lookup_demo
FN:1396,_RNCINvNtCscNmhOS6QYVL_12kameo_remote6handle25handle_streaming_v2_frameINtNtNtCsh4ISjvibZbV_5tokio2io5split8ReadHalfINtNtCsb3eVN0gIh2a_12tokio_rustls6server9TlsStreamNtNtNtNtB1d_3net3tcp6stream9TcpStreamEEE0Cs6e0SCmjIPsc_21tell_with_lookup_demo
FN:1557,_RNCINvNtCscNmhOS6QYVL_12kameo_remote6handle28read_message_from_tls_readerINtNtNtCsh4ISjvibZbV_5tokio2io5split8ReadHalfINtNtCsb3eVN0gIh2a_12tokio_rustls6server9TlsStreamNtNtNtNtB1g_3net3tcp6stream9TcpStreamEEE0Cs6e0SCmjIPsc_21tell_with_lookup_demo
FN:693,_RNCINvNtCscNmhOS6QYVL_12kameo_remote6handle30handle_incoming_connection_tlsINtNtNtCsh4ISjvibZbV_5tokio2io5split8ReadHalfINtNtCsb3eVN0gIh2a_12tokio_rustls6server9TlsStreamNtNtNtNtB1i_3net3tcp6stream9TcpStreamEEINtB1e_9WriteHalfB1U_EE0Cs6e0SCmjIPsc_21tell_with_lookup_demo
FN:887,_RNCNCINvNtCscNmhOS6QYVL_12kameo_remote6handle30handle_incoming_connection_tlsINtNtNtCsh4ISjvibZbV_5tokio2io5split8ReadHalfINtNtCsb3eVN0gIh2a_12tokio_rustls6server9TlsStreamNtNtNtNtB1k_3net3tcp6stream9TcpStreamEEINtB1g_9WriteHalfB1W_EE00Cs6e0SCmjIPsc_21tell_with_lookup_demo
FN:890,_RNCNCINvNtCscNmhOS6QYVL_12kameo_remote6handle30handle_incoming_connection_tlsINtNtNtCsh4ISjvibZbV_5tokio2io5split8ReadHalfINtNtCsb3eVN0gIh2a_12tokio_rustls6server9TlsStreamNtNtNtNtB1k_3net3tcp6stream9TcpStreamEEINtB1g_9WriteHalfB1W_EE0s_0Cs6e0SCmjIPsc_21tell_with_lookup_demo
FN:406,_RNCNCNCNvNtCscNmhOS6QYVL_12kameo_remote6handle18start_gossip_timer000Cs6e0SCmjIPsc_21tell_with_lookup_demo
FN:412,_RNCNCNCNvNtCscNmhOS6QYVL_12kameo_remote6handle18start_gossip_timer00s1_0Cs6e0SCmjIPsc_21tell_with_lookup_demo
FN:507,_RNCNCNCNvNtCscNmhOS6QYVL_12kameo_remote6handle18start_gossip_timer00s2_0Cs6e0SCmjIPsc_21tell_with_lookup_demo
FN:455,_RNCNCNCNvNtCscNmhOS6QYVL_12kameo_remote6handle18start_gossip_timer00s4_0Cs6e0SCmjIPsc_21tell_with_lookup_demo
FN:528,_RNCNCNCNvNtCscNmhOS6QYVL_12kameo_remote6handle18start_gossip_timer00s5_0Cs6e0SCmjIPsc_21tell_with_lookup_demo
FN:1327,_RNCNCNCNvNtCscNmhOS6QYVL_12kameo_remote6handle23send_streaming_response000Cs6e0SCmjIPsc_21tell_with_lookup_demo
FN:372,_RNCNCNCNvNtCscNmhOS6QYVL_12kameo_remote6handle33start_gossip_server_with_listener000Cs6e0SCmjIPsc_21tell_with_lookup_demo
FN:90,_RNCNCNvMNtCscNmhOS6QYVL_12kameo_remote6handleNtB6_20GossipRegistryHandle12new_with_tls00Cs6e0SCmjIPsc_21tell_with_lookup_demo
FN:98,_RNCNCNvMNtCscNmhOS6QYVL_12kameo_remote6handleNtB6_20GossipRegistryHandle12new_with_tls0s_0Cs6e0SCmjIPsc_21tell_with_lookup_demo
FN:596,_RNCNCNvNtCscNmhOS6QYVL_12kameo_remote6handle21handle_tls_connection00Cs6e0SCmjIPsc_21tell_with_lookup_demo
FN:603,_RNCNCNvNtCscNmhOS6QYVL_12kameo_remote6handle21handle_tls_connection0s0_0Cs6e0SCmjIPsc_21tell_with_lookup_demo
FN:637,_RNCNCNvNtCscNmhOS6QYVL_12kameo_remote6handle21handle_tls_connection0s1_0Cs6e0SCmjIPsc_21tell_with_lookup_demo
FN:602,_RNCNCNvNtCscNmhOS6QYVL_12kameo_remote6handle21handle_tls_connection0s_0Cs6e0SCmjIPsc_21tell_with_lookup_demo
FN:1325,_RNCNCNvNtCscNmhOS6QYVL_12kameo_remote6handle23send_streaming_response00Cs6e0SCmjIPsc_21tell_with_lookup_demo
FN:2174,_RNCNCNvNtCscNmhOS6QYVL_12kameo_remote6handle29send_gossip_message_zero_copy00Cs6e0SCmjIPsc_21tell_with_lookup_demo
FN:54,_RNCNvMNtCscNmhOS6QYVL_12kameo_remote6handleNtB4_20GossipRegistryHandle12new_with_tls0Cs6e0SCmjIPsc_21tell_with_lookup_demo
FN:234,_RNCNvMNtCscNmhOS6QYVL_12kameo_remote6handleNtB4_20GossipRegistryHandle14get_connection0Cs6e0SCmjIPsc_21tell_with_lookup_demo
FN:175,_RNCNvMNtCscNmhOS6QYVL_12kameo_remote6handleNtB4_20GossipRegistryHandle15register_urgent0Cs6e0SCmjIPsc_21tell_with_lookup_demo
FN:120,_RNCNvMNtCscNmhOS6QYVL_12kameo_remote6handleNtB4_20GossipRegistryHandle16new_with_keypair0Cs6e0SCmjIPsc_21tell_with_lookup_demo
FN:205,_RNCNvMNtCscNmhOS6QYVL_12kameo_remote6handleNtB4_20GossipRegistryHandle6lookup0Cs6e0SCmjIPsc_21tell_with_lookup_demo
FN:215,_RNCNvMNtCscNmhOS6QYVL_12kameo_remote6handleNtB4_20GossipRegistryHandle8add_peer0Cs6e0SCmjIPsc_21tell_with_lookup_demo
FN:341,_RNCNvMNtCscNmhOS6QYVL_12kameo_remote6handleNtB4_20GossipRegistryHandle8shutdown0Cs6e0SCmjIPsc_21tell_with_lookup_demo
FN:557,_RNCNvNtCscNmhOS6QYVL_12kameo_remote6handle17handle_connection0Cs6e0SCmjIPsc_21tell_with_lookup_demo
FN:385,_RNCNvNtCscNmhOS6QYVL_12kameo_remote6handle18start_gossip_timer0Cs6e0SCmjIPsc_21tell_with_lookup_demo
FN:591,_RNCNvNtCscNmhOS6QYVL_12kameo_remote6handle21handle_tls_connection0Cs6e0SCmjIPsc_21tell_with_lookup_demo
FN:1362,_RNCNvNtCscNmhOS6QYVL_12kameo_remote6handle23handle_completed_stream0Cs6e0SCmjIPsc_21tell_with_lookup_demo
FN:1322,_RNCNvNtCscNmhOS6QYVL_12kameo_remote6handle23send_streaming_response0Cs6e0SCmjIPsc_21tell_with_lookup_demo
FN:2167,_RNCNvNtCscNmhOS6QYVL_12kameo_remote6handle29send_gossip_message_zero_copy0Cs6e0SCmjIPsc_21tell_with_lookup_demo
FN:360,_RNCNvNtCscNmhOS6QYVL_12kameo_remote6handle33start_gossip_server_with_listener0Cs6e0SCmjIPsc_21tell_with_lookup_demo
FN:1387,_RINvNtCscNmhOS6QYVL_12kameo_remote6handle25handle_streaming_v2_frameINtNtNtCsh4ISjvibZbV_5tokio2io5split8ReadHalfINtNtCsb3eVN0gIh2a_12tokio_rustls6server9TlsStreamNtNtNtNtB1b_3net3tcp6stream9TcpStreamEEECsk9ZdOj1Nc7t_24test_peer_initialization
FN:1551,_RINvNtCscNmhOS6QYVL_12kameo_remote6handle28read_message_from_tls_readerINtNtNtCsh4ISjvibZbV_5tokio2io5split8ReadHalfINtNtCsb3eVN0gIh2a_12tokio_rustls6server9TlsStreamNtNtNtNtB1e_3net3tcp6stream9TcpStreamEEECsk9ZdOj1Nc7t_24test_peer_initialization
FN:682,_RINvNtCscNmhOS6QYVL_12kameo_remote6handle30handle_incoming_connection_tlsINtNtNtCsh4ISjvibZbV_5tokio2io5split8ReadHalfINtNtCsb3eVN0gIh2a_12tokio_rustls6server9TlsStreamNtNtNtNtB1g_3net3tcp6stream9TcpStreamEEINtB1c_9WriteHalfB1S_EECsk9ZdOj1Nc7t_24test_peer_initialization
FN:1396,_RNCINvNtCscNmhOS6QYVL_12kameo_remote6handle25handle_streaming_v2_frameINtNtNtCsh4ISjvibZbV_5tokio2io5split8ReadHalfINtNtCsb3eVN0gIh2a_12tokio_rustls6server9TlsStreamNtNtNtNtB1d_3net3tcp6stream9TcpStreamEEE0Csk9ZdOj1Nc7t_24test_peer_initialization
FN:1557,_RNCINvNtCscNmhOS6QYVL_12kameo_remote6handle28read_message_from_tls_readerINtNtNtCsh4ISjvibZbV_5tokio2io5split8ReadHalfINtNtCsb3eVN0gIh2a_12tokio_rustls6server9TlsStreamNtNtNtNtB1g_3net3tcp6stream9TcpStreamEEE0Csk9ZdOj1Nc7t_24test_peer_initialization
FN:693,_RNCINvNtCscNmhOS6QYVL_12kameo_remote6handle30handle_incoming_connection_tlsINtNtNtCsh4ISjvibZbV_5tokio2io5split8ReadHalfINtNtCsb3eVN0gIh2a_12tokio_rustls6server9TlsStreamNtNtNtNtB1i_3net3tcp6stream9TcpStreamEEINtB1e_9WriteHalfB1U_EE0Csk9ZdOj1Nc7t_24test_peer_initialization
FN:887,_RNCNCINvNtCscNmhOS6QYVL_12kameo_remote6handle30handle_incoming_connection_tlsINtNtNtCsh4ISjvibZbV_5tokio2io5split8ReadHalfINtNtCsb3eVN0gIh2a_12tokio_rustls6server9TlsStreamNtNtNtNtB1k_3net3tcp6stream9TcpStreamEEINtB1g_9WriteHalfB1W_EE00Csk9ZdOj1Nc7t_24test_peer_initialization
FN:890,_RNCNCINvNtCscNmhOS6QYVL_12kameo_remote6handle30handle_incoming_connection_tlsINtNtNtCsh4ISjvibZbV_5tokio2io5split8ReadHalfINtNtCsb3eVN0gIh2a_12tokio_rustls6server9TlsStreamNtNtNtNtB1k_3net3tcp6stream9TcpStreamEEINtB1g_9WriteHalfB1W_EE0s_0Csk9ZdOj1Nc7t_24test_peer_initialization
FN:406,_RNCNCNCNvNtCscNmhOS6QYVL_12kameo_remote6handle18start_gossip_timer000Csk9ZdOj1Nc7t_24test_peer_initialization
FN:412,_RNCNCNCNvNtCscNmhOS6QYVL_12kameo_remote6handle18start_gossip_timer00s1_0Csk9ZdOj1Nc7t_24test_peer_initialization
FN:507,_RNCNCNCNvNtCscNmhOS6QYVL_12kameo_remote6handle18start_gossip_timer00s2_0Csk9ZdOj1Nc7t_24test_peer_initialization
FN:455,_RNCNCNCNvNtCscNmhOS6QYVL_12kameo_remote6handle18start_gossip_timer00s4_0Csk9ZdOj1Nc7t_24test_peer_initialization
FN:528,_RNCNCNCNvNtCscNmhOS6QYVL_12kameo_remote6handle18start_gossip_timer00s5_0Csk9ZdOj1Nc7t_24test_peer_initialization
FN:1327,_RNCNCNCNvNtCscNmhOS6QYVL_12kameo_remote6handle23send_streaming_response000Csk9ZdOj1Nc7t_24test_peer_initialization
FN:372,_RNCNCNCNvNtCscNmhOS6QYVL_12kameo_remote6handle33start_gossip_server_with_listener000Csk9ZdOj1Nc7t_24test_peer_initialization
FN:90,_RNCNCNvMNtCscNmhOS6QYVL_12kameo_remote6handleNtB6_20GossipRegistryHandle12new_with_tls00Csk9ZdOj1Nc7t_24test_peer_initialization
FN:98,_RNCNCNvMNtCscNmhOS6QYVL_12kameo_remote6handleNtB6_20GossipRegistryHandle12new_with_tls0s_0Csk9ZdOj1Nc7t_24test_peer_initialization
FN:596,_RNCNCNvNtCscNmhOS6QYVL_12kameo_remote6handle21handle_tls_connection00Csk9ZdOj1Nc7t_24test_peer_initialization
FN:603,_RNCNCNvNtCscNmhOS6QYVL_12kameo_remote6handle21handle_tls_connection0s0_0Csk9ZdOj1Nc7t_24test_peer_initialization
FN:637,_RNCNCNvNtCscNmhOS6QYVL_12kameo_remote6handle21handle_tls_connection0s1_0Csk9ZdOj1Nc7t_24test_peer_initialization
FN:602,_RNCNCNvNtCscNmhOS6QYVL_12kameo_remote6handle21handle_tls_connection0s_0Csk9ZdOj1Nc7t_24test_peer_initialization
FN:1325,_RNCNCNvNtCscNmhOS6QYVL_12kameo_remote6handle23send_streaming_response00Csk9ZdOj1Nc7t_24test_peer_initialization
FN:2174,_RNCNCNvNtCscNmhOS6QYVL_12kameo_remote6handle29send_gossip_message_zero_copy00Csk9ZdOj1Nc7t_24test_peer_initialization
FN:54,_RNCNvMNtCscNmhOS6QYVL_12kameo_remote6handleNtB4_20GossipRegistryHandle12new_with_tls0Csk9ZdOj1Nc7t_24test_peer_initialization
FN:205,_RNCNvMNtCscNmhOS6QYVL_12kameo_remote6handleNtB4_20GossipRegistryHandle6lookup0Csk9ZdOj1Nc7t_24test_peer_initialization
FN:215,_RNCNvMNtCscNmhOS6QYVL_12kameo_remote6handleNtB4_20GossipRegistryHandle8add_peer0Csk9ZdOj1Nc7t_24test_peer_initialization
FN:149,_RNCNvMNtCscNmhOS6QYVL_12kameo_remote6handleNtB4_20GossipRegistryHandle8register0Csk9ZdOj1Nc7t_24test_peer_initialization
FN:341,_RNCNvMNtCscNmhOS6QYVL_12kameo_remote6handleNtB4_20GossipRegistryHandle8shutdown0Csk9ZdOj1Nc7t_24test_peer_initialization
FN:557,_RNCNvNtCscNmhOS6QYVL_12kameo_remote6handle17handle_connection0Csk9ZdOj1Nc7t_24test_peer_initialization
FN:385,_RNCNvNtCscNmhOS6QYVL_12kameo_remote6handle18start_gossip_timer0Csk9ZdOj1Nc7t_24test_peer_initialization
FN:591,_RNCNvNtCscNmhOS6QYVL_12kameo_remote6handle21handle_tls_connection0Csk9ZdOj1Nc7t_24test_peer_initialization
FN:1362,_RNCNvNtCscNmhOS6QYVL_12kameo_remote6handle23handle_completed_stream0Csk9ZdOj1Nc7t_24test_peer_initialization
FN:1322,_RNCNvNtCscNmhOS6QYVL_12kameo_remote6handle23send_streaming_response0Csk9ZdOj1Nc7t_24test_peer_initialization
FN:2167,_RNCNvNtCscNmhOS6QYVL_12kameo_remote6handle29send_gossip_message_zero_copy0Csk9ZdOj1Nc7t_24test_peer_initialization
FN:360,_RNCNvNtCscNmhOS6QYVL_12kameo_remote6handle33start_gossip_server_with_listener0Csk9ZdOj1Nc7t_24test_peer_initialization
FN:1387,_RINvNtCscNmhOS6QYVL_12kameo_remote6handle25handle_streaming_v2_frameINtNtNtCsh4ISjvibZbV_5tokio2io5split8ReadHalfINtNtCsb3eVN0gIh2a_12tokio_rustls6server9TlsStreamNtNtNtNtB1b_3net3tcp6stream9TcpStreamEEECsi8FU15tTkCn_12timing_debug
FN:1551,_RINvNtCscNmhOS6QYVL_12kameo_remote6handle28read_message_from_tls_readerINtNtNtCsh4ISjvibZbV_5tokio2io5split8ReadHalfINtNtCsb3eVN0gIh2a_12tokio_rustls6server9TlsStreamNtNtNtNtB1e_3net3tcp6stream9TcpStreamEEECsi8FU15tTkCn_12timing_debug
FN:682,_RINvNtCscNmhOS6QYVL_12kameo_remote6handle30handle_incoming_connection_tlsINtNtNtCsh4ISjvibZbV_5tokio2io5split8ReadHalfINtNtCsb3eVN0gIh2a_12tokio_rustls6server9TlsStreamNtNtNtNtB1g_3net3tcp6stream9TcpStreamEEINtB1c_9WriteHalfB1S_EECsi8FU15tTkCn_12timing_debug
FN:1396,_RNCINvNtCscNmhOS6QYVL_12kameo_remote6handle25handle_streaming_v2_frameINtNtNtCsh4ISjvibZbV_5tokio2io5split8ReadHalfINtNtCsb3eVN0gIh2a_12tokio_rustls6server9TlsStreamNtNtNtNtB1d_3net3tcp6stream9TcpStreamEEE0Csi8FU15tTkCn_12timing_debug
FN:1557,_RNCINvNtCscNmhOS6QYVL_12kameo_remote6handle28read_message_from_tls_readerINtNtNtCsh4ISjvibZbV_5tokio2io5split8ReadHalfINtNtCsb3eVN0gIh2a_12tokio_rustls6server9TlsStreamNtNtNtNtB1g_3net3tcp6stream9TcpStreamEEE0Csi8FU15tTkCn_12timing_debug
FN:693,_RNCINvNtCscNmhOS6QYVL_12kameo_remote6handle30handle_incoming_connection_tlsINtNtNtCsh4ISjvibZbV_5tokio2io5split8ReadHalfINtNtCsb3eVN0gIh2a_12tokio_rustls6server9TlsStreamNtNtNtNtB1i_3net3tcp6stream9TcpStreamEEINtB1e_9WriteHalfB1U_EE0Csi8FU15tTkCn_12timing_debug
FN:887,_RNCNCINvNtCscNmhOS6QYVL_12kameo_remote6handle30handle_incoming_connection_tlsINtNtNtCsh4ISjvibZbV_5tokio2io5split8ReadHalfINtNtCsb3eVN0gIh2a_12tokio_rustls6server9TlsStreamNtNtNtNtB1k_3net3tcp6stream9TcpStreamEEINtB1g_9WriteHalfB1W_EE00Csi8FU15tTkCn_12timing_debug
FN:890,_RNCNCINvNtCscNmhOS6QYVL_12kameo_remote6handle30handle_incoming_connection_tlsINtNtNtCsh4ISjvibZbV_5tokio2io5split8ReadHalfINtNtCsb3eVN0gIh2a_12tokio_rustls6server9TlsStreamNtNtNtNtB1k_3net3tcp6stream9TcpStreamEEINtB1g_9WriteHalfB1W_EE0s_0Csi8FU15tTkCn_12timing_debug
FN:406,_RNCNCNCNvNtCscNmhOS6QYVL_12kameo_remote6handle18start_gossip_timer000Csi8FU15tTkCn_12timing_debug
FN:412,_RNCNCNCNvNtCscNmhOS6QYVL_12kameo_remote6handle18start_gossip_timer00s1_0Csi8FU15tTkCn_12timing_debug
FN:507,_RNCNCNCNvNtCscNmhOS6QYVL_12kameo_remote6handle18start_gossip_timer00s2_0Csi8FU15tTkCn_12timing_debug
FN:455,_RNCNCNCNvNtCscNmhOS6QYVL_12kameo_remote6handle18start_gossip_timer00s4_0Csi8FU15tTkCn_12timing_debug
FN:528,_RNCNCNCNvNtCscNmhOS6QYVL_12kameo_remote6handle18start_gossip_timer00s5_0Csi8FU15tTkCn_12timing_debug
FN:1327,_RNCNCNCNvNtCscNmhOS6QYVL_12kameo_remote6handle23send_streaming_response000Csi8FU15tTkCn_12timing_debug
FN:372,_RNCNCNCNvNtCscNmhOS6QYVL_12kameo_remote6handle33start_gossip_server_with_listener000Csi8FU15tTkCn_12timing_debug
FN:90,_RNCNCNvMNtCscNmhOS6QYVL_12kameo_remote6handleNtB6_20GossipRegistryHandle12new_with_tls00Csi8FU15tTkCn_12timing_debug
FN:98,_RNCNCNvMNtCscNmhOS6QYVL_12kameo_remote6handleNtB6_20GossipRegistryHandle12new_with_tls0s_0Csi8FU15tTkCn_12timing_debug
FN:596,_RNCNCNvNtCscNmhOS6QYVL_12kameo_remote6handle21handle_tls_connection00Csi8FU15tTkCn_12timing_debug
FN:603,_RNCNCNvNtCscNmhOS6QYVL_12kameo_remote6handle21handle_tls_connection0s0_0Csi8FU15tTkCn_12timing_debug
FN:637,_RNCNCNvNtCscNmhOS6QYVL_12kameo_remote6handle21handle_tls_connection0s1_0Csi8FU15tTkCn_12timing_debug
FN:602,_RNCNCNvNtCscNmhOS6QYVL_12kameo_remote6handle21handle_tls_connection0s_0Csi8FU15tTkCn_12timing_debug
FN:1325,_RNCNCNvNtCscNmhOS6QYVL_12kameo_remote6handle23send_streaming_response00Csi8FU15tTkCn_12timing_debug
FN:2174,_RNCNCNvNtCscNmhOS6QYVL_12kameo_remote6handle29send_gossip_message_zero_copy00Csi8FU15tTkCn_12timing_debug
FN:54,_RNCNvMNtCscNmhOS6QYVL_12kameo_remote6handleNtB4_20GossipRegistryHandle12new_with_tls0Csi8FU15tTkCn_12timing_debug
FN:175,_RNCNvMNtCscNmhOS6QYVL_12kameo_remote6handleNtB4_20GossipRegistryHandle15register_urgent0Csi8FU15tTkCn_12timing_debug
FN:120,_RNCNvMNtCscNmhOS6QYVL_12kameo_remote6handleNtB4_20GossipRegistryHandle16new_with_keypair0Csi8FU15tTkCn_12timing_debug
FN:205,_RNCNvMNtCscNmhOS6QYVL_12kameo_remote6handleNtB4_20GossipRegistryHandle6lookup0Csi8FU15tTkCn_12timing_debug
FN:215,_RNCNvMNtCscNmhOS6QYVL_12kameo_remote6handleNtB4_20GossipRegistryHandle8add_peer0Csi8FU15tTkCn_12timing_debug
FN:341,_RNCNvMNtCscNmhOS6QYVL_12kameo_remote6handleNtB4_20GossipRegistryHandle8shutdown0Csi8FU15tTkCn_12timing_debug
FN:557,_RNCNvNtCscNmhOS6QYVL_12kameo_remote6handle17handle_connection0Csi8FU15tTkCn_12timing_debug
FN:385,_RNCNvNtCscNmhOS6QYVL_12kameo_remote6handle18start_gossip_timer0Csi8FU15tTkCn_12timing_debug
FN:591,_RNCNvNtCscNmhOS6QYVL_12kameo_remote6handle21handle_tls_connection0Csi8FU15tTkCn_12timing_debug
FN:1362,_RNCNvNtCscNmhOS6QYVL_12kameo_remote6handle23handle_completed_stream0Csi8FU15tTkCn_12timing_debug
FN:1322,_RNCNvNtCscNmhOS6QYVL_12kameo_remote6handle23send_streaming_response0Csi8FU15tTkCn_12timing_debug
FN:2167,_RNCNvNtCscNmhOS6QYVL_12kameo_remote6handle29send_gossip_message_zero_copy0Csi8FU15tTkCn_12timing_debug
FN:360,_RNCNvNtCscNmhOS6QYVL_12kameo_remote6handle33start_gossip_server_with_listener0Csi8FU15tTkCn_12timing_debug
FN:1387,_RINvNtCscNmhOS6QYVL_12kameo_remote6handle25handle_streaming_v2_frameINtNtNtCsh4ISjvibZbV_5tokio2io5split8ReadHalfINtNtCsb3eVN0gIh2a_12tokio_rustls6server9TlsStreamNtNtNtNtB1b_3net3tcp6stream9TcpStreamEEECseXnjFWXUgcY_15tls_integration
FN:1551,_RINvNtCscNmhOS6QYVL_12kameo_remote6handle28read_message_from_tls_readerINtNtNtCsh4ISjvibZbV_5tokio2io5split8ReadHalfINtNtCsb3eVN0gIh2a_12tokio_rustls6server9TlsStreamNtNtNtNtB1e_3net3tcp6stream9TcpStreamEEECseXnjFWXUgcY_15tls_integration
FN:682,_RINvNtCscNmhOS6QYVL_12kameo_remote6handle30handle_incoming_connection_tlsINtNtNtCsh4ISjvibZbV_5tokio2io5split8ReadHalfINtNtCsb3eVN0gIh2a_12tokio_rustls6server9TlsStreamNtNtNtNtB1g_3net3tcp6stream9TcpStreamEEINtB1c_9WriteHalfB1S_EECseXnjFWXUgcY_15tls_integration
FN:1396,_RNCINvNtCscNmhOS6QYVL_12kameo_remote6handle25handle_streaming_v2_frameINtNtNtCsh4ISjvibZbV_5tokio2io5split8ReadHalfINtNtCsb3eVN0gIh2a_12tokio_rustls6server9TlsStreamNtNtNtNtB1d_3net3tcp6stream9TcpStreamEEE0CseXnjFWXUgcY_15tls_integration
FN:1557,_RNCINvNtCscNmhOS6QYVL_12kameo_remote6handle28read_message_from_tls_readerINtNtNtCsh4ISjvibZbV_5tokio2io5split8ReadHalfINtNtCsb3eVN0gIh2a_12tokio_rustls6server9TlsStreamNtNtNtNtB1g_3net3tcp6stream9TcpStreamEEE0CseXnjFWXUgcY_15tls_integration
FN:693,_RNCINvNtCscNmhOS6QYVL_12kameo_remote6handle30handle_incoming_connection_tlsINtNtNtCsh4ISjvibZbV_5tokio2io5split8ReadHalfINtNtCsb3eVN0gIh2a_12tokio_rustls6server9TlsStreamNtNtNtNtB1i_3net3tcp6stream9TcpStreamEEINtB1e_9WriteHalfB1U_EE0CseXnjFWXUgcY_15tls_integration
FN:887,_RNCNCINvNtCscNmhOS6QYVL_12kameo_remote6handle30handle_incoming_connection_tlsINtNtNtCsh4ISjvibZbV_5tokio2io5split8ReadHalfINtNtCsb3eVN0gIh2a_12tokio_rustls6server9TlsStreamNtNtNtNtB1k_3net3tcp6stream9TcpStreamEEINtB1g_9WriteHalfB1W_EE00CseXnjFWXUgcY_15tls_integration
FN:890,_RNCNCINvNtCscNmhOS6QYVL_12kameo_remote6handle30handle_incoming_connection_tlsINtNtNtCsh4ISjvibZbV_5tokio2io5split8ReadHalfINtNtCsb3eVN0gIh2a_12tokio_rustls6server9TlsStreamNtNtNtNtB1k_3net3tcp6stream9TcpStreamEEINtB1g_9WriteHalfB1W_EE0s_0CseXnjFWXUgcY_15tls_integration
FN:406,_RNCNCNCNvNtCscNmhOS6QYVL_12kameo_remote6handle18start_gossip_timer000CseXnjFWXUgcY_15tls_integration
FN:412,_RNCNCNCNvNtCscNmhOS6QYVL_12kameo_remote6handle18start_gossip_timer00s1_0CseXnjFWXUgcY_15tls_integration
FN:507,_RNCNCNCNvNtCscNmhOS6QYVL_12kameo_remote6handle18start_gossip_timer00s2_0CseXnjFWXUgcY_15tls_integration
FN:455,_RNCNCNCNvNtCscNmhOS6QYVL_12kameo_remote6handle18start_gossip_timer00s4_0CseXnjFWXUgcY_15tls_integration
FN:528,_RNCNCNCNvNtCscNmhOS6QYVL_12kameo_remote6handle18start_gossip_timer00s5_0CseXnjFWXUgcY_15tls_integration
FN:1327,_RNCNCNCNvNtCscNmhOS6QYVL_12kameo_remote6handle23send_streaming_response000CseXnjFWXUgcY_15tls_integration
FN:372,_RNCNCNCNvNtCscNmhOS6QYVL_12kameo_remote6handle33start_gossip_server_with_listener000CseXnjFWXUgcY_15tls_integration
FN:90,_RNCNCNvMNtCscNmhOS6QYVL_12kameo_remote6handleNtB6_20GossipRegistryHandle12new_with_tls00CseXnjFWXUgcY_15tls_integration
FN:98,_RNCNCNvMNtCscNmhOS6QYVL_12kameo_remote6handleNtB6_20GossipRegistryHandle12new_with_tls0s_0CseXnjFWXUgcY_15tls_integration
FN:596,_RNCNCNvNtCscNmhOS6QYVL_12kameo_remote6handle21handle_tls_connection00CseXnjFWXUgcY_15tls_integration
FN:603,_RNCNCNvNtCscNmhOS6QYVL_12kameo_remote6handle21handle_tls_connection0s0_0CseXnjFWXUgcY_15tls_integration
FN:637,_RNCNCNvNtCscNmhOS6QYVL_12kameo_remote6handle21handle_tls_connection0s1_0CseXnjFWXUgcY_15tls_integration
FN:602,_RNCNCNvNtCscNmhOS6QYVL_12kameo_remote6handle21handle_tls_connection0s_0CseXnjFWXUgcY_15tls_integration
FN:1325,_RNCNCNvNtCscNmhOS6QYVL_12kameo_remote6handle23send_streaming_response00CseXnjFWXUgcY_15tls_integration
FN:2174,_RNCNCNvNtCscNmhOS6QYVL_12kameo_remote6handle29send_gossip_message_zero_copy00CseXnjFWXUgcY_15tls_integration
FN:54,_RNCNvMNtCscNmhOS6QYVL_12kameo_remote6handleNtB4_20GossipRegistryHandle12new_with_tls0CseXnjFWXUgcY_15tls_integration
FN:210,_RNCNvMNtCscNmhOS6QYVL_12kameo_remote6handleNtB4_20GossipRegistryHandle5stats0CseXnjFWXUgcY_15tls_integration
FN:205,_RNCNvMNtCscNmhOS6QYVL_12kameo_remote6handleNtB4_20GossipRegistryHandle6lookup0CseXnjFWXUgcY_15tls_integration
FN:215,_RNCNvMNtCscNmhOS6QYVL_12kameo_remote6handleNtB4_20GossipRegistryHandle8add_peer0CseXnjFWXUgcY_15tls_integration
FN:149,_RNCNvMNtCscNmhOS6QYVL_12kameo_remote6handleNtB4_20GossipRegistryHandle8register0CseXnjFWXUgcY_15tls_integration
FN:341,_RNCNvMNtCscNmhOS6QYVL_12kameo_remote6handleNtB4_20GossipRegistryHandle8shutdown0CseXnjFWXUgcY_15tls_integration
FN:256,_RNCNvMNtCscNmhOS6QYVL_12kameo_remote6handleNtB4_20GossipRegistryHandle9bootstrap0CseXnjFWXUgcY_15tls_integration
FN:557,_RNCNvNtCscNmhOS6QYVL_12kameo_remote6handle17handle_connection0CseXnjFWXUgcY_15tls_integration
FN:385,_RNCNvNtCscNmhOS6QYVL_12kameo_remote6handle18start_gossip_timer0CseXnjFWXUgcY_15tls_integration
FN:591,_RNCNvNtCscNmhOS6QYVL_12kameo_remote6handle21handle_tls_connection0CseXnjFWXUgcY_15tls_integration
FN:1362,_RNCNvNtCscNmhOS6QYVL_12kameo_remote6handle23handle_completed_stream0CseXnjFWXUgcY_15tls_integration
FN:1322,_RNCNvNtCscNmhOS6QYVL_12kameo_remote6handle23send_streaming_response0CseXnjFWXUgcY_15tls_integration
FN:2167,_RNCNvNtCscNmhOS6QYVL_12kameo_remote6handle29send_gossip_message_zero_copy0CseXnjFWXUgcY_15tls_integration
FN:360,_RNCNvNtCscNmhOS6QYVL_12kameo_remote6handle33start_gossip_server_with_listener0CseXnjFWXUgcY_15tls_integration
FN:1387,_RINvNtCscNmhOS6QYVL_12kameo_remote6handle25handle_streaming_v2_frameINtNtNtCsh4ISjvibZbV_5tokio2io5split8ReadHalfINtNtCsb3eVN0gIh2a_12tokio_rustls6server9TlsStreamNtNtNtNtB1b_3net3tcp6stream9TcpStreamEEECs4r4m1QEivDF_20typed_tls_end_to_end
FN:1551,_RINvNtCscNmhOS6QYVL_12kameo_remote6handle28read_message_from_tls_readerINtNtNtCsh4ISjvibZbV_5tokio2io5split8ReadHalfINtNtCsb3eVN0gIh2a_12tokio_rustls6server9TlsStreamNtNtNtNtB1e_3net3tcp6stream9TcpStreamEEECs4r4m1QEivDF_20typed_tls_end_to_end
FN:682,_RINvNtCscNmhOS6QYVL_12kameo_remote6handle30handle_incoming_connection_tlsINtNtNtCsh4ISjvibZbV_5tokio2io5split8ReadHalfINtNtCsb3eVN0gIh2a_12tokio_rustls6server9TlsStreamNtNtNtNtB1g_3net3tcp6stream9TcpStreamEEINtB1c_9WriteHalfB1S_EECs4r4m1QEivDF_20typed_tls_end_to_end
FN:1396,_RNCINvNtCscNmhOS6QYVL_12kameo_remote6handle25handle_streaming_v2_frameINtNtNtCsh4ISjvibZbV_5tokio2io5split8ReadHalfINtNtCsb3eVN0gIh2a_12tokio_rustls6server9TlsStreamNtNtNtNtB1d_3net3tcp6stream9TcpStreamEEE0Cs4r4m1QEivDF_20typed_tls_end_to_end
FN:1557,_RNCINvNtCscNmhOS6QYVL_12kameo_remote6handle28read_message_from_tls_readerINtNtNtCsh4ISjvibZbV_5tokio2io5split8ReadHalfINtNtCsb3eVN0gIh2a_12tokio_rustls6server9TlsStreamNtNtNtNtB1g_3net3tcp6stream9TcpStreamEEE0Cs4r4m1QEivDF_20typed_tls_end_to_end
FN:693,_RNCINvNtCscNmhOS6QYVL_12kameo_remote6handle30handle_incoming_connection_tlsINtNtNtCsh4ISjvibZbV_5tokio2io5split8ReadHalfINtNtCsb3eVN0gIh2a_12tokio_rustls6server9TlsStreamNtNtNtNtB1i_3net3tcp6stream9TcpStreamEEINtB1e_9WriteHalfB1U_EE0Cs4r4m1QEivDF_20typed_tls_end_to_end
FN:887,_RNCNCINvNtCscNmhOS6QYVL_12kameo_remote6handle30handle_incoming_connection_tlsINtNtNtCsh4ISjvibZbV_5tokio2io5split8ReadHalfINtNtCsb3eVN0gIh2a_12tokio_rustls6server9TlsStreamNtNtNtNtB1k_3net3tcp6stream9TcpStreamEEINtB1g_9WriteHalfB1W_EE00Cs4r4m1QEivDF_20typed_tls_end_to_end
FN:890,_RNCNCINvNtCscNmhOS6QYVL_12kameo_remote6handle30handle_incoming_connection_tlsINtNtNtCsh4ISjvibZbV_5tokio2io5split8ReadHalfINtNtCsb3eVN0gIh2a_12tokio_rustls6server9TlsStreamNtNtNtNtB1k_3net3tcp6stream9TcpStreamEEINtB1g_9WriteHalfB1W_EE0s_0Cs4r4m1QEivDF_20typed_tls_end_to_end
FN:406,_RNCNCNCNvNtCscNmhOS6QYVL_12kameo_remote6handle18start_gossip_timer000Cs4r4m1QEivDF_20typed_tls_end_to_end
FN:412,_RNCNCNCNvNtCscNmhOS6QYVL_12kameo_remote6handle18start_gossip_timer00s1_0Cs4r4m1QEivDF_20typed_tls_end_to_end
FN:507,_RNCNCNCNvNtCscNmhOS6QYVL_12kameo_remote6handle18start_gossip_timer00s2_0Cs4r4m1QEivDF_20typed_tls_end_to_end
FN:455,_RNCNCNCNvNtCscNmhOS6QYVL_12kameo_remote6handle18start_gossip_timer00s4_0Cs4r4m1QEivDF_20typed_tls_end_to_end
FN:528,_RNCNCNCNvNtCscNmhOS6QYVL_12kameo_remote6handle18start_gossip_timer00s5_0Cs4r4m1QEivDF_20typed_tls_end_to_end
FN:1327,_RNCNCNCNvNtCscNmhOS6QYVL_12kameo_remote6handle23send_streaming_response000Cs4r4m1QEivDF_20typed_tls_end_to_end
FN:372,_RNCNCNCNvNtCscNmhOS6QYVL_12kameo_remote6handle33start_gossip_server_with_listener000Cs4r4m1QEivDF_20typed_tls_end_to_end
FN:90,_RNCNCNvMNtCscNmhOS6QYVL_12kameo_remote6handleNtB6_20GossipRegistryHandle12new_with_tls00Cs4r4m1QEivDF_20typed_tls_end_to_end
FN:98,_RNCNCNvMNtCscNmhOS6QYVL_12kameo_remote6handleNtB6_20GossipRegistryHandle12new_with_tls0s_0Cs4r4m1QEivDF_20typed_tls_end_to_end
FN:596,_RNCNCNvNtCscNmhOS6QYVL_12kameo_remote6handle21handle_tls_connection00Cs4r4m1QEivDF_20typed_tls_end_to_end
FN:603,_RNCNCNvNtCscNmhOS6QYVL_12kameo_remote6handle21handle_tls_connection0s0_0Cs4r4m1QEivDF_20typed_tls_end_to_end
FN:637,_RNCNCNvNtCscNmhOS6QYVL_12kameo_remote6handle21handle_tls_connection0s1_0Cs4r4m1QEivDF_20typed_tls_end_to_end
FN:602,_RNCNCNvNtCscNmhOS6QYVL_12kameo_remote6handle21handle_tls_connection0s_0Cs4r4m1QEivDF_20typed_tls_end_to_end
FN:1325,_RNCNCNvNtCscNmhOS6QYVL_12kameo_remote6handle23send_streaming_response00Cs4r4m1QEivDF_20typed_tls_end_to_end
FN:2174,_RNCNCNvNtCscNmhOS6QYVL_12kameo_remote6handle29send_gossip_message_zero_copy00Cs4r4m1QEivDF_20typed_tls_end_to_end
FN:54,_RNCNvMNtCscNmhOS6QYVL_12kameo_remote6handleNtB4_20GossipRegistryHandle12new_with_tls0Cs4r4m1QEivDF_20typed_tls_end_to_end
FN:234,_RNCNvMNtCscNmhOS6QYVL_12kameo_remote6handleNtB4_20GossipRegistryHandle14get_connection0Cs4r4m1QEivDF_20typed_tls_end_to_end
FN:120,_RNCNvMNtCscNmhOS6QYVL_12kameo_remote6handleNtB4_20GossipRegistryHandle16new_with_keypair0Cs4r4m1QEivDF_20typed_tls_end_to_end
FN:215,_RNCNvMNtCscNmhOS6QYVL_12kameo_remote6handleNtB4_20GossipRegistryHandle8add_peer0Cs4r4m1QEivDF_20typed_tls_end_to_end
FN:341,_RNCNvMNtCscNmhOS6QYVL_12kameo_remote6handleNtB4_20GossipRegistryHandle8shutdown0Cs4r4m1QEivDF_20typed_tls_end_to_end
FN:557,_RNCNvNtCscNmhOS6QYVL_12kameo_remote6handle17handle_connection0Cs4r4m1QEivDF_20typed_tls_end_to_end
FN:385,_RNCNvNtCscNmhOS6QYVL_12kameo_remote6handle18start_gossip_timer0Cs4r4m1QEivDF_20typed_tls_end_to_end
FN:591,_RNCNvNtCscNmhOS6QYVL_12kameo_remote6handle21handle_tls_connection0Cs4r4m1QEivDF_20typed_tls_end_to_end
FN:1362,_RNCNvNtCscNmhOS6QYVL_12kameo_remote6handle23handle_completed_stream0Cs4r4m1QEivDF_20typed_tls_end_to_end
FN:1322,_RNCNvNtCscNmhOS6QYVL_12kameo_remote6handle23send_streaming_response0Cs4r4m1QEivDF_20typed_tls_end_to_end
FN:2167,_RNCNvNtCscNmhOS6QYVL_12kameo_remote6handle29send_gossip_message_zero_copy0Cs4r4m1QEivDF_20typed_tls_end_to_end
FN:360,_RNCNvNtCscNmhOS6QYVL_12kameo_remote6handle33start_gossip_server_with_listener0Cs4r4m1QEivDF_20typed_tls_end_to_end
FNDA:0,_RINvNtCscNmhOS6QYVL_12kameo_remote6handle25handle_streaming_v2_frameINtNtNtCsh4ISjvibZbV_5tokio2io5split8ReadHalfINtNtCsb3eVN0gIh2a_12tokio_rustls6server9TlsStreamNtNtNtNtB1b_3net3tcp6stream9TcpStreamEEECsa8O6w5083kA_20ask_reply_end_to_end
FNDA:115,_RINvNtCscNmhOS6QYVL_12kameo_remote6handle28read_message_from_tls_readerINtNtNtCsh4ISjvibZbV_5tokio2io5split8ReadHalfINtNtCsb3eVN0gIh2a_12tokio_rustls6server9TlsStreamNtNtNtNtB1e_3net3tcp6stream9TcpStreamEEECsa8O6w5083kA_20ask_reply_end_to_end
FNDA:1,_RINvNtCscNmhOS6QYVL_12kameo_remote6handle30handle_incoming_connection_tlsINtNtNtCsh4ISjvibZbV_5tokio2io5split8ReadHalfINtNtCsb3eVN0gIh2a_12tokio_rustls6server9TlsStreamNtNtNtNtB1g_3net3tcp6stream9TcpStreamEEINtB1c_9WriteHalfB1S_EECsa8O6w5083kA_20ask_reply_end_to_end
FNDA:0,_RNCINvNtCscNmhOS6QYVL_12kameo_remote6handle25handle_streaming_v2_frameINtNtNtCsh4ISjvibZbV_5tokio2io5split8ReadHalfINtNtCsb3eVN0gIh2a_12tokio_rustls6server9TlsStreamNtNtNtNtB1d_3net3tcp6stream9TcpStreamEEE0Csa8O6w5083kA_20ask_reply_end_to_end
FNDA:115,_RNCINvNtCscNmhOS6QYVL_12kameo_remote6handle28read_message_from_tls_readerINtNtNtCsh4ISjvibZbV_5tokio2io5split8ReadHalfINtNtCsb3eVN0gIh2a_12tokio_rustls6server9TlsStreamNtNtNtNtB1g_3net3tcp6stream9TcpStreamEEE0Csa8O6w5083kA_20ask_reply_end_to_end
FNDA:1,_RNCINvNtCscNmhOS6QYVL_12kameo_remote6handle30handle_incoming_connection_tlsINtNtNtCsh4ISjvibZbV_5tokio2io5split8ReadHalfINtNtCsb3eVN0gIh2a_12tokio_rustls6server9TlsStreamNtNtNtNtB1i_3net3tcp6stream9TcpStreamEEINtB1e_9WriteHalfB1U_EE0Csa8O6w5083kA_20ask_reply_end_to_end
FNDA:0,_RNCNCINvNtCscNmhOS6QYVL_12kameo_remote6handle30handle_incoming_connection_tlsINtNtNtCsh4ISjvibZbV_5tokio2io5split8ReadHalfINtNtCsb3eVN0gIh2a_12tokio_rustls6server9TlsStreamNtNtNtNtB1k_3net3tcp6stream9TcpStreamEEINtB1g_9WriteHalfB1W_EE00Csa8O6w5083kA_20ask_reply_end_to_end
FNDA:0,_RNCNCINvNtCscNmhOS6QYVL_12kameo_remote6handle30handle_incoming_connection_tlsINtNtNtCsh4ISjvibZbV_5tokio2io5split8ReadHalfINtNtCsb3eVN0gIh2a_12tokio_rustls6server9TlsStreamNtNtNtNtB1k_3net3tcp6stream9TcpStreamEEINtB1g_9WriteHalfB1W_EE0s_0Csa8O6w5083kA_20ask_reply_end_to_end
FNDA:3,_RNCNCNCNvNtCscNmhOS6QYVL_12kameo_remote6handle18start_gossip_timer000Csa8O6w5083kA_20ask_reply_end_to_end
FNDA:0,_RNCNCNCNvNtCscNmhOS6QYVL_12kameo_remote6handle18start_gossip_timer00s1_0Csa8O6w5083kA_20ask_reply_end_to_end
FNDA:7,_RNCNCNCNvNtCscNmhOS6QYVL_12kameo_remote6handle18start_gossip_timer00s2_0Csa8O6w5083kA_20ask_reply_end_to_end
FNDA:0,_RNCNCNCNvNtCscNmhOS6QYVL_12kameo_remote6handle18start_gossip_timer00s4_0Csa8O6w5083kA_20ask_reply_end_to_end
FNDA:0,_RNCNCNCNvNtCscNmhOS6QYVL_12kameo_remote6handle18start_gossip_timer00s5_0Csa8O6w5083kA_20ask_reply_end_to_end
FNDA:0,_RNCNCNCNvNtCscNmhOS6QYVL_12kameo_remote6handle23send_streaming_response000Csa8O6w5083kA_20ask_reply_end_to_end
FNDA:1,_RNCNCNCNvNtCscNmhOS6QYVL_12kameo_remote6handle33start_gossip_server_with_listener000Csa8O6w5083kA_20ask_reply_end_to_end
FNDA:3,_RNCNCNvMNtCscNmhOS6QYVL_12kameo_remote6handleNtB6_20GossipRegistryHandle12new_with_tls00Csa8O6w5083kA_20ask_reply_end_to_end
FNDA:3,_RNCNCNvMNtCscNmhOS6QYVL_12kameo_remote6handleNtB6_20GossipRegistryHandle12new_with_tls0s_0Csa8O6w5083kA_20ask_reply_end_to_end
FNDA:1,_RNCNCNvNtCscNmhOS6QYVL_12kameo_remote6handle21handle_tls_connection00Csa8O6w5083kA_20ask_reply_end_to_end
FNDA:1,_RNCNCNvNtCscNmhOS6QYVL_12kameo_remote6handle21handle_tls_connection0s0_0Csa8O6w5083kA_20ask_reply_end_to_end
FNDA:1,_RNCNCNvNtCscNmhOS6QYVL_12kameo_remote6handle21handle_tls_connection0s1_0Csa8O6w5083kA_20ask_reply_end_to_end
FNDA:1,_RNCNCNvNtCscNmhOS6QYVL_12kameo_remote6handle21handle_tls_connection0s_0Csa8O6w5083kA_20ask_reply_end_to_end
FNDA:0,_RNCNCNvNtCscNmhOS6QYVL_12kameo_remote6handle23send_streaming_response00Csa8O6w5083kA_20ask_reply_end_to_end
FNDA:0,_RNCNCNvNtCscNmhOS6QYVL_12kameo_remote6handle29send_gossip_message_zero_copy00Csa8O6w5083kA_20ask_reply_end_to_end
FNDA:3,_RNCNvMNtCscNmhOS6QYVL_12kameo_remote6handleNtB4_20GossipRegistryHandle12new_with_tls0Csa8O6w5083kA_20ask_reply_end_to_end
FNDA:4,_RNCNvMNtCscNmhOS6QYVL_12kameo_remote6handleNtB4_20GossipRegistryHandle22get_connection_to_peer0Csa8O6w5083kA_20ask_reply_end_to_end
FNDA:1,_RNCNvMNtCscNmhOS6QYVL_12kameo_remote6handleNtB4_20GossipRegistryHandle5stats0Csa8O6w5083kA_20ask_reply_end_to_end
FNDA:0,_RNCNvMNtCscNmhOS6QYVL_12kameo_remote6handleNtB4_20GossipRegistryHandle6lookup0Csa8O6w5083kA_20ask_reply_end_to_end
FNDA:2,_RNCNvMNtCscNmhOS6QYVL_12kameo_remote6handleNtB4_20GossipRegistryHandle8add_peer0Csa8O6w5083kA_20ask_reply_end_to_end
FNDA:3,_RNCNvMNtCscNmhOS6QYVL_12kameo_remote6handleNtB4_20GossipRegistryHandle8shutdown0Csa8O6w5083kA_20ask_reply_end_to_end
FNDA:1,_RNCNvNtCscNmhOS6QYVL_12kameo_remote6handle17handle_connection0Csa8O6w5083kA_20ask_reply_end_to_end
FNDA:3,_RNCNvNtCscNmhOS6QYVL_12kameo_remote6handle18start_gossip_timer0Csa8O6w5083kA_20ask_reply_end_to_end
FNDA:1,_RNCNvNtCscNmhOS6QYVL_12kameo_remote6handle21handle_tls_connection0Csa8O6w5083kA_20ask_reply_end_to_end
FNDA:0,_RNCNvNtCscNmhOS6QYVL_12kameo_remote6handle23handle_completed_stream0Csa8O6w5083kA_20ask_reply_end_to_end
FNDA:0,_RNCNvNtCscNmhOS6QYVL_12kameo_remote6handle23send_streaming_response0Csa8O6w5083kA_20ask_reply_end_to_end
FNDA:0,_RNCNvNtCscNmhOS6QYVL_12kameo_remote6handle29send_gossip_message_zero_copy0Csa8O6w5083kA_20ask_reply_end_to_end
FNDA:3,_RNCNvNtCscNmhOS6QYVL_12kameo_remote6handle33start_gossip_server_with_listener0Csa8O6w5083kA_20ask_reply_end_to_end
FNDA:5057,_RINvNtCscNmhOS6QYVL_12kameo_remote6handle28read_message_from_tls_readerINtNtCs85QQFkKrybG_4core3pin3PinINtNtCsdFlNUEO95cG_5alloc5boxed3BoxDNtNtNtCsh4ISjvibZbV_5tokio2io10async_read9AsyncReadNtNtB1c_6marker4SendEL_EEEB4_
FNDA:5057,_RNCINvNtCscNmhOS6QYVL_12kameo_remote6handle28read_message_from_tls_readerINtNtCs85QQFkKrybG_4core3pin3PinINtNtCsdFlNUEO95cG_5alloc5boxed3BoxDNtNtNtCsh4ISjvibZbV_5tokio2io10async_read9AsyncReadNtNtB1e_6marker4SendEL_EEE0B6_
FNDA:0,_RNCNCNCNvNtCscNmhOS6QYVL_12kameo_remote6handle22handle_raw_ask_request000B9_
FNDA:0,_RNCNCNvNtCscNmhOS6QYVL_12kameo_remote6handle22handle_raw_ask_request00B7_
FNDA:2534,_RNCNvNtCscNmhOS6QYVL_12kameo_remote6handle22handle_raw_ask_request0B5_
FNDA:2646,_RNCNvNtCscNmhOS6QYVL_12kameo_remote6handle23handle_response_message0B5_
FNDA:0,_RINvNtCscNmhOS6QYVL_12kameo_remote6handle25handle_streaming_v2_framepEB4_
FNDA:0,_RINvNtCscNmhOS6QYVL_12kameo_remote6handle30handle_incoming_connection_tlsppEB4_
FNDA:0,_RNCINvNtCscNmhOS6QYVL_12kameo_remote6handle25handle_streaming_v2_framepE0B6_
FNDA:0,_RNCINvNtCscNmhOS6QYVL_12kameo_remote6handle30handle_incoming_connection_tlsppE0B6_
FNDA:0,_RNCNCINvNtCscNmhOS6QYVL_12kameo_remote6handle30handle_incoming_connection_tlsppE00B8_
FNDA:0,_RNCNCINvNtCscNmhOS6QYVL_12kameo_remote6handle30handle_incoming_connection_tlsppE0s_0B8_
FNDA:0,_RNCNCNCNvNtCscNmhOS6QYVL_12kameo_remote6handle18start_gossip_timer000B9_
FNDA:0,_RNCNCNCNvNtCscNmhOS6QYVL_12kameo_remote6handle18start_gossip_timer00s1_0B9_
FNDA:0,_RNCNCNCNvNtCscNmhOS6QYVL_12kameo_remote6handle18start_gossip_timer00s2_0B9_
FNDA:0,_RNCNCNCNvNtCscNmhOS6QYVL_12kameo_remote6handle18start_gossip_timer00s4_0B9_
FNDA:0,_RNCNCNCNvNtCscNmhOS6QYVL_12kameo_remote6handle18start_gossip_timer00s5_0B9_
FNDA:0,_RNCNCNCNvNtCscNmhOS6QYVL_12kameo_remote6handle23send_streaming_response000B9_
FNDA:0,_RNCNCNCNvNtCscNmhOS6QYVL_12kameo_remote6handle33start_gossip_server_with_listener000B9_
FNDA:0,_RNCNCNvMNtCscNmhOS6QYVL_12kameo_remote6handleNtB6_20GossipRegistryHandle12new_with_tls00B8_
FNDA:0,_RNCNCNvMNtCscNmhOS6QYVL_12kameo_remote6handleNtB6_20GossipRegistryHandle12new_with_tls0s_0B8_
FNDA:0,_RNCNCNvMNtCscNmhOS6QYVL_12kameo_remote6handleNtB6_20GossipRegistryHandle22bootstrap_non_blocking00B8_
FNDA:0,_RNCNCNvNtCscNmhOS6QYVL_12kameo_remote6handle21handle_tls_connection00B7_
FNDA:0,_RNCNCNvNtCscNmhOS6QYVL_12kameo_remote6handle21handle_tls_connection0s0_0B7_
FNDA:0,_RNCNCNvNtCscNmhOS6QYVL_12kameo_remote6handle21handle_tls_connection0s1_0B7_
FNDA:0,_RNCNCNvNtCscNmhOS6QYVL_12kameo_remote6handle21handle_tls_connection0s_0B7_
FNDA:0,_RNCNCNvNtCscNmhOS6QYVL_12kameo_remote6handle23send_streaming_response00B7_
FNDA:0,_RNCNCNvNtCscNmhOS6QYVL_12kameo_remote6handle29send_gossip_message_zero_copy00B7_
FNDA:0,_RNCNvMNtCscNmhOS6QYVL_12kameo_remote6handleNtB4_20GossipRegistryHandle10unregister0B6_
FNDA:0,_RNCNvMNtCscNmhOS6QYVL_12kameo_remote6handleNtB4_20GossipRegistryHandle12new_with_tls0B6_
FNDA:0,_RNCNvMNtCscNmhOS6QYVL_12kameo_remote6handleNtB4_20GossipRegistryHandle14get_connection0B6_
FNDA:0,_RNCNvMNtCscNmhOS6QYVL_12kameo_remote6handleNtB4_20GossipRegistryHandle15register_urgent0B6_
FNDA:0,_RNCNvMNtCscNmhOS6QYVL_12kameo_remote6handleNtB4_20GossipRegistryHandle16new_with_keypair0B6_
FNDA:0,_RNCNvMNtCscNmhOS6QYVL_12kameo_remote6handleNtB4_20GossipRegistryHandle22bootstrap_non_blocking0B6_
FNDA:0,_RNCNvMNtCscNmhOS6QYVL_12kameo_remote6handleNtB4_20GossipRegistryHandle22get_connection_to_peer0B6_
FNDA:0,_RNCNvMNtCscNmhOS6QYVL_12kameo_remote6handleNtB4_20GossipRegistryHandle22register_with_metadata0B6_
FNDA:0,_RNCNvMNtCscNmhOS6QYVL_12kameo_remote6handleNtB4_20GossipRegistryHandle22register_with_priority0B6_
FNDA:0,_RNCNvMNtCscNmhOS6QYVL_12kameo_remote6handleNtB4_20GossipRegistryHandle3new0B6_
FNDA:0,_RNCNvMNtCscNmhOS6QYVL_12kameo_remote6handleNtB4_20GossipRegistryHandle5stats0B6_
FNDA:0,_RNCNvMNtCscNmhOS6QYVL_12kameo_remote6handleNtB4_20GossipRegistryHandle6lookup0B6_
FNDA:0,_RNCNvMNtCscNmhOS6QYVL_12kameo_remote6handleNtB4_20GossipRegistryHandle8add_peer0B6_
FNDA:0,_RNCNvMNtCscNmhOS6QYVL_12kameo_remote6handleNtB4_20GossipRegistryHandle8register0B6_
FNDA:0,_RNCNvMNtCscNmhOS6QYVL_12kameo_remote6handleNtB4_20GossipRegistryHandle8shutdown0B6_
FNDA:0,_RNCNvMNtCscNmhOS6QYVL_12kameo_remote6handleNtB4_20GossipRegistryHandle9bootstrap0B6_
FNDA:0,_RNCNvNtCscNmhOS6QYVL_12kameo_remote6handle17handle_connection0B5_
FNDA:0,_RNCNvNtCscNmhOS6QYVL_12kameo_remote6handle18start_gossip_timer0B5_
FNDA:0,_RNCNvNtCscNmhOS6QYVL_12kameo_remote6handle21handle_tls_connection0B5_
FNDA:0,_RNCNvNtCscNmhOS6QYVL_12kameo_remote6handle23handle_completed_stream0B5_
FNDA:0,_RNCNvNtCscNmhOS6QYVL_12kameo_remote6handle23send_streaming_response0B5_
FNDA:0,_RNCNvNtCscNmhOS6QYVL_12kameo_remote6handle29send_gossip_message_zero_copy0B5_
FNDA:0,_RNCNvNtCscNmhOS6QYVL_12kameo_remote6handle33start_gossip_server_with_listener0B5_
FNDA:1,_RNvMNtCscNmhOS6QYVL_12kameo_remote6handleNtB2_20GossipRegistryHandle10unregister
FNDA:131,_RNvMNtCscNmhOS6QYVL_12kameo_remote6handleNtB2_20GossipRegistryHandle12new_with_tls
FNDA:37,_RNvMNtCscNmhOS6QYVL_12kameo_remote6handleNtB2_20GossipRegistryHandle14get_connection
FNDA:22,_RNvMNtCscNmhOS6QYVL_12kameo_remote6handleNtB2_20GossipRegistryHandle15register_urgent
FNDA:51,_RNvMNtCscNmhOS6QYVL_12kameo_remote6handleNtB2_20GossipRegistryHandle16new_with_keypair
FNDA:0,_RNvMNtCscNmhOS6QYVL_12kameo_remote6handleNtB2_20GossipRegistryHandle22bootstrap_non_blocking
FNDA:10,_RNvMNtCscNmhOS6QYVL_12kameo_remote6handleNtB2_20GossipRegistryHandle22get_connection_to_peer
FNDA:0,_RNvMNtCscNmhOS6QYVL_12kameo_remote6handleNtB2_20GossipRegistryHandle22register_with_metadata
FNDA:2,_RNvMNtCscNmhOS6QYVL_12kameo_remote6handleNtB2_20GossipRegistryHandle22register_with_priority
FNDA:0,_RNvMNtCscNmhOS6QYVL_12kameo_remote6handleNtB2_20GossipRegistryHandle3new
FNDA:35,_RNvMNtCscNmhOS6QYVL_12kameo_remote6handleNtB2_20GossipRegistryHandle5stats
FNDA:181,_RNvMNtCscNmhOS6QYVL_12kameo_remote6handleNtB2_20GossipRegistryHandle6lookup
FNDA:67,_RNvMNtCscNmhOS6QYVL_12kameo_remote6handleNtB2_20GossipRegistryHandle8add_peer
FNDA:18,_RNvMNtCscNmhOS6QYVL_12kameo_remote6handleNtB2_20GossipRegistryHandle8register
FNDA:110,_RNvMNtCscNmhOS6QYVL_12kameo_remote6handleNtB2_20GossipRegistryHandle8shutdown
FNDA:33,_RNvMNtCscNmhOS6QYVL_12kameo_remote6handleNtB2_20GossipRegistryHandle9bootstrap
FNDA:181,_RNvNtCscNmhOS6QYVL_12kameo_remote6handle17handle_connection
FNDA:128,_RNvNtCscNmhOS6QYVL_12kameo_remote6handle18start_gossip_timer
FNDA:174,_RNvNtCscNmhOS6QYVL_12kameo_remote6handle21handle_tls_connection
FNDA:2534,_RNvNtCscNmhOS6QYVL_12kameo_remote6handle22handle_raw_ask_request
FNDA:6000,_RNvNtCscNmhOS6QYVL_12kameo_remote6handle23decode_registry_message
FNDA:0,_RNvNtCscNmhOS6QYVL_12kameo_remote6handle23handle_completed_stream
FNDA:2646,_RNvNtCscNmhOS6QYVL_12kameo_remote6handle23handle_response_message
FNDA:0,_RNvNtCscNmhOS6QYVL_12kameo_remote6handle23send_streaming_response
FNDA:6000,_RNvNtCscNmhOS6QYVL_12kameo_remote6handle27is_registry_payload_aligned
FNDA:1782,_RNvNtCscNmhOS6QYVL_12kameo_remote6handle29send_gossip_message_zero_copy
FNDA:128,_RNvNtCscNmhOS6QYVL_12kameo_remote6handle33start_gossip_server_with_listener
FNDA:0,_RINvNtCscNmhOS6QYVL_12kameo_remote6handle25handle_streaming_v2_frameINtNtNtCsh4ISjvibZbV_5tokio2io5split8ReadHalfINtNtCsb3eVN0gIh2a_12tokio_rustls6server9TlsStreamNtNtNtNtB1b_3net3tcp6stream9TcpStreamEEECs4EqTPqKkQep_16ask_reply_simple
FNDA:1016,_RINvNtCscNmhOS6QYVL_12kameo_remote6handle28read_message_from_tls_readerINtNtNtCsh4ISjvibZbV_5tokio2io5split8ReadHalfINtNtCsb3eVN0gIh2a_12tokio_rustls6server9TlsStreamNtNtNtNtB1e_3net3tcp6stream9TcpStreamEEECs4EqTPqKkQep_16ask_reply_simple
FNDA:2,_RINvNtCscNmhOS6QYVL_12kameo_remote6handle30handle_incoming_connection_tlsINtNtNtCsh4ISjvibZbV_5tokio2io5split8ReadHalfINtNtCsb3eVN0gIh2a_12tokio_rustls6server9TlsStreamNtNtNtNtB1g_3net3tcp6stream9TcpStreamEEINtB1c_9WriteHalfB1S_EECs4EqTPqKkQep_16ask_reply_simple
FNDA:0,_RNCINvNtCscNmhOS6QYVL_12kameo_remote6handle25handle_streaming_v2_frameINtNtNtCsh4ISjvibZbV_5tokio2io5split8ReadHalfINtNtCsb3eVN0gIh2a_12tokio_rustls6server9TlsStreamNtNtNtNtB1d_3net3tcp6stream9TcpStreamEEE0Cs4EqTPqKkQep_16ask_reply_simple
FNDA:1016,_RNCINvNtCscNmhOS6QYVL_12kameo_remote6handle28read_message_from_tls_readerINtNtNtCsh4ISjvibZbV_5tokio2io5split8ReadHalfINtNtCsb3eVN0gIh2a_12tokio_rustls6server9TlsStreamNtNtNtNtB1g_3net3tcp6stream9TcpStreamEEE0Cs4EqTPqKkQep_16ask_reply_simple
FNDA:2,_RNCINvNtCscNmhOS6QYVL_12kameo_remote6handle30handle_incoming_connection_tlsINtNtNtCsh4ISjvibZbV_5tokio2io5split8ReadHalfINtNtCsb3eVN0gIh2a_12tokio_rustls6server9TlsStreamNtNtNtNtB1i_3net3tcp6stream9TcpStreamEEINtB1e_9WriteHalfB1U_EE0Cs4EqTPqKkQep_16ask_reply_simple
FNDA:0,_RNCNCINvNtCscNmhOS6QYVL_12kameo_remote6handle30handle_incoming_connection_tlsINtNtNtCsh4ISjvibZbV_5tokio2io5split8ReadHalfINtNtCsb3eVN0gIh2a_12tokio_rustls6server9TlsStreamNtNtNtNtB1k_3net3tcp6stream9TcpStreamEEINtB1g_9WriteHalfB1W_EE00Cs4EqTPqKkQep_16ask_reply_simple
FNDA:0,_RNCNCINvNtCscNmhOS6QYVL_12kameo_remote6handle30handle_incoming_connection_tlsINtNtNtCsh4ISjvibZbV_5tokio2io5split8ReadHalfINtNtCsb3eVN0gIh2a_12tokio_rustls6server9TlsStreamNtNtNtNtB1k_3net3tcp6stream9TcpStreamEEINtB1g_9WriteHalfB1W_EE0s_0Cs4EqTPqKkQep_16ask_reply_simple
FNDA:4,_RNCNCNCNvNtCscNmhOS6QYVL_12kameo_remote6handle18start_gossip_timer000Cs4EqTPqKkQep_16ask_reply_simple
FNDA:0,_RNCNCNCNvNtCscNmhOS6QYVL_12kameo_remote6handle18start_gossip_timer00s1_0Cs4EqTPqKkQep_16ask_reply_simple
FNDA:12,_RNCNCNCNvNtCscNmhOS6QYVL_12kameo_remote6handle18start_gossip_timer00s2_0Cs4EqTPqKkQep_16ask_reply_simple
FNDA:0,_RNCNCNCNvNtCscNmhOS6QYVL_12kameo_remote6handle18start_gossip_timer00s4_0Cs4EqTPqKkQep_16ask_reply_simple
FNDA:0,_RNCNCNCNvNtCscNmhOS6QYVL_12kameo_remote6handle18start_gossip_timer00s5_0Cs4EqTPqKkQep_16ask_reply_simple
FNDA:0,_RNCNCNCNvNtCscNmhOS6QYVL_12kameo_remote6handle23send_streaming_response000Cs4EqTPqKkQep_16ask_reply_simple
FNDA:2,_RNCNCNCNvNtCscNmhOS6QYVL_12kameo_remote6handle33start_gossip_server_with_listener000Cs4EqTPqKkQep_16ask_reply_simple
FNDA:4,_RNCNCNvMNtCscNmhOS6QYVL_12kameo_remote6handleNtB6_20GossipRegistryHandle12new_with_tls00Cs4EqTPqKkQep_16ask_reply_simple
FNDA:4,_RNCNCNvMNtCscNmhOS6QYVL_12kameo_remote6handleNtB6_20GossipRegistryHandle12new_with_tls0s_0Cs4EqTPqKkQep_16ask_reply_simple
FNDA:2,_RNCNCNvNtCscNmhOS6QYVL_12kameo_remote6handle21handle_tls_connection00Cs4EqTPqKkQep_16ask_reply_simple
FNDA:2,_RNCNCNvNtCscNmhOS6QYVL_12kameo_remote6handle21handle_tls_connection0s0_0Cs4EqTPqKkQep_16ask_reply_simple
FNDA:2,_RNCNCNvNtCscNmhOS6QYVL_12kameo_remote6handle21handle_tls_connection0s1_0Cs4EqTPqKkQep_16ask_reply_simple
FNDA:2,_RNCNCNvNtCscNmhOS6QYVL_12kameo_remote6handle21handle_tls_connection0s_0Cs4EqTPqKkQep_16ask_reply_simple
FNDA:0,_RNCNCNvNtCscNmhOS6QYVL_12kameo_remote6handle23send_streaming_response00Cs4EqTPqKkQep_16ask_reply_simple
FNDA:0,_RNCNCNvNtCscNmhOS6QYVL_12kameo_remote6handle29send_gossip_message_zero_copy00Cs4EqTPqKkQep_16ask_reply_simple
FNDA:4,_RNCNvMNtCscNmhOS6QYVL_12kameo_remote6handleNtB4_20GossipRegistryHandle12new_with_tls0Cs4EqTPqKkQep_16ask_reply_simple
FNDA:4,_RNCNvMNtCscNmhOS6QYVL_12kameo_remote6handleNtB4_20GossipRegistryHandle14get_connection0Cs4EqTPqKkQep_16ask_reply_simple
FNDA:4,_RNCNvMNtCscNmhOS6QYVL_12kameo_remote6handleNtB4_20GossipRegistryHandle16new_with_keypair0Cs4EqTPqKkQep_16ask_reply_simple
FNDA:2,_RNCNvMNtCscNmhOS6QYVL_12kameo_remote6handleNtB4_20GossipRegistryHandle8add_peer0Cs4EqTPqKkQep_16ask_reply_simple
FNDA:4,_RNCNvMNtCscNmhOS6QYVL_12kameo_remote6handleNtB4_20GossipRegistryHandle8shutdown0Cs4EqTPqKkQep_16ask_reply_simple
FNDA:2,_RNCNvNtCscNmhOS6QYVL_12kameo_remote6handle17handle_connection0Cs4EqTPqKkQep_16ask_reply_simple
FNDA:4,_RNCNvNtCscNmhOS6QYVL_12kameo_remote6handle18start_gossip_timer0Cs4EqTPqKkQep_16ask_reply_simple
FNDA:2,_RNCNvNtCscNmhOS6QYVL_12kameo_remote6handle21handle_tls_connection0Cs4EqTPqKkQep_16ask_reply_simple
FNDA:0,_RNCNvNtCscNmhOS6QYVL_12kameo_remote6handle23handle_completed_stream0Cs4EqTPqKkQep_16ask_reply_simple
FNDA:0,_RNCNvNtCscNmhOS6QYVL_12kameo_remote6handle23send_streaming_response0Cs4EqTPqKkQep_16ask_reply_simple
FNDA:0,_RNCNvNtCscNmhOS6QYVL_12kameo_remote6handle29send_gossip_message_zero_copy0Cs4EqTPqKkQep_16ask_reply_simple
FNDA:4,_RNCNvNtCscNmhOS6QYVL_12kameo_remote6handle33start_gossip_server_with_listener0Cs4EqTPqKkQep_16ask_reply_simple
FNDA:0,_RINvNtCscNmhOS6QYVL_12kameo_remote6handle25handle_streaming_v2_frameINtNtNtCsh4ISjvibZbV_5tokio2io5split8ReadHalfINtNtCsb3eVN0gIh2a_12tokio_rustls6server9TlsStreamNtNtNtNtB1b_3net3tcp6stream9TcpStreamEEECs3gQfcGJLyAz_20ask_with_lookup_demo
FNDA:1141,_RINvNtCscNmhOS6QYVL_12kameo_remote6handle28read_message_from_tls_readerINtNtNtCsh4ISjvibZbV_5tokio2io5split8ReadHalfINtNtCsb3eVN0gIh2a_12tokio_rustls6server9TlsStreamNtNtNtNtB1e_3net3tcp6stream9TcpStreamEEECs3gQfcGJLyAz_20ask_with_lookup_demo
FNDA:5,_RINvNtCscNmhOS6QYVL_12kameo_remote6handle30handle_incoming_connection_tlsINtNtNtCsh4ISjvibZbV_5tokio2io5split8ReadHalfINtNtCsb3eVN0gIh2a_12tokio_rustls6server9TlsStreamNtNtNtNtB1g_3net3tcp6stream9TcpStreamEEINtB1c_9WriteHalfB1S_EECs3gQfcGJLyAz_20ask_with_lookup_demo
FNDA:0,_RNCINvNtCscNmhOS6QYVL_12kameo_remote6handle25handle_streaming_v2_frameINtNtNtCsh4ISjvibZbV_5tokio2io5split8ReadHalfINtNtCsb3eVN0gIh2a_12tokio_rustls6server9TlsStreamNtNtNtNtB1d_3net3tcp6stream9TcpStreamEEE0Cs3gQfcGJLyAz_20ask_with_lookup_demo
FNDA:1141,_RNCINvNtCscNmhOS6QYVL_12kameo_remote6handle28read_message_from_tls_readerINtNtNtCsh4ISjvibZbV_5tokio2io5split8ReadHalfINtNtCsb3eVN0gIh2a_12tokio_rustls6server9TlsStreamNtNtNtNtB1g_3net3tcp6stream9TcpStreamEEE0Cs3gQfcGJLyAz_20ask_with_lookup_demo
FNDA:5,_RNCINvNtCscNmhOS6QYVL_12kameo_remote6handle30handle_incoming_connection_tlsINtNtNtCsh4ISjvibZbV_5tokio2io5split8ReadHalfINtNtCsb3eVN0gIh2a_12tokio_rustls6server9TlsStreamNtNtNtNtB1i_3net3tcp6stream9TcpStreamEEINtB1e_9WriteHalfB1U_EE0Cs3gQfcGJLyAz_20ask_with_lookup_demo
FNDA:2,_RNCNCINvNtCscNmhOS6QYVL_12kameo_remote6handle30handle_incoming_connection_tlsINtNtNtCsh4ISjvibZbV_5tokio2io5split8ReadHalfINtNtCsb3eVN0gIh2a_12tokio_rustls6server9TlsStreamNtNtNtNtB1k_3net3tcp6stream9TcpStreamEEINtB1g_9WriteHalfB1W_EE00Cs3gQfcGJLyAz_20ask_with_lookup_demo
FNDA:2,_RNCNCINvNtCscNmhOS6QYVL_12kameo_remote6handle30handle_incoming_connection_tlsINtNtNtCsh4ISjvibZbV_5tokio2io5split8ReadHalfINtNtCsb3eVN0gIh2a_12tokio_rustls6server9TlsStreamNtNtNtNtB1k_3net3tcp6stream9TcpStreamEEINtB1g_9WriteHalfB1W_EE0s_0Cs3gQfcGJLyAz_20ask_with_lookup_demo
FNDA:5,_RNCNCNCNvNtCscNmhOS6QYVL_12kameo_remote6handle18start_gossip_timer000Cs3gQfcGJLyAz_20ask_with_lookup_demo
FNDA:0,_RNCNCNCNvNtCscNmhOS6QYVL_12kameo_remote6handle18start_gossip_timer00s1_0Cs3gQfcGJLyAz_20ask_with_lookup_demo
FNDA:15,_RNCNCNCNvNtCscNmhOS6QYVL_12kameo_remote6handle18start_gossip_timer00s2_0Cs3gQfcGJLyAz_20ask_with_lookup_demo
FNDA:0,_RNCNCNCNvNtCscNmhOS6QYVL_12kameo_remote6handle18start_gossip_timer00s4_0Cs3gQfcGJLyAz_20ask_with_lookup_demo
FNDA:0,_RNCNCNCNvNtCscNmhOS6QYVL_12kameo_remote6handle18start_gossip_timer00s5_0Cs3gQfcGJLyAz_20ask_with_lookup_demo
FNDA:0,_RNCNCNCNvNtCscNmhOS6QYVL_12kameo_remote6handle23send_streaming_response000Cs3gQfcGJLyAz_20ask_with_lookup_demo
FNDA:5,_RNCNCNCNvNtCscNmhOS6QYVL_12kameo_remote6handle33start_gossip_server_with_listener000Cs3gQfcGJLyAz_20ask_with_lookup_demo
FNDA:5,_RNCNCNvMNtCscNmhOS6QYVL_12kameo_remote6handleNtB6_20GossipRegistryHandle12new_with_tls00Cs3gQfcGJLyAz_20ask_with_lookup_demo
FNDA:5,_RNCNCNvMNtCscNmhOS6QYVL_12kameo_remote6handleNtB6_20GossipRegistryHandle12new_with_tls0s_0Cs3gQfcGJLyAz_20ask_with_lookup_demo
FNDA:5,_RNCNCNvNtCscNmhOS6QYVL_12kameo_remote6handle21handle_tls_connection00Cs3gQfcGJLyAz_20ask_with_lookup_demo
FNDA:5,_RNCNCNvNtCscNmhOS6QYVL_12kameo_remote6handle21handle_tls_connection0s0_0Cs3gQfcGJLyAz_20ask_with_lookup_demo
FNDA:5,_RNCNCNvNtCscNmhOS6QYVL_12kameo_remote6handle21handle_tls_connection0s1_0Cs3gQfcGJLyAz_20ask_with_lookup_demo
FNDA:5,_RNCNCNvNtCscNmhOS6QYVL_12kameo_remote6handle21handle_tls_connection0s_0Cs3gQfcGJLyAz_20ask_with_lookup_demo
FNDA:0,_RNCNCNvNtCscNmhOS6QYVL_12kameo_remote6handle23send_streaming_response00Cs3gQfcGJLyAz_20ask_with_lookup_demo
FNDA:0,_RNCNCNvNtCscNmhOS6QYVL_12kameo_remote6handle29send_gossip_message_zero_copy00Cs3gQfcGJLyAz_20ask_with_lookup_demo
FNDA:5,_RNCNvMNtCscNmhOS6QYVL_12kameo_remote6handleNtB4_20GossipRegistryHandle12new_with_tls0Cs3gQfcGJLyAz_20ask_with_lookup_demo
FNDA:0,_RNCNvMNtCscNmhOS6QYVL_12kameo_remote6handleNtB4_20GossipRegistryHandle14get_connection0Cs3gQfcGJLyAz_20ask_with_lookup_demo
FNDA:4,_RNCNvMNtCscNmhOS6QYVL_12kameo_remote6handleNtB4_20GossipRegistryHandle15register_urgent0Cs3gQfcGJLyAz_20ask_with_lookup_demo
FNDA:5,_RNCNvMNtCscNmhOS6QYVL_12kameo_remote6handleNtB4_20GossipRegistryHandle16new_with_keypair0Cs3gQfcGJLyAz_20ask_with_lookup_demo
FNDA:4,_RNCNvMNtCscNmhOS6QYVL_12kameo_remote6handleNtB4_20GossipRegistryHandle22get_connection_to_peer0Cs3gQfcGJLyAz_20ask_with_lookup_demo
